; ModuleID = 'MiniInterpreter.cpp'
source_filename = "MiniInterpreter.cpp"
target datalayout = "e-m:e-p270:32:32-p271:32:32-p272:64:64-i64:64-f80:128-n8:16:32:64-S128"
target triple = "x86_64-pc-linux-gnu"

%"class.std::ios_base::Init" = type { i8 }
%"class.std::basic_ostream" = type { i32 (...)**, %"class.std::basic_ios" }
%"class.std::basic_ios" = type { %"class.std::ios_base", %"class.std::basic_ostream"*, i8, i8, %"class.std::basic_streambuf"*, %"class.std::ctype"*, %"class.std::num_put"*, %"class.std::num_get"* }
%"class.std::ios_base" = type { i32 (...)**, i64, i64, i32, i32, i32, %"struct.std::ios_base::_Callback_list"*, %"struct.std::ios_base::_Words", [8 x %"struct.std::ios_base::_Words"], i32, %"struct.std::ios_base::_Words"*, %"class.std::locale" }
%"struct.std::ios_base::_Callback_list" = type { %"struct.std::ios_base::_Callback_list"*, void (i32, %"class.std::ios_base"*, i32)*, i32, i32 }
%"struct.std::ios_base::_Words" = type { i8*, i64 }
%"class.std::locale" = type { %"class.std::locale::_Impl"* }
%"class.std::locale::_Impl" = type { i32, %"class.std::locale::facet"**, i64, %"class.std::locale::facet"**, i8** }
%"class.std::locale::facet" = type <{ i32 (...)**, i32, [4 x i8] }>
%"class.std::basic_streambuf" = type { i32 (...)**, i8*, i8*, i8*, i8*, i8*, i8*, %"class.std::locale" }
%"class.std::ctype" = type <{ %"class.std::locale::facet.base", [4 x i8], %struct.__locale_struct*, i8, [7 x i8], i32*, i32*, i16*, i8, [256 x i8], [256 x i8], i8, [6 x i8] }>
%"class.std::locale::facet.base" = type <{ i32 (...)**, i32 }>
%struct.__locale_struct = type { [13 x %struct.__locale_data*], i16*, i32*, i32*, [13 x i8*] }
%struct.__locale_data = type opaque
%"class.std::num_put" = type { %"class.std::locale::facet.base", [4 x i8] }
%"class.std::num_get" = type { %"class.std::locale::facet.base", [4 x i8] }
%"class.std::basic_istream" = type { i32 (...)**, i64, %"class.std::basic_ios" }
%"struct.std::piecewise_construct_t" = type { i8 }
%"class.mini::TypedValue" = type { %"struct.antlrcpp::Any", %"class.std::__cxx11::basic_string" }
%"struct.antlrcpp::Any" = type { i32 (...)**, %"struct.antlrcpp::Any::Base"* }
%"struct.antlrcpp::Any::Base" = type { i32 (...)** }
%"class.std::__cxx11::basic_string" = type { %"struct.std::__cxx11::basic_string<char, std::char_traits<char>, std::allocator<char> >::_Alloc_hider", i64, %union.anon }
%"struct.std::__cxx11::basic_string<char, std::char_traits<char>, std::allocator<char> >::_Alloc_hider" = type { i8* }
%union.anon = type { i64, [8 x i8] }
%"class.mini::MiniInterpreter" = type { %"class.ast::ASTVisitor", %"class.std::map", %"class.std::vector", %"class.std::map.6", %"class.std::map.11", %"class.std::shared_ptr" }
%"class.ast::ASTVisitor" = type { i32 (...)** }
%"class.std::map" = type { %"class.std::_Rb_tree" }
%"class.std::_Rb_tree" = type { %"struct.std::_Rb_tree<std::__cxx11::basic_string<char>, std::pair<const std::__cxx11::basic_string<char>, std::shared_ptr<mini::TypedValue> >, std::_Select1st<std::pair<const std::__cxx11::basic_string<char>, std::shared_ptr<mini::TypedValue> > >, std::less<std::__cxx11::basic_string<char> >, std::allocator<std::pair<const std::__cxx11::basic_string<char>, std::shared_ptr<mini::TypedValue> > > >::_Rb_tree_impl" }
%"struct.std::_Rb_tree<std::__cxx11::basic_string<char>, std::pair<const std::__cxx11::basic_string<char>, std::shared_ptr<mini::TypedValue> >, std::_Select1st<std::pair<const std::__cxx11::basic_string<char>, std::shared_ptr<mini::TypedValue> > >, std::less<std::__cxx11::basic_string<char> >, std::allocator<std::pair<const std::__cxx11::basic_string<char>, std::shared_ptr<mini::TypedValue> > > >::_Rb_tree_impl" = type { %"struct.std::_Rb_tree_key_compare", %"struct.std::_Rb_tree_header" }
%"struct.std::_Rb_tree_key_compare" = type { %"struct.std::less" }
%"struct.std::less" = type { i8 }
%"struct.std::_Rb_tree_header" = type { %"struct.std::_Rb_tree_node_base", i64 }
%"struct.std::_Rb_tree_node_base" = type { i32, %"struct.std::_Rb_tree_node_base"*, %"struct.std::_Rb_tree_node_base"*, %"struct.std::_Rb_tree_node_base"* }
%"class.std::vector" = type { %"struct.std::_Vector_base" }
%"struct.std::_Vector_base" = type { %"struct.std::_Vector_base<std::map<std::__cxx11::basic_string<char>, std::shared_ptr<mini::TypedValue>, std::less<std::__cxx11::basic_string<char> >, std::allocator<std::pair<const std::__cxx11::basic_string<char>, std::shared_ptr<mini::TypedValue> > > >, std::allocator<std::map<std::__cxx11::basic_string<char>, std::shared_ptr<mini::TypedValue>, std::less<std::__cxx11::basic_string<char> >, std::allocator<std::pair<const std::__cxx11::basic_string<char>, std::shared_ptr<mini::TypedValue> > > > > >::_Vector_impl" }
%"struct.std::_Vector_base<std::map<std::__cxx11::basic_string<char>, std::shared_ptr<mini::TypedValue>, std::less<std::__cxx11::basic_string<char> >, std::allocator<std::pair<const std::__cxx11::basic_string<char>, std::shared_ptr<mini::TypedValue> > > >, std::allocator<std::map<std::__cxx11::basic_string<char>, std::shared_ptr<mini::TypedValue>, std::less<std::__cxx11::basic_string<char> >, std::allocator<std::pair<const std::__cxx11::basic_string<char>, std::shared_ptr<mini::TypedValue> > > > > >::_Vector_impl" = type { %"class.std::map"*, %"class.std::map"*, %"class.std::map"* }
%"class.std::map.6" = type { %"class.std::_Rb_tree.7" }
%"class.std::_Rb_tree.7" = type { %"struct.std::_Rb_tree<std::__cxx11::basic_string<char>, std::pair<const std::__cxx11::basic_string<char>, std::shared_ptr<ast::Function> >, std::_Select1st<std::pair<const std::__cxx11::basic_string<char>, std::shared_ptr<ast::Function> > >, std::less<std::__cxx11::basic_string<char> >, std::allocator<std::pair<const std::__cxx11::basic_string<char>, std::shared_ptr<ast::Function> > > >::_Rb_tree_impl" }
%"struct.std::_Rb_tree<std::__cxx11::basic_string<char>, std::pair<const std::__cxx11::basic_string<char>, std::shared_ptr<ast::Function> >, std::_Select1st<std::pair<const std::__cxx11::basic_string<char>, std::shared_ptr<ast::Function> > >, std::less<std::__cxx11::basic_string<char> >, std::allocator<std::pair<const std::__cxx11::basic_string<char>, std::shared_ptr<ast::Function> > > >::_Rb_tree_impl" = type { %"struct.std::_Rb_tree_key_compare", %"struct.std::_Rb_tree_header" }
%"class.std::map.11" = type { %"class.std::_Rb_tree.12" }
%"class.std::_Rb_tree.12" = type { %"struct.std::_Rb_tree<std::__cxx11::basic_string<char>, std::pair<const std::__cxx11::basic_string<char>, std::map<std::__cxx11::basic_string<char>, std::shared_ptr<mini::TypedValue>, std::less<std::__cxx11::basic_string<char> >, std::allocator<std::pair<const std::__cxx11::basic_string<char>, std::shared_ptr<mini::TypedValue> > > > >, std::_Select1st<std::pair<const std::__cxx11::basic_string<char>, std::map<std::__cxx11::basic_string<char>, std::shared_ptr<mini::TypedValue>, std::less<std::__cxx11::basic_string<char> >, std::allocator<std::pair<const std::__cxx11::basic_string<char>, std::shared_ptr<mini::TypedValue> > > > > >, std::less<std::__cxx11::basic_string<char> >, std::allocator<std::pair<const std::__cxx11::basic_string<char>, std::map<std::__cxx11::basic_string<char>, std::shared_ptr<mini::TypedValue>, std::less<std::__cxx11::basic_string<char> >, std::allocator<std::pair<const std::__cxx11::basic_string<char>, std::shared_ptr<mini::TypedValue> > > > > > >::_Rb_tree_impl" }
%"struct.std::_Rb_tree<std::__cxx11::basic_string<char>, std::pair<const std::__cxx11::basic_string<char>, std::map<std::__cxx11::basic_string<char>, std::shared_ptr<mini::TypedValue>, std::less<std::__cxx11::basic_string<char> >, std::allocator<std::pair<const std::__cxx11::basic_string<char>, std::shared_ptr<mini::TypedValue> > > > >, std::_Select1st<std::pair<const std::__cxx11::basic_string<char>, std::map<std::__cxx11::basic_string<char>, std::shared_ptr<mini::TypedValue>, std::less<std::__cxx11::basic_string<char> >, std::allocator<std::pair<const std::__cxx11::basic_string<char>, std::shared_ptr<mini::TypedValue> > > > > >, std::less<std::__cxx11::basic_string<char> >, std::allocator<std::pair<const std::__cxx11::basic_string<char>, std::map<std::__cxx11::basic_string<char>, std::shared_ptr<mini::TypedValue>, std::less<std::__cxx11::basic_string<char> >, std::allocator<std::pair<const std::__cxx11::basic_string<char>, std::shared_ptr<mini::TypedValue> > > > > > >::_Rb_tree_impl" = type { %"struct.std::_Rb_tree_key_compare", %"struct.std::_Rb_tree_header" }
%"class.std::shared_ptr" = type { %"class.std::__shared_ptr" }
%"class.std::__shared_ptr" = type { %"class.ast::Program"*, %"class.std::__shared_count" }
%"class.ast::Program" = type { %"class.std::vector.16", %"class.std::vector.24", %"class.std::vector.35" }
%"class.std::vector.16" = type { %"struct.std::_Vector_base.17" }
%"struct.std::_Vector_base.17" = type { %"struct.std::_Vector_base<std::shared_ptr<ast::TypeDeclaration>, std::allocator<std::shared_ptr<ast::TypeDeclaration> > >::_Vector_impl" }
%"struct.std::_Vector_base<std::shared_ptr<ast::TypeDeclaration>, std::allocator<std::shared_ptr<ast::TypeDeclaration> > >::_Vector_impl" = type { %"class.std::shared_ptr.21"*, %"class.std::shared_ptr.21"*, %"class.std::shared_ptr.21"* }
%"class.std::shared_ptr.21" = type { %"class.std::__shared_ptr.22" }
%"class.std::__shared_ptr.22" = type { %"class.ast::TypeDeclaration"*, %"class.std::__shared_count" }
%"class.ast::TypeDeclaration" = type { i32, %"class.std::__cxx11::basic_string", %"class.std::vector.24" }
%"class.std::vector.24" = type { %"struct.std::_Vector_base.25" }
%"struct.std::_Vector_base.25" = type { %"struct.std::_Vector_base<std::shared_ptr<ast::Declaration>, std::allocator<std::shared_ptr<ast::Declaration> > >::_Vector_impl" }
%"struct.std::_Vector_base<std::shared_ptr<ast::Declaration>, std::allocator<std::shared_ptr<ast::Declaration> > >::_Vector_impl" = type { %"class.std::shared_ptr.29"*, %"class.std::shared_ptr.29"*, %"class.std::shared_ptr.29"* }
%"class.std::shared_ptr.29" = type { %"class.std::__shared_ptr.30" }
%"class.std::__shared_ptr.30" = type { %"class.ast::Declaration"*, %"class.std::__shared_count" }
%"class.ast::Declaration" = type { i32, %"class.std::shared_ptr.32", %"class.std::__cxx11::basic_string" }
%"class.std::shared_ptr.32" = type { %"class.std::__shared_ptr.33" }
%"class.std::__shared_ptr.33" = type { %"class.ast::Type"*, %"class.std::__shared_count" }
%"class.ast::Type" = type { i32 (...)** }
%"class.std::vector.35" = type { %"struct.std::_Vector_base.36" }
%"struct.std::_Vector_base.36" = type { %"struct.std::_Vector_base<std::shared_ptr<ast::Function>, std::allocator<std::shared_ptr<ast::Function> > >::_Vector_impl" }
%"struct.std::_Vector_base<std::shared_ptr<ast::Function>, std::allocator<std::shared_ptr<ast::Function> > >::_Vector_impl" = type { %"class.std::shared_ptr.40"*, %"class.std::shared_ptr.40"*, %"class.std::shared_ptr.40"* }
%"class.std::shared_ptr.40" = type { %"class.std::__shared_ptr.41" }
%"class.std::__shared_ptr.41" = type { %"class.ast::Function"*, %"class.std::__shared_count" }
%"class.ast::Function" = type { i32, %"class.std::__cxx11::basic_string", %"class.std::shared_ptr.32", %"class.std::vector.24", %"class.std::vector.24", %"class.std::shared_ptr.43" }
%"class.std::shared_ptr.43" = type { %"class.std::__shared_ptr.44" }
%"class.std::__shared_ptr.44" = type { %"class.ast::Statement"*, %"class.std::__shared_count" }
%"class.ast::Statement" = type <{ i32 (...)**, i32, [4 x i8] }>
%"class.std::__shared_count" = type { %"class.std::_Sp_counted_base"* }
%"class.std::_Sp_counted_base" = type { i32 (...)**, i32, i32 }
%"struct.antlrcpp::Any::Derived" = type { %"struct.antlrcpp::Any::Base", %"class.std::map"* }
%"class.std::allocator" = type { i8 }
%"class.std::__cxx11::basic_ostringstream" = type { %"class.std::basic_ostream.base", %"class.std::__cxx11::basic_stringbuf", %"class.std::basic_ios" }
%"class.std::basic_ostream.base" = type { i32 (...)** }
%"class.std::__cxx11::basic_stringbuf" = type { %"class.std::basic_streambuf", i32, %"class.std::__cxx11::basic_string" }
%"struct.antlrcpp::Any::Derived.89" = type <{ %"struct.antlrcpp::Any::Base", i32, [4 x i8] }>
%"struct.antlrcpp::Any::Derived.90" = type <{ %"struct.antlrcpp::Any::Base", i8, [7 x i8] }>
%"class.std::type_info" = type { i32 (...)**, i8* }
%"class.std::runtime_error" = type { %"class.std::exception", %"struct.std::__cow_string" }
%"class.std::exception" = type { i32 (...)** }
%"struct.std::__cow_string" = type { %union.anon.46 }
%union.anon.46 = type { i8* }
%"class.std::shared_ptr.47" = type { %"class.std::__shared_ptr.48" }
%"class.std::__shared_ptr.48" = type { %"class.mini::TypedValue"*, %"class.std::__shared_count" }
%"class.std::reverse_iterator" = type { %"class.__gnu_cxx::__normal_iterator" }
%"class.__gnu_cxx::__normal_iterator" = type { %"class.std::map"* }
%"struct.std::_Rb_tree_const_iterator" = type { %"struct.std::_Rb_tree_node_base"* }
%"struct.std::_Rb_tree_iterator" = type { %"struct.std::_Rb_tree_node_base"* }
%"struct.std::pair.68" = type { %"class.std::__cxx11::basic_string", %"class.std::shared_ptr.47" }
%"class.std::vector.50" = type { %"struct.std::_Vector_base.51" }
%"struct.std::_Vector_base.51" = type { %"struct.std::_Vector_base<std::shared_ptr<ast::Expression>, std::allocator<std::shared_ptr<ast::Expression> > >::_Vector_impl" }
%"struct.std::_Vector_base<std::shared_ptr<ast::Expression>, std::allocator<std::shared_ptr<ast::Expression> > >::_Vector_impl" = type { %"class.std::shared_ptr.55"*, %"class.std::shared_ptr.55"*, %"class.std::shared_ptr.55"* }
%"class.std::shared_ptr.55" = type { %"class.std::__shared_ptr.56" }
%"class.std::__shared_ptr.56" = type { %"class.ast::Expression"*, %"class.std::__shared_count" }
%"class.ast::Expression" = type <{ i32 (...)**, i32, [4 x i8] }>
%"class.std::__shared_ptr_access.57" = type { i8 }
%"class.std::__shared_ptr_access.31" = type { i8 }
%"class.std::__shared_ptr_access.49" = type { i8 }
%"class.std::tuple" = type { %"struct.std::_Tuple_impl" }
%"struct.std::_Tuple_impl" = type { %"struct.std::_Head_base" }
%"struct.std::_Head_base" = type { %"class.std::__cxx11::basic_string"* }
%"class.std::tuple.93" = type { i8 }
%"class.ast::AssignmentStatement" = type { %"class.ast::Statement.base", %"class.std::shared_ptr.58", %"class.std::shared_ptr.55" }
%"class.ast::Statement.base" = type <{ i32 (...)**, i32 }>
%"class.std::shared_ptr.58" = type { %"class.std::__shared_ptr.59" }
%"class.std::__shared_ptr.59" = type { %"class.ast::Lvalue"*, %"class.std::__shared_count" }
%"class.ast::Lvalue" = type <{ i32 (...)**, i32, [4 x i8] }>
%"class.std::__shared_ptr_access.60" = type { i8 }
%"class.ast::BinaryExpression" = type { %"class.ast::Expression.base", i32, %"class.std::shared_ptr.55", %"class.std::shared_ptr.55" }
%"class.ast::Expression.base" = type <{ i32 (...)**, i32 }>
%"struct.antlrcpp::Any::Derived.98" = type { %"struct.antlrcpp::Any::Base", %"class.mini::TypedValue" }
%"class.ast::BlockStatement" = type { %"class.ast::Statement.base", %"class.std::vector.61" }
%"class.std::vector.61" = type { %"struct.std::_Vector_base.62" }
%"struct.std::_Vector_base.62" = type { %"struct.std::_Vector_base<std::shared_ptr<ast::Statement>, std::allocator<std::shared_ptr<ast::Statement> > >::_Vector_impl" }
%"struct.std::_Vector_base<std::shared_ptr<ast::Statement>, std::allocator<std::shared_ptr<ast::Statement> > >::_Vector_impl" = type { %"class.std::shared_ptr.43"*, %"class.std::shared_ptr.43"*, %"class.std::shared_ptr.43"* }
%"class.__gnu_cxx::__normal_iterator.66" = type { %"class.std::shared_ptr.43"* }
%"class.std::__shared_ptr_access.45" = type { i8 }
%"class.ast::BoolType" = type { %"class.ast::Type" }
%"struct.antlrcpp::Any::Derived.99" = type { %"struct.antlrcpp::Any::Base", %"class.std::__cxx11::basic_string" }
%"class.ast::ConditionalStatement" = type { %"class.ast::Statement.base", %"class.std::shared_ptr.55", %"class.std::shared_ptr.43", %"class.std::shared_ptr.43" }
%"class.std::__shared_ptr_access.34" = type { i8 }
%"class.std::allocator.100" = type { i8 }
%"struct.antlrcpp::Any::Derived.92" = type { %"struct.antlrcpp::Any::Base", %"class.std::shared_ptr.47" }
%"class.ast::DeleteStatement" = type { %"class.ast::Statement.base", %"class.std::shared_ptr.55" }
%"class.ast::DotExpression" = type { %"class.ast::Expression.base", %"class.std::shared_ptr.55", %"class.std::__cxx11::basic_string" }
%"class.ast::FalseExpression" = type { %"class.ast::Expression.base", [4 x i8] }
%"class.__gnu_cxx::__normal_iterator.67" = type { %"class.std::shared_ptr.29"* }
%"class.ast::IdentifierExpression" = type { %"class.ast::Expression.base", %"class.std::__cxx11::basic_string" }
%"class.ast::IntegerExpression" = type { %"class.ast::Expression.base", i32 }
%"class.ast::IntType" = type { %"class.ast::Type" }
%"class.ast::InvocationExpression" = type { %"class.ast::Expression.base", %"class.std::__cxx11::basic_string", %"class.std::vector.50" }
%"class.std::__shared_ptr_access.42" = type { i8 }
%"struct.std::_Rb_tree_const_iterator.106" = type { %"struct.std::_Rb_tree_node_base"* }
%"struct.std::_Rb_tree_iterator.84" = type { %"struct.std::_Rb_tree_node_base"* }
%"struct.std::pair.86" = type { %"class.std::__cxx11::basic_string", %"class.std::shared_ptr.40" }
%"class.std::allocator.3" = type { i8 }
%"class.ast::InvocationStatement" = type { %"class.ast::Statement.base", %"class.std::shared_ptr.55" }
%"class.ast::LvalueDot" = type { %"class.ast::Lvalue.base", %"class.std::shared_ptr.55", %"class.std::__cxx11::basic_string" }
%"class.ast::Lvalue.base" = type <{ i32 (...)**, i32 }>
%"class.ast::LvalueId" = type { %"class.ast::Lvalue.base", %"class.std::__cxx11::basic_string" }
%"class.ast::NewExpression" = type { %"class.ast::Expression.base", %"class.std::__cxx11::basic_string" }
%"struct.std::_Rb_tree_const_iterator.111" = type { %"struct.std::_Rb_tree_node_base"* }
%"struct.std::_Rb_tree_iterator.75" = type { %"struct.std::_Rb_tree_node_base"* }
%"struct.std::pair.77" = type { %"class.std::__cxx11::basic_string", %"class.std::map" }
%"class.ast::NullExpression" = type { %"class.ast::Expression.base", [4 x i8] }
%"class.ast::PrintLnStatement" = type { %"class.ast::Statement.base", %"class.std::shared_ptr.55" }
%"class.ast::PrintStatement" = type { %"class.ast::Statement.base", %"class.std::shared_ptr.55" }
%"struct.std::pair" = type <{ %"struct.std::_Rb_tree_iterator", i8, [7 x i8] }>
%"class.__gnu_cxx::__normal_iterator.71" = type { %"class.std::shared_ptr.21"* }
%"struct.std::pair.72" = type <{ %"struct.std::_Rb_tree_iterator.75", i8, [7 x i8] }>
%"class.__gnu_cxx::__normal_iterator.80" = type { %"class.std::shared_ptr.40"* }
%"struct.std::pair.81" = type <{ %"struct.std::_Rb_tree_iterator.84", i8, [7 x i8] }>
%"class.std::__shared_ptr_access.23" = type { i8 }
%"class.std::__pair_base.69" = type { i8 }
%"class.std::__pair_base.78" = type { i8 }
%"class.std::__pair_base.87" = type { i8 }
%"class.ast::ReadExpression" = type { %"class.ast::Expression.base", [4 x i8] }
%"class.ast::ReturnEmptyStatement" = type { %"class.ast::Statement.base", [4 x i8] }
%"class.ast::ReturnStatement" = type { %"class.ast::Statement.base", %"class.std::shared_ptr.55" }
%"class.ast::StructType" = type { %"class.ast::Type", i32, %"class.std::__cxx11::basic_string" }
%"class.ast::TrueExpression" = type { %"class.ast::Expression.base", [4 x i8] }
%"struct.antlrcpp::Any::Derived.116" = type { %"struct.antlrcpp::Any::Base", %"class.std::map" }
%"class.ast::UnaryExpression" = type { %"class.ast::Expression.base", i32, %"class.std::shared_ptr.55" }
%"class.ast::VoidType" = type { %"class.ast::Type" }
%"class.ast::WhileStatement" = type { %"class.ast::Statement.base", %"class.std::shared_ptr.55", %"class.std::shared_ptr.43" }
%"class.std::__shared_ptr_access" = type { i8 }
%struct.__va_list_tag = type { i32, i32, i8*, i8* }
%"struct.std::__false_type" = type { i8 }
%"struct.std::forward_iterator_tag" = type { i8 }
%"struct.std::random_access_iterator_tag" = type { i8 }
%"class.std::allocator.0" = type { i8 }
%"class.__gnu_cxx::new_allocator.1" = type { i8 }
%"struct.std::_Rb_tree_node" = type { %"struct.std::_Rb_tree_node_base", %"struct.__gnu_cxx::__aligned_membuf" }
%"struct.__gnu_cxx::__aligned_membuf" = type { [48 x i8] }
%"class.std::allocator.8" = type { i8 }
%"class.__gnu_cxx::new_allocator.9" = type { i8 }
%"class.std::allocator.13" = type { i8 }
%"class.__gnu_cxx::new_allocator.14" = type { i8 }
%"struct.std::_Rb_tree<std::__cxx11::basic_string<char>, std::pair<const std::__cxx11::basic_string<char>, std::shared_ptr<mini::TypedValue> >, std::_Select1st<std::pair<const std::__cxx11::basic_string<char>, std::shared_ptr<mini::TypedValue> > >, std::less<std::__cxx11::basic_string<char> >, std::allocator<std::pair<const std::__cxx11::basic_string<char>, std::shared_ptr<mini::TypedValue> > > >::_Alloc_node" = type { %"class.std::_Rb_tree"* }
%"class.std::bad_cast" = type { %"class.std::exception" }
%"struct.std::iterator" = type { i8 }
%"struct.std::_Select1st" = type { i8 }
%"struct.std::pair.94" = type { %"struct.std::_Rb_tree_node_base"*, %"struct.std::_Rb_tree_node_base"* }
%"struct.std::_Index_tuple" = type { i8 }
%"struct.std::_Index_tuple.97" = type { i8 }
%"class.std::__pair_base.95" = type { i8 }
%"class.__gnu_cxx::new_allocator.4" = type { i8 }
%"struct.std::_Sp_make_shared_tag" = type { i8 }
%"class.__gnu_cxx::new_allocator.101" = type { i8 }
%"class.std::allocator.103" = type { i8 }
%"struct.std::__allocated_ptr" = type { %"class.std::allocator.103"*, %"class.std::_Sp_counted_ptr_inplace"* }
%"class.std::_Sp_counted_ptr_inplace" = type { %"class.std::_Sp_counted_base", %"class.std::_Sp_counted_ptr_inplace<mini::TypedValue, std::allocator<mini::TypedValue>, __gnu_cxx::_S_atomic>::_Impl" }
%"class.std::_Sp_counted_ptr_inplace<mini::TypedValue, std::allocator<mini::TypedValue>, __gnu_cxx::_S_atomic>::_Impl" = type { %"struct.__gnu_cxx::__aligned_buffer" }
%"struct.__gnu_cxx::__aligned_buffer" = type { %"union.std::aligned_storage<48, 8>::type" }
%"union.std::aligned_storage<48, 8>::type" = type { [48 x i8] }
%"class.__gnu_cxx::new_allocator.104" = type { i8 }
%"class.std::_Mutex_base" = type { i8 }
%"struct.std::_Sp_ebo_helper" = type { i8 }
%"struct.std::_Rb_tree_node.107" = type { %"struct.std::_Rb_tree_node_base", %"struct.__gnu_cxx::__aligned_membuf.108" }
%"struct.__gnu_cxx::__aligned_membuf.108" = type { [48 x i8] }
%"struct.std::_Select1st.109" = type { i8 }
%"class.std::move_iterator" = type { %"class.std::map"* }
%"struct.std::_Rb_tree_node.112" = type { %"struct.std::_Rb_tree_node_base", %"struct.__gnu_cxx::__aligned_membuf.113" }
%"struct.__gnu_cxx::__aligned_membuf.113" = type { [80 x i8] }
%"struct.std::_Select1st.114" = type { i8 }
%"class.std::__pair_base" = type { i8 }
%"struct.std::_Rb_tree<std::__cxx11::basic_string<char>, std::pair<const std::__cxx11::basic_string<char>, std::map<std::__cxx11::basic_string<char>, std::shared_ptr<mini::TypedValue>, std::less<std::__cxx11::basic_string<char> >, std::allocator<std::pair<const std::__cxx11::basic_string<char>, std::shared_ptr<mini::TypedValue> > > > >, std::_Select1st<std::pair<const std::__cxx11::basic_string<char>, std::map<std::__cxx11::basic_string<char>, std::shared_ptr<mini::TypedValue>, std::less<std::__cxx11::basic_string<char> >, std::allocator<std::pair<const std::__cxx11::basic_string<char>, std::shared_ptr<mini::TypedValue> > > > > >, std::less<std::__cxx11::basic_string<char> >, std::allocator<std::pair<const std::__cxx11::basic_string<char>, std::map<std::__cxx11::basic_string<char>, std::shared_ptr<mini::TypedValue>, std::less<std::__cxx11::basic_string<char> >, std::allocator<std::pair<const std::__cxx11::basic_string<char>, std::shared_ptr<mini::TypedValue> > > > > > >::_Alloc_node" = type { %"class.std::_Rb_tree.12"* }
%"class.std::__pair_base.73" = type { i8 }
%"struct.std::_Rb_tree<std::__cxx11::basic_string<char>, std::pair<const std::__cxx11::basic_string<char>, std::shared_ptr<ast::Function> >, std::_Select1st<std::pair<const std::__cxx11::basic_string<char>, std::shared_ptr<ast::Function> > >, std::less<std::__cxx11::basic_string<char> >, std::allocator<std::pair<const std::__cxx11::basic_string<char>, std::shared_ptr<ast::Function> > > >::_Alloc_node" = type { %"class.std::_Rb_tree.7"* }
%"class.std::__pair_base.82" = type { i8 }

$_ZN8antlrcpp3AnyC2ERS0_ = comdat any

$_ZNK8antlrcpp3Any2isIPSt3mapINSt7__cxx1112basic_stringIcSt11char_traitsIcESaIcEEESt10shared_ptrIN4mini10TypedValueEESt4lessIS8_ESaISt4pairIKS8_SC_EEEEEbv = comdat any

$_ZN8antlrcpp3Any2asIPSt3mapINSt7__cxx1112basic_stringIcSt11char_traitsIcESaIcEEESt10shared_ptrIN4mini10TypedValueEESt4lessIS8_ESaISt4pairIKS8_SC_EEEEERNSt5decayIT_E4typeEv = comdat any

$_ZSteqIcEN9__gnu_cxx11__enable_ifIXsr9__is_charIT_EE7__valueEbE6__typeERKNSt7__cxx1112basic_stringIS2_St11char_traitsIS2_ESaIS2_EEESC_ = comdat any

$_ZNSt7__cxx119to_stringEi = comdat any

$_ZN8antlrcpp3Any2asIiEERNSt5decayIT_E4typeEv = comdat any

$_ZN8antlrcpp3Any2asIbEERNSt5decayIT_E4typeEv = comdat any

$_ZSteqIcSt11char_traitsIcESaIcEEbRKNSt7__cxx1112basic_stringIT_T0_T1_EEPKS5_ = comdat any

$_ZNKSt9type_info4nameEv = comdat any

$_ZN4mini10TypedValue3getIiEET_v = comdat any

$_ZN4mini10TypedValue3getIbEET_v = comdat any

$_ZNSt6vectorISt3mapINSt7__cxx1112basic_stringIcSt11char_traitsIcESaIcEEESt10shared_ptrIN4mini10TypedValueEESt4lessIS6_ESaISt4pairIKS6_SA_EEESaISH_EE6rbeginEv = comdat any

$_ZStneIN9__gnu_cxx17__normal_iteratorIPSt3mapINSt7__cxx1112basic_stringIcSt11char_traitsIcESaIcEEESt10shared_ptrIN4mini10TypedValueEESt4lessIS8_ESaISt4pairIKS8_SC_EEESt6vectorISJ_SaISJ_EEEEEbRKSt16reverse_iteratorIT_EST_ = comdat any

$_ZNSt6vectorISt3mapINSt7__cxx1112basic_stringIcSt11char_traitsIcESaIcEEESt10shared_ptrIN4mini10TypedValueEESt4lessIS6_ESaISt4pairIKS6_SA_EEESaISH_EE4rendEv = comdat any

$_ZNKSt16reverse_iteratorIN9__gnu_cxx17__normal_iteratorIPSt3mapINSt7__cxx1112basic_stringIcSt11char_traitsIcESaIcEEESt10shared_ptrIN4mini10TypedValueEESt4lessIS8_ESaISt4pairIKS8_SC_EEESt6vectorISJ_SaISJ_EEEEEptEv = comdat any

$_ZNKSt3mapINSt7__cxx1112basic_stringIcSt11char_traitsIcESaIcEEESt10shared_ptrIN4mini10TypedValueEESt4lessIS5_ESaISt4pairIKS5_S9_EEE5countERSD_ = comdat any

$_ZNSt3mapINSt7__cxx1112basic_stringIcSt11char_traitsIcESaIcEEESt10shared_ptrIN4mini10TypedValueEESt4lessIS5_ESaISt4pairIKS5_S9_EEE2atERSD_ = comdat any

$_ZNSt10shared_ptrIN4mini10TypedValueEEC2ERKS2_ = comdat any

$_ZNSt16reverse_iteratorIN9__gnu_cxx17__normal_iteratorIPSt3mapINSt7__cxx1112basic_stringIcSt11char_traitsIcESaIcEEESt10shared_ptrIN4mini10TypedValueEESt4lessIS8_ESaISt4pairIKS8_SC_EEESt6vectorISJ_SaISJ_EEEEEppEv = comdat any

$_ZNSt10shared_ptrIN4mini10TypedValueEEC2EDn = comdat any

$_ZNSt3mapINSt7__cxx1112basic_stringIcSt11char_traitsIcESaIcEEESt10shared_ptrIN4mini10TypedValueEESt4lessIS5_ESaISt4pairIKS5_S9_EEEC2Ev = comdat any

$_ZNKSt6vectorISt10shared_ptrIN3ast11DeclarationEESaIS3_EE4sizeEv = comdat any

$_ZNKSt6vectorISt10shared_ptrIN3ast10ExpressionEESaIS3_EE4sizeEv = comdat any

$_ZNSt6vectorISt10shared_ptrIN3ast10ExpressionEESaIS3_EE2atEm = comdat any

$_ZNKSt19__shared_ptr_accessIN3ast10ExpressionELN9__gnu_cxx12_Lock_policyE2ELb0ELb0EEptEv = comdat any

$_ZN8antlrcpp3AnycvT_IN4mini10TypedValueEEEv = comdat any

$_ZNSt6vectorISt10shared_ptrIN3ast11DeclarationEESaIS3_EE2atEm = comdat any

$_ZNKSt19__shared_ptr_accessIN3ast11DeclarationELN9__gnu_cxx12_Lock_policyE2ELb0ELb0EEptEv = comdat any

$_ZN8antlrcpp3AnycvT_ISt10shared_ptrIN4mini10TypedValueEEEEv = comdat any

$_ZStneIcSt11char_traitsIcESaIcEEbRKNSt7__cxx1112basic_stringIT_T0_T1_EESA_ = comdat any

$_ZNKSt19__shared_ptr_accessIN4mini10TypedValueELN9__gnu_cxx12_Lock_policyE2ELb0ELb0EEptEv = comdat any

$_ZN8antlrcpp3AnyaSERKS0_ = comdat any

$_ZNSt3mapINSt7__cxx1112basic_stringIcSt11char_traitsIcESaIcEEESt10shared_ptrIN4mini10TypedValueEESt4lessIS5_ESaISt4pairIKS5_S9_EEEixERSD_ = comdat any

$_ZNSt10shared_ptrIN4mini10TypedValueEEaSERKS2_ = comdat any

$_ZNSt10shared_ptrIN4mini10TypedValueEED2Ev = comdat any

$_ZN4mini10TypedValueD2Ev = comdat any

$_ZNSt3mapINSt7__cxx1112basic_stringIcSt11char_traitsIcESaIcEEESt10shared_ptrIN4mini10TypedValueEESt4lessIS5_ESaISt4pairIKS5_S9_EEED2Ev = comdat any

$_ZN3ast10ASTVisitorC2Ev = comdat any

$_ZNSt6vectorISt3mapINSt7__cxx1112basic_stringIcSt11char_traitsIcESaIcEEESt10shared_ptrIN4mini10TypedValueEESt4lessIS6_ESaISt4pairIKS6_SA_EEESaISH_EEC2Ev = comdat any

$_ZNSt3mapINSt7__cxx1112basic_stringIcSt11char_traitsIcESaIcEEESt10shared_ptrIN3ast8FunctionEESt4lessIS5_ESaISt4pairIKS5_S9_EEEC2Ev = comdat any

$_ZNSt3mapINSt7__cxx1112basic_stringIcSt11char_traitsIcESaIcEEES_IS5_St10shared_ptrIN4mini10TypedValueEESt4lessIS5_ESaISt4pairIKS5_S9_EEESB_SaISC_ISD_SG_EEEC2Ev = comdat any

$_ZNSt10shared_ptrIN3ast7ProgramEEC2ERKS2_ = comdat any

$_ZNKSt19__shared_ptr_accessIN3ast6LvalueELN9__gnu_cxx12_Lock_policyE2ELb0ELb0EEptEv = comdat any

$_ZNKSt12__shared_ptrIN4mini10TypedValueELN9__gnu_cxx12_Lock_policyE2EEcvbEv = comdat any

$_ZN8antlrcpp3AnyC2IDnEEOT_ = comdat any

$_ZN4mini10TypedValue3getIPSt3mapINSt7__cxx1112basic_stringIcSt11char_traitsIcESaIcEEESt10shared_ptrIS0_ESt4lessIS8_ESaISt4pairIKS8_SA_EEEEET_v = comdat any

$_ZN8antlrcpp3AnyC2IbEEOT_ = comdat any

$_ZN8antlrcpp3AnyC2IN4mini10TypedValueEEEOT_ = comdat any

$_ZN8antlrcpp3AnyC2IiEEOT_ = comdat any

$_ZNSt6vectorISt10shared_ptrIN3ast9StatementEESaIS3_EE5beginEv = comdat any

$_ZNSt6vectorISt10shared_ptrIN3ast9StatementEESaIS3_EE3endEv = comdat any

$_ZN9__gnu_cxxneIPSt10shared_ptrIN3ast9StatementEESt6vectorIS4_SaIS4_EEEEbRKNS_17__normal_iteratorIT_T0_EESE_ = comdat any

$_ZNK9__gnu_cxx17__normal_iteratorIPSt10shared_ptrIN3ast9StatementEESt6vectorIS4_SaIS4_EEEdeEv = comdat any

$_ZNSt10shared_ptrIN3ast9StatementEEC2ERKS2_ = comdat any

$_ZNKSt19__shared_ptr_accessIN3ast9StatementELN9__gnu_cxx12_Lock_policyE2ELb0ELb0EEptEv = comdat any

$_ZNK8antlrcpp3Any2isIN4mini10TypedValueEEEbv = comdat any

$_ZNSt10shared_ptrIN3ast9StatementEED2Ev = comdat any

$_ZN9__gnu_cxx17__normal_iteratorIPSt10shared_ptrIN3ast9StatementEESt6vectorIS4_SaIS4_EEEppEv = comdat any

$_ZN8antlrcpp3AnyC2INSt7__cxx1112basic_stringIcSt11char_traitsIcESaIcEEEEEOT_ = comdat any

$_ZNKSt19__shared_ptr_accessIN3ast4TypeELN9__gnu_cxx12_Lock_policyE2ELb0ELb0EEptEv = comdat any

$_ZN8antlrcpp3AnycvT_INSt7__cxx1112basic_stringIcSt11char_traitsIcESaIcEEEEEv = comdat any

$_ZSt11make_sharedIN4mini10TypedValueEJRNSt7__cxx1112basic_stringIcSt11char_traitsIcESaIcEEEiEESt10shared_ptrIT_EDpOT0_ = comdat any

$_ZN8antlrcpp3AnyC2ISt10shared_ptrIN4mini10TypedValueEEEEOT_ = comdat any

$_ZSt11make_sharedIN4mini10TypedValueEJRNSt7__cxx1112basic_stringIcSt11char_traitsIcESaIcEEEbEESt10shared_ptrIT_EDpOT0_ = comdat any

$_ZSt11make_sharedIN4mini10TypedValueEJRNSt7__cxx1112basic_stringIcSt11char_traitsIcESaIcEEEPSt3mapIS7_St10shared_ptrIS1_ESt4lessIS7_ESaISt4pairIKS7_SB_EEEEESA_IT_EDpOT0_ = comdat any

$_ZStplIcSt11char_traitsIcESaIcEENSt7__cxx1112basic_stringIT_T0_T1_EEOS8_PKS5_ = comdat any

$_ZNKSt19__shared_ptr_accessIN4mini10TypedValueELN9__gnu_cxx12_Lock_policyE2ELb0ELb0EEdeEv = comdat any

$_ZN8antlrcpp3AnyC2IRN4mini10TypedValueEEEOT_ = comdat any

$_ZNSt6vectorISt10shared_ptrIN3ast11DeclarationEESaIS3_EE5beginEv = comdat any

$_ZNSt6vectorISt10shared_ptrIN3ast11DeclarationEESaIS3_EE3endEv = comdat any

$_ZN9__gnu_cxxneIPSt10shared_ptrIN3ast11DeclarationEESt6vectorIS4_SaIS4_EEEEbRKNS_17__normal_iteratorIT_T0_EESE_ = comdat any

$_ZNK9__gnu_cxx17__normal_iteratorIPSt10shared_ptrIN3ast11DeclarationEESt6vectorIS4_SaIS4_EEEdeEv = comdat any

$_ZNSt10shared_ptrIN3ast11DeclarationEEC2ERKS2_ = comdat any

$_ZNSt6vectorISt3mapINSt7__cxx1112basic_stringIcSt11char_traitsIcESaIcEEESt10shared_ptrIN4mini10TypedValueEESt4lessIS6_ESaISt4pairIKS6_SA_EEESaISH_EE4backEv = comdat any

$_ZNSt10shared_ptrIN3ast11DeclarationEED2Ev = comdat any

$_ZN9__gnu_cxx17__normal_iteratorIPSt10shared_ptrIN3ast11DeclarationEESt6vectorIS4_SaIS4_EEEppEv = comdat any

$_ZN8antlrcpp3AnyC2IRiEEOT_ = comdat any

$_ZNKSt3mapINSt7__cxx1112basic_stringIcSt11char_traitsIcESaIcEEESt10shared_ptrIN3ast8FunctionEESt4lessIS5_ESaISt4pairIKS5_S9_EEE5countERSD_ = comdat any

$_ZNSt3mapINSt7__cxx1112basic_stringIcSt11char_traitsIcESaIcEEESt10shared_ptrIN3ast8FunctionEESt4lessIS5_ESaISt4pairIKS5_S9_EEE2atERSD_ = comdat any

$_ZNSt10shared_ptrIN3ast8FunctionEEC2ERKS2_ = comdat any

$_ZNKSt19__shared_ptr_accessIN3ast8FunctionELN9__gnu_cxx12_Lock_policyE2ELb0ELb0EEptEv = comdat any

$_ZNSt6vectorISt3mapINSt7__cxx1112basic_stringIcSt11char_traitsIcESaIcEEESt10shared_ptrIN4mini10TypedValueEESt4lessIS6_ESaISt4pairIKS6_SA_EEESaISH_EE9push_backERKSH_ = comdat any

$_ZNSt6vectorISt3mapINSt7__cxx1112basic_stringIcSt11char_traitsIcESaIcEEESt10shared_ptrIN4mini10TypedValueEESt4lessIS6_ESaISt4pairIKS6_SA_EEESaISH_EE8pop_backEv = comdat any

$_ZNSt10shared_ptrIN3ast8FunctionEED2Ev = comdat any

$_ZN8antlrcpp3AnyC2IRSt10shared_ptrIN4mini10TypedValueEEEEOT_ = comdat any

$_ZNKSt3mapINSt7__cxx1112basic_stringIcSt11char_traitsIcESaIcEEES_IS5_St10shared_ptrIN4mini10TypedValueEESt4lessIS5_ESaISt4pairIKS5_S9_EEESB_SaISC_ISD_SG_EEE5countERSD_ = comdat any

$_ZNSt3mapINSt7__cxx1112basic_stringIcSt11char_traitsIcESaIcEEES_IS5_St10shared_ptrIN4mini10TypedValueEESt4lessIS5_ESaISt4pairIKS5_S9_EEESB_SaISC_ISD_SG_EEE2atERSD_ = comdat any

$_ZNSt3mapINSt7__cxx1112basic_stringIcSt11char_traitsIcESaIcEEESt10shared_ptrIN4mini10TypedValueEESt4lessIS5_ESaISt4pairIKS5_S9_EEEC2ERKSG_ = comdat any

$_ZN8antlrcpp3AnyC2IPSt3mapINSt7__cxx1112basic_stringIcSt11char_traitsIcESaIcEEESt10shared_ptrIN4mini10TypedValueEESt4lessIS8_ESaISt4pairIKS8_SC_EEEEEOT_ = comdat any

$_ZNKSt12__shared_ptrIN3ast7ProgramELN9__gnu_cxx12_Lock_policyE2EE3getEv = comdat any

$_ZNSt3mapINSt7__cxx1112basic_stringIcSt11char_traitsIcESaIcEEESt10shared_ptrIN4mini10TypedValueEESt4lessIS5_ESaISt4pairIKS5_S9_EEE5clearEv = comdat any

$_ZNSt6vectorISt3mapINSt7__cxx1112basic_stringIcSt11char_traitsIcESaIcEEESt10shared_ptrIN4mini10TypedValueEESt4lessIS6_ESaISt4pairIKS6_SA_EEESaISH_EE5clearEv = comdat any

$_ZNSt3mapINSt7__cxx1112basic_stringIcSt11char_traitsIcESaIcEEESt10shared_ptrIN3ast8FunctionEESt4lessIS5_ESaISt4pairIKS5_S9_EEE5clearEv = comdat any

$_ZNSt3mapINSt7__cxx1112basic_stringIcSt11char_traitsIcESaIcEEES_IS5_St10shared_ptrIN4mini10TypedValueEESt4lessIS5_ESaISt4pairIKS5_S9_EEESB_SaISC_ISD_SG_EEE5clearEv = comdat any

$_ZNSt6vectorISt3mapINSt7__cxx1112basic_stringIcSt11char_traitsIcESaIcEEESt10shared_ptrIN4mini10TypedValueEESt4lessIS6_ESaISt4pairIKS6_SA_EEESaISH_EE9push_backEOSH_ = comdat any

$_ZNSt3mapINSt7__cxx1112basic_stringIcSt11char_traitsIcESaIcEEESt10shared_ptrIN4mini10TypedValueEESt4lessIS5_ESaISt4pairIKS5_S9_EEE6insertEOSE_ = comdat any

$_ZNSt4pairIKNSt7__cxx1112basic_stringIcSt11char_traitsIcESaIcEEESt10shared_ptrIN4mini10TypedValueEEEC2IRS5_RSA_Lb1EEEOT_OT0_ = comdat any

$_ZNSt4pairIKNSt7__cxx1112basic_stringIcSt11char_traitsIcESaIcEEESt10shared_ptrIN4mini10TypedValueEEED2Ev = comdat any

$_ZNSt6vectorISt10shared_ptrIN3ast15TypeDeclarationEESaIS3_EE5beginEv = comdat any

$_ZNSt6vectorISt10shared_ptrIN3ast15TypeDeclarationEESaIS3_EE3endEv = comdat any

$_ZN9__gnu_cxxneIPSt10shared_ptrIN3ast15TypeDeclarationEESt6vectorIS4_SaIS4_EEEEbRKNS_17__normal_iteratorIT_T0_EESE_ = comdat any

$_ZNK9__gnu_cxx17__normal_iteratorIPSt10shared_ptrIN3ast15TypeDeclarationEESt6vectorIS4_SaIS4_EEEdeEv = comdat any

$_ZNSt10shared_ptrIN3ast15TypeDeclarationEEC2ERKS2_ = comdat any

$_ZNSt3mapINSt7__cxx1112basic_stringIcSt11char_traitsIcESaIcEEES_IS5_St10shared_ptrIN4mini10TypedValueEESt4lessIS5_ESaISt4pairIKS5_S9_EEESB_SaISC_ISD_SG_EEE6insertEOSH_ = comdat any

$_ZNKSt19__shared_ptr_accessIN3ast15TypeDeclarationELN9__gnu_cxx12_Lock_policyE2ELb0ELb0EEptEv = comdat any

$_ZN8antlrcpp3AnycvT_ISt3mapINSt7__cxx1112basic_stringIcSt11char_traitsIcESaIcEEESt10shared_ptrIN4mini10TypedValueEESt4lessIS9_ESaISt4pairIKS9_SD_EEEEEv = comdat any

$_ZNSt4pairIKNSt7__cxx1112basic_stringIcSt11char_traitsIcESaIcEEESt3mapIS5_St10shared_ptrIN4mini10TypedValueEESt4lessIS5_ESaIS_IS6_SB_EEEEC2IRS5_Lb1EEEOT_RKSG_ = comdat any

$_ZNSt4pairIKNSt7__cxx1112basic_stringIcSt11char_traitsIcESaIcEEESt3mapIS5_St10shared_ptrIN4mini10TypedValueEESt4lessIS5_ESaIS_IS6_SB_EEEED2Ev = comdat any

$_ZNSt10shared_ptrIN3ast15TypeDeclarationEED2Ev = comdat any

$_ZN9__gnu_cxx17__normal_iteratorIPSt10shared_ptrIN3ast15TypeDeclarationEESt6vectorIS4_SaIS4_EEEppEv = comdat any

$_ZNSt10shared_ptrIN3ast8FunctionEEC2EDn = comdat any

$_ZNSt6vectorISt10shared_ptrIN3ast8FunctionEESaIS3_EE5beginEv = comdat any

$_ZNSt6vectorISt10shared_ptrIN3ast8FunctionEESaIS3_EE3endEv = comdat any

$_ZN9__gnu_cxxneIPSt10shared_ptrIN3ast8FunctionEESt6vectorIS4_SaIS4_EEEEbRKNS_17__normal_iteratorIT_T0_EESE_ = comdat any

$_ZNK9__gnu_cxx17__normal_iteratorIPSt10shared_ptrIN3ast8FunctionEESt6vectorIS4_SaIS4_EEEdeEv = comdat any

$_ZNSt10shared_ptrIN3ast8FunctionEEaSERKS2_ = comdat any

$_ZNSt3mapINSt7__cxx1112basic_stringIcSt11char_traitsIcESaIcEEESt10shared_ptrIN3ast8FunctionEESt4lessIS5_ESaISt4pairIKS5_S9_EEE6insertEOSE_ = comdat any

$_ZNSt4pairIKNSt7__cxx1112basic_stringIcSt11char_traitsIcESaIcEEESt10shared_ptrIN3ast8FunctionEEEC2IRS5_RSA_Lb1EEEOT_OT0_ = comdat any

$_ZNSt4pairIKNSt7__cxx1112basic_stringIcSt11char_traitsIcESaIcEEESt10shared_ptrIN3ast8FunctionEEED2Ev = comdat any

$_ZN9__gnu_cxx17__normal_iteratorIPSt10shared_ptrIN3ast8FunctionEESt6vectorIS4_SaIS4_EEEppEv = comdat any

$_ZSteqIN3ast8FunctionEEbRKSt10shared_ptrIT_EDn = comdat any

$_ZN8antlrcpp3Any2asIN4mini10TypedValueEEERNSt5decayIT_E4typeEv = comdat any

$_ZN4mini10TypedValueC2ERKS0_ = comdat any

$_ZNSt14numeric_limitsIlE3maxEv = comdat any

$_ZNSt4pairIKNSt7__cxx1112basic_stringIcSt11char_traitsIcESaIcEEESt10shared_ptrIN4mini10TypedValueEEEC2IRS5_Lb1EEEOT_RKSA_ = comdat any

$_ZN8antlrcpp3AnyC2ISt3mapINSt7__cxx1112basic_stringIcSt11char_traitsIcESaIcEEESt10shared_ptrIN4mini10TypedValueEESt4lessIS8_ESaISt4pairIKS8_SC_EEEEEOT_ = comdat any

$_ZN4mini10TypedValueaSEOS0_ = comdat any

$_ZNKSt19__shared_ptr_accessIN3ast7ProgramELN9__gnu_cxx12_Lock_policyE2ELb0ELb0EEptEv = comdat any

$_ZN8antlrcpp3AnycvT_IiEEv = comdat any

$_ZNK8antlrcpp3Any5cloneEv = comdat any

$_ZN9__gnu_cxx12__to_xstringINSt7__cxx1112basic_stringIcSt11char_traitsIcESaIcEEEcEET_PFiPT0_mPKS8_P13__va_list_tagEmSB_z = comdat any

$_ZNSt7__cxx1112basic_stringIcSt11char_traitsIcESaIcEEC2IPcvEET_S7_RKS3_ = comdat any

$_ZNSt7__cxx1112basic_stringIcSt11char_traitsIcESaIcEE12_M_constructIPcEEvT_S7_ = comdat any

$_ZNSt7__cxx1112basic_stringIcSt11char_traitsIcESaIcEE12_Alloc_hiderD2Ev = comdat any

$_ZNSt7__cxx1112basic_stringIcSt11char_traitsIcESaIcEE16_M_construct_auxIPcEEvT_S7_St12__false_type = comdat any

$_ZNSt7__cxx1112basic_stringIcSt11char_traitsIcESaIcEE12_M_constructIPcEEvT_S7_St20forward_iterator_tag = comdat any

$_ZN9__gnu_cxx17__is_null_pointerIcEEbPT_ = comdat any

$_ZSt8distanceIPcENSt15iterator_traitsIT_E15difference_typeES2_S2_ = comdat any

$__clang_call_terminate = comdat any

$_ZSt10__distanceIPcENSt15iterator_traitsIT_E15difference_typeES2_S2_St26random_access_iterator_tag = comdat any

$_ZSt19__iterator_categoryIPcENSt15iterator_traitsIT_E17iterator_categoryERKS2_ = comdat any

$_ZNSt12__shared_ptrIN4mini10TypedValueELN9__gnu_cxx12_Lock_policyE2EEC2ERKS4_ = comdat any

$_ZNSt14__shared_countILN9__gnu_cxx12_Lock_policyE2EEC2ERKS2_ = comdat any

$_ZNSt16_Sp_counted_baseILN9__gnu_cxx12_Lock_policyE2EE15_M_add_ref_copyEv = comdat any

$_ZNSt12__shared_ptrIN4mini10TypedValueELN9__gnu_cxx12_Lock_policyE2EEC2Ev = comdat any

$_ZNSt14__shared_countILN9__gnu_cxx12_Lock_policyE2EEC2Ev = comdat any

$_ZNSt8_Rb_treeINSt7__cxx1112basic_stringIcSt11char_traitsIcESaIcEEESt4pairIKS5_St10shared_ptrIN4mini10TypedValueEEESt10_Select1stISC_ESt4lessIS5_ESaISC_EEC2Ev = comdat any

$_ZNSt8_Rb_treeINSt7__cxx1112basic_stringIcSt11char_traitsIcESaIcEEESt4pairIKS5_St10shared_ptrIN4mini10TypedValueEEESt10_Select1stISC_ESt4lessIS5_ESaISC_EE13_Rb_tree_implISG_Lb1EEC2Ev = comdat any

$_ZNSaISt13_Rb_tree_nodeISt4pairIKNSt7__cxx1112basic_stringIcSt11char_traitsIcESaIcEEESt10shared_ptrIN4mini10TypedValueEEEEEC2Ev = comdat any

$_ZNSt20_Rb_tree_key_compareISt4lessINSt7__cxx1112basic_stringIcSt11char_traitsIcESaIcEEEEEC2Ev = comdat any

$_ZNSt15_Rb_tree_headerC2Ev = comdat any

$_ZN9__gnu_cxx13new_allocatorISt13_Rb_tree_nodeISt4pairIKNSt7__cxx1112basic_stringIcSt11char_traitsIcESaIcEEESt10shared_ptrIN4mini10TypedValueEEEEEC2Ev = comdat any

$_ZNSt15_Rb_tree_header8_M_resetEv = comdat any

$_ZNSt12__shared_ptrIN4mini10TypedValueELN9__gnu_cxx12_Lock_policyE2EEaSERKS4_ = comdat any

$_ZNSt14__shared_countILN9__gnu_cxx12_Lock_policyE2EEaSERKS2_ = comdat any

$_ZNSt16_Sp_counted_baseILN9__gnu_cxx12_Lock_policyE2EE10_M_releaseEv = comdat any

$_ZNSt12__shared_ptrIN4mini10TypedValueELN9__gnu_cxx12_Lock_policyE2EED2Ev = comdat any

$_ZNSt14__shared_countILN9__gnu_cxx12_Lock_policyE2EED2Ev = comdat any

$_ZNSt8_Rb_treeINSt7__cxx1112basic_stringIcSt11char_traitsIcESaIcEEESt4pairIKS5_St10shared_ptrIN4mini10TypedValueEEESt10_Select1stISC_ESt4lessIS5_ESaISC_EED2Ev = comdat any

$_ZNSt8_Rb_treeINSt7__cxx1112basic_stringIcSt11char_traitsIcESaIcEEESt4pairIKS5_St10shared_ptrIN4mini10TypedValueEEESt10_Select1stISC_ESt4lessIS5_ESaISC_EE8_M_eraseEPSt13_Rb_tree_nodeISC_E = comdat any

$_ZNSt8_Rb_treeINSt7__cxx1112basic_stringIcSt11char_traitsIcESaIcEEESt4pairIKS5_St10shared_ptrIN4mini10TypedValueEEESt10_Select1stISC_ESt4lessIS5_ESaISC_EE8_M_beginEv = comdat any

$_ZNSt8_Rb_treeINSt7__cxx1112basic_stringIcSt11char_traitsIcESaIcEEESt4pairIKS5_St10shared_ptrIN4mini10TypedValueEEESt10_Select1stISC_ESt4lessIS5_ESaISC_EE13_Rb_tree_implISG_Lb1EED2Ev = comdat any

$_ZNSt8_Rb_treeINSt7__cxx1112basic_stringIcSt11char_traitsIcESaIcEEESt4pairIKS5_St10shared_ptrIN4mini10TypedValueEEESt10_Select1stISC_ESt4lessIS5_ESaISC_EE8_S_rightEPSt18_Rb_tree_node_base = comdat any

$_ZNSt8_Rb_treeINSt7__cxx1112basic_stringIcSt11char_traitsIcESaIcEEESt4pairIKS5_St10shared_ptrIN4mini10TypedValueEEESt10_Select1stISC_ESt4lessIS5_ESaISC_EE7_S_leftEPSt18_Rb_tree_node_base = comdat any

$_ZNSt8_Rb_treeINSt7__cxx1112basic_stringIcSt11char_traitsIcESaIcEEESt4pairIKS5_St10shared_ptrIN4mini10TypedValueEEESt10_Select1stISC_ESt4lessIS5_ESaISC_EE12_M_drop_nodeEPSt13_Rb_tree_nodeISC_E = comdat any

$_ZNSt8_Rb_treeINSt7__cxx1112basic_stringIcSt11char_traitsIcESaIcEEESt4pairIKS5_St10shared_ptrIN4mini10TypedValueEEESt10_Select1stISC_ESt4lessIS5_ESaISC_EE15_M_destroy_nodeEPSt13_Rb_tree_nodeISC_E = comdat any

$_ZNSt8_Rb_treeINSt7__cxx1112basic_stringIcSt11char_traitsIcESaIcEEESt4pairIKS5_St10shared_ptrIN4mini10TypedValueEEESt10_Select1stISC_ESt4lessIS5_ESaISC_EE11_M_put_nodeEPSt13_Rb_tree_nodeISC_E = comdat any

$_ZNSt16allocator_traitsISaISt13_Rb_tree_nodeISt4pairIKNSt7__cxx1112basic_stringIcSt11char_traitsIcESaIcEEESt10shared_ptrIN4mini10TypedValueEEEEEE7destroyISD_EEvRSF_PT_ = comdat any

$_ZNSt8_Rb_treeINSt7__cxx1112basic_stringIcSt11char_traitsIcESaIcEEESt4pairIKS5_St10shared_ptrIN4mini10TypedValueEEESt10_Select1stISC_ESt4lessIS5_ESaISC_EE21_M_get_Node_allocatorEv = comdat any

$_ZNSt13_Rb_tree_nodeISt4pairIKNSt7__cxx1112basic_stringIcSt11char_traitsIcESaIcEEESt10shared_ptrIN4mini10TypedValueEEEE9_M_valptrEv = comdat any

$_ZN9__gnu_cxx13new_allocatorISt13_Rb_tree_nodeISt4pairIKNSt7__cxx1112basic_stringIcSt11char_traitsIcESaIcEEESt10shared_ptrIN4mini10TypedValueEEEEE7destroyISE_EEvPT_ = comdat any

$_ZN9__gnu_cxx16__aligned_membufISt4pairIKNSt7__cxx1112basic_stringIcSt11char_traitsIcESaIcEEESt10shared_ptrIN4mini10TypedValueEEEE6_M_ptrEv = comdat any

$_ZN9__gnu_cxx16__aligned_membufISt4pairIKNSt7__cxx1112basic_stringIcSt11char_traitsIcESaIcEEESt10shared_ptrIN4mini10TypedValueEEEE7_M_addrEv = comdat any

$_ZNSt16allocator_traitsISaISt13_Rb_tree_nodeISt4pairIKNSt7__cxx1112basic_stringIcSt11char_traitsIcESaIcEEESt10shared_ptrIN4mini10TypedValueEEEEEE10deallocateERSF_PSE_m = comdat any

$_ZN9__gnu_cxx13new_allocatorISt13_Rb_tree_nodeISt4pairIKNSt7__cxx1112basic_stringIcSt11char_traitsIcESaIcEEESt10shared_ptrIN4mini10TypedValueEEEEE10deallocateEPSF_m = comdat any

$_ZN9__gnu_cxx13new_allocatorISt13_Rb_tree_nodeISt4pairIKNSt7__cxx1112basic_stringIcSt11char_traitsIcESaIcEEESt10shared_ptrIN4mini10TypedValueEEEEED2Ev = comdat any

$_ZNSt8_Rb_treeINSt7__cxx1112basic_stringIcSt11char_traitsIcESaIcEEESt4pairIKS5_St10shared_ptrIN3ast8FunctionEEESt10_Select1stISC_ESt4lessIS5_ESaISC_EEC2Ev = comdat any

$_ZNSt8_Rb_treeINSt7__cxx1112basic_stringIcSt11char_traitsIcESaIcEEESt4pairIKS5_St10shared_ptrIN3ast8FunctionEEESt10_Select1stISC_ESt4lessIS5_ESaISC_EE13_Rb_tree_implISG_Lb1EEC2Ev = comdat any

$_ZNSaISt13_Rb_tree_nodeISt4pairIKNSt7__cxx1112basic_stringIcSt11char_traitsIcESaIcEEESt10shared_ptrIN3ast8FunctionEEEEEC2Ev = comdat any

$_ZN9__gnu_cxx13new_allocatorISt13_Rb_tree_nodeISt4pairIKNSt7__cxx1112basic_stringIcSt11char_traitsIcESaIcEEESt10shared_ptrIN3ast8FunctionEEEEEC2Ev = comdat any

$_ZNSt8_Rb_treeINSt7__cxx1112basic_stringIcSt11char_traitsIcESaIcEEESt4pairIKS5_St3mapIS5_St10shared_ptrIN4mini10TypedValueEESt4lessIS5_ESaIS6_IS7_SC_EEEESt10_Select1stISI_ESE_SaISI_EEC2Ev = comdat any

$_ZNSt8_Rb_treeINSt7__cxx1112basic_stringIcSt11char_traitsIcESaIcEEESt4pairIKS5_St3mapIS5_St10shared_ptrIN4mini10TypedValueEESt4lessIS5_ESaIS6_IS7_SC_EEEESt10_Select1stISI_ESE_SaISI_EE13_Rb_tree_implISE_Lb1EEC2Ev = comdat any

$_ZNSaISt13_Rb_tree_nodeISt4pairIKNSt7__cxx1112basic_stringIcSt11char_traitsIcESaIcEEESt3mapIS6_St10shared_ptrIN4mini10TypedValueEESt4lessIS6_ESaIS0_IS7_SC_EEEEEEC2Ev = comdat any

$_ZN9__gnu_cxx13new_allocatorISt13_Rb_tree_nodeISt4pairIKNSt7__cxx1112basic_stringIcSt11char_traitsIcESaIcEEESt3mapIS8_St10shared_ptrIN4mini10TypedValueEESt4lessIS8_ESaIS2_IS9_SE_EEEEEEC2Ev = comdat any

$_ZNSt12__shared_ptrIN3ast7ProgramELN9__gnu_cxx12_Lock_policyE2EEC2ERKS4_ = comdat any

$_ZNSt12__shared_ptrIN3ast9StatementELN9__gnu_cxx12_Lock_policyE2EEC2ERKS4_ = comdat any

$_ZNSt12__shared_ptrIN3ast9StatementELN9__gnu_cxx12_Lock_policyE2EED2Ev = comdat any

$_ZNSt12__shared_ptrIN3ast11DeclarationELN9__gnu_cxx12_Lock_policyE2EEC2ERKS4_ = comdat any

$_ZNSt12__shared_ptrIN3ast11DeclarationELN9__gnu_cxx12_Lock_policyE2EED2Ev = comdat any

$_ZNSt12__shared_ptrIN3ast8FunctionELN9__gnu_cxx12_Lock_policyE2EEC2ERKS4_ = comdat any

$_ZNSt12__shared_ptrIN3ast8FunctionELN9__gnu_cxx12_Lock_policyE2EED2Ev = comdat any

$_ZNSt8_Rb_treeINSt7__cxx1112basic_stringIcSt11char_traitsIcESaIcEEESt4pairIKS5_St10shared_ptrIN4mini10TypedValueEEESt10_Select1stISC_ESt4lessIS5_ESaISC_EEC2ERKSI_ = comdat any

$_ZNSt8_Rb_treeINSt7__cxx1112basic_stringIcSt11char_traitsIcESaIcEEESt4pairIKS5_St10shared_ptrIN4mini10TypedValueEEESt10_Select1stISC_ESt4lessIS5_ESaISC_EE13_Rb_tree_implISG_Lb1EEC2ERKSK_ = comdat any

$_ZNKSt8_Rb_treeINSt7__cxx1112basic_stringIcSt11char_traitsIcESaIcEEESt4pairIKS5_St10shared_ptrIN4mini10TypedValueEEESt10_Select1stISC_ESt4lessIS5_ESaISC_EE7_M_rootEv = comdat any

$_ZNSt8_Rb_treeINSt7__cxx1112basic_stringIcSt11char_traitsIcESaIcEEESt4pairIKS5_St10shared_ptrIN4mini10TypedValueEEESt10_Select1stISC_ESt4lessIS5_ESaISC_EE7_M_copyERKSI_ = comdat any

$_ZNSt8_Rb_treeINSt7__cxx1112basic_stringIcSt11char_traitsIcESaIcEEESt4pairIKS5_St10shared_ptrIN4mini10TypedValueEEESt10_Select1stISC_ESt4lessIS5_ESaISC_EE7_M_rootEv = comdat any

$_ZN9__gnu_cxx14__alloc_traitsISaISt13_Rb_tree_nodeISt4pairIKNSt7__cxx1112basic_stringIcSt11char_traitsIcESaIcEEESt10shared_ptrIN4mini10TypedValueEEEEEE17_S_select_on_copyERKSG_ = comdat any

$_ZNSaISt13_Rb_tree_nodeISt4pairIKNSt7__cxx1112basic_stringIcSt11char_traitsIcESaIcEEESt10shared_ptrIN4mini10TypedValueEEEEED2Ev = comdat any

$_ZNSt20_Rb_tree_key_compareISt4lessINSt7__cxx1112basic_stringIcSt11char_traitsIcESaIcEEEEEC2ERKS7_ = comdat any

$_ZNSt16allocator_traitsISaISt13_Rb_tree_nodeISt4pairIKNSt7__cxx1112basic_stringIcSt11char_traitsIcESaIcEEESt10shared_ptrIN4mini10TypedValueEEEEEE37select_on_container_copy_constructionERKSF_ = comdat any

$_ZNSaISt13_Rb_tree_nodeISt4pairIKNSt7__cxx1112basic_stringIcSt11char_traitsIcESaIcEEESt10shared_ptrIN4mini10TypedValueEEEEEC2ERKSE_ = comdat any

$_ZN9__gnu_cxx13new_allocatorISt13_Rb_tree_nodeISt4pairIKNSt7__cxx1112basic_stringIcSt11char_traitsIcESaIcEEESt10shared_ptrIN4mini10TypedValueEEEEEC2ERKSG_ = comdat any

$_ZNSt8_Rb_treeINSt7__cxx1112basic_stringIcSt11char_traitsIcESaIcEEESt4pairIKS5_St10shared_ptrIN4mini10TypedValueEEESt10_Select1stISC_ESt4lessIS5_ESaISC_EE11_Alloc_nodeC2ERSI_ = comdat any

$_ZNSt8_Rb_treeINSt7__cxx1112basic_stringIcSt11char_traitsIcESaIcEEESt4pairIKS5_St10shared_ptrIN4mini10TypedValueEEESt10_Select1stISC_ESt4lessIS5_ESaISC_EE7_M_copyINSI_11_Alloc_nodeEEEPSt13_Rb_tree_nodeISC_ERKSI_RT_ = comdat any

$_ZNSt8_Rb_treeINSt7__cxx1112basic_stringIcSt11char_traitsIcESaIcEEESt4pairIKS5_St10shared_ptrIN4mini10TypedValueEEESt10_Select1stISC_ESt4lessIS5_ESaISC_EE7_M_copyINSI_11_Alloc_nodeEEEPSt13_Rb_tree_nodeISC_EPKSM_PSt18_Rb_tree_node_baseRT_ = comdat any

$_ZNKSt8_Rb_treeINSt7__cxx1112basic_stringIcSt11char_traitsIcESaIcEEESt4pairIKS5_St10shared_ptrIN4mini10TypedValueEEESt10_Select1stISC_ESt4lessIS5_ESaISC_EE8_M_beginEv = comdat any

$_ZNSt8_Rb_treeINSt7__cxx1112basic_stringIcSt11char_traitsIcESaIcEEESt4pairIKS5_St10shared_ptrIN4mini10TypedValueEEESt10_Select1stISC_ESt4lessIS5_ESaISC_EE6_M_endEv = comdat any

$_ZNSt8_Rb_treeINSt7__cxx1112basic_stringIcSt11char_traitsIcESaIcEEESt4pairIKS5_St10shared_ptrIN4mini10TypedValueEEESt10_Select1stISC_ESt4lessIS5_ESaISC_EE10_S_minimumEPSt18_Rb_tree_node_base = comdat any

$_ZNSt8_Rb_treeINSt7__cxx1112basic_stringIcSt11char_traitsIcESaIcEEESt4pairIKS5_St10shared_ptrIN4mini10TypedValueEEESt10_Select1stISC_ESt4lessIS5_ESaISC_EE11_M_leftmostEv = comdat any

$_ZNSt8_Rb_treeINSt7__cxx1112basic_stringIcSt11char_traitsIcESaIcEEESt4pairIKS5_St10shared_ptrIN4mini10TypedValueEEESt10_Select1stISC_ESt4lessIS5_ESaISC_EE10_S_maximumEPSt18_Rb_tree_node_base = comdat any

$_ZNSt8_Rb_treeINSt7__cxx1112basic_stringIcSt11char_traitsIcESaIcEEESt4pairIKS5_St10shared_ptrIN4mini10TypedValueEEESt10_Select1stISC_ESt4lessIS5_ESaISC_EE12_M_rightmostEv = comdat any

$_ZNSt8_Rb_treeINSt7__cxx1112basic_stringIcSt11char_traitsIcESaIcEEESt4pairIKS5_St10shared_ptrIN4mini10TypedValueEEESt10_Select1stISC_ESt4lessIS5_ESaISC_EE13_M_clone_nodeINSI_11_Alloc_nodeEEEPSt13_Rb_tree_nodeISC_EPKSM_RT_ = comdat any

$_ZNSt8_Rb_treeINSt7__cxx1112basic_stringIcSt11char_traitsIcESaIcEEESt4pairIKS5_St10shared_ptrIN4mini10TypedValueEEESt10_Select1stISC_ESt4lessIS5_ESaISC_EE8_S_rightEPKSt18_Rb_tree_node_base = comdat any

$_ZNSt8_Rb_treeINSt7__cxx1112basic_stringIcSt11char_traitsIcESaIcEEESt4pairIKS5_St10shared_ptrIN4mini10TypedValueEEESt10_Select1stISC_ESt4lessIS5_ESaISC_EE7_S_leftEPKSt18_Rb_tree_node_base = comdat any

$_ZNKSt8_Rb_treeINSt7__cxx1112basic_stringIcSt11char_traitsIcESaIcEEESt4pairIKS5_St10shared_ptrIN4mini10TypedValueEEESt10_Select1stISC_ESt4lessIS5_ESaISC_EE11_Alloc_nodeclIRKSC_EEPSt13_Rb_tree_nodeISC_EOT_ = comdat any

$_ZNKSt13_Rb_tree_nodeISt4pairIKNSt7__cxx1112basic_stringIcSt11char_traitsIcESaIcEEESt10shared_ptrIN4mini10TypedValueEEEE9_M_valptrEv = comdat any

$_ZNSt8_Rb_treeINSt7__cxx1112basic_stringIcSt11char_traitsIcESaIcEEESt4pairIKS5_St10shared_ptrIN4mini10TypedValueEEESt10_Select1stISC_ESt4lessIS5_ESaISC_EE14_M_create_nodeIJRKSC_EEEPSt13_Rb_tree_nodeISC_EDpOT_ = comdat any

$_ZSt7forwardIRKSt4pairIKNSt7__cxx1112basic_stringIcSt11char_traitsIcESaIcEEESt10shared_ptrIN4mini10TypedValueEEEEOT_RNSt16remove_referenceISF_E4typeE = comdat any

$_ZNSt8_Rb_treeINSt7__cxx1112basic_stringIcSt11char_traitsIcESaIcEEESt4pairIKS5_St10shared_ptrIN4mini10TypedValueEEESt10_Select1stISC_ESt4lessIS5_ESaISC_EE11_M_get_nodeEv = comdat any

$_ZNSt8_Rb_treeINSt7__cxx1112basic_stringIcSt11char_traitsIcESaIcEEESt4pairIKS5_St10shared_ptrIN4mini10TypedValueEEESt10_Select1stISC_ESt4lessIS5_ESaISC_EE17_M_construct_nodeIJRKSC_EEEvPSt13_Rb_tree_nodeISC_EDpOT_ = comdat any

$_ZNSt16allocator_traitsISaISt13_Rb_tree_nodeISt4pairIKNSt7__cxx1112basic_stringIcSt11char_traitsIcESaIcEEESt10shared_ptrIN4mini10TypedValueEEEEEE8allocateERSF_m = comdat any

$_ZN9__gnu_cxx13new_allocatorISt13_Rb_tree_nodeISt4pairIKNSt7__cxx1112basic_stringIcSt11char_traitsIcESaIcEEESt10shared_ptrIN4mini10TypedValueEEEEE8allocateEmPKv = comdat any

$_ZNK9__gnu_cxx13new_allocatorISt13_Rb_tree_nodeISt4pairIKNSt7__cxx1112basic_stringIcSt11char_traitsIcESaIcEEESt10shared_ptrIN4mini10TypedValueEEEEE8max_sizeEv = comdat any

$_ZNSt16allocator_traitsISaISt13_Rb_tree_nodeISt4pairIKNSt7__cxx1112basic_stringIcSt11char_traitsIcESaIcEEESt10shared_ptrIN4mini10TypedValueEEEEEE9constructISD_JRKSD_EEEvRSF_PT_DpOT0_ = comdat any

$_ZN9__gnu_cxx13new_allocatorISt13_Rb_tree_nodeISt4pairIKNSt7__cxx1112basic_stringIcSt11char_traitsIcESaIcEEESt10shared_ptrIN4mini10TypedValueEEEEE9constructISE_JRKSE_EEEvPT_DpOT0_ = comdat any

$_ZNSt4pairIKNSt7__cxx1112basic_stringIcSt11char_traitsIcESaIcEEESt10shared_ptrIN4mini10TypedValueEEEC2ERKSB_ = comdat any

$_ZNK9__gnu_cxx16__aligned_membufISt4pairIKNSt7__cxx1112basic_stringIcSt11char_traitsIcESaIcEEESt10shared_ptrIN4mini10TypedValueEEEE6_M_ptrEv = comdat any

$_ZNK9__gnu_cxx16__aligned_membufISt4pairIKNSt7__cxx1112basic_stringIcSt11char_traitsIcESaIcEEESt10shared_ptrIN4mini10TypedValueEEEE7_M_addrEv = comdat any

$_ZNSt18_Rb_tree_node_base10_S_minimumEPS_ = comdat any

$_ZNSt18_Rb_tree_node_base10_S_maximumEPS_ = comdat any

$_ZSt7forwardIRNSt7__cxx1112basic_stringIcSt11char_traitsIcESaIcEEEEOT_RNSt16remove_referenceIS7_E4typeE = comdat any

$_ZSt7forwardIRSt10shared_ptrIN4mini10TypedValueEEEOT_RNSt16remove_referenceIS5_E4typeE = comdat any

$_ZNSt12__shared_ptrIN3ast15TypeDeclarationELN9__gnu_cxx12_Lock_policyE2EEC2ERKS4_ = comdat any

$_ZNSt12__shared_ptrIN3ast15TypeDeclarationELN9__gnu_cxx12_Lock_policyE2EED2Ev = comdat any

$_ZNSt10shared_ptrIN3ast8FunctionEEC2Ev = comdat any

$_ZNSt12__shared_ptrIN3ast8FunctionELN9__gnu_cxx12_Lock_policyE2EEC2Ev = comdat any

$_ZNSt12__shared_ptrIN3ast8FunctionELN9__gnu_cxx12_Lock_policyE2EEaSERKS4_ = comdat any

$_ZSt7forwardIRSt10shared_ptrIN3ast8FunctionEEEOT_RNSt16remove_referenceIS5_E4typeE = comdat any

$_ZN8antlrcpp3AnyC2ERKS0_ = comdat any

$_ZN8antlrcpp3AnyaSEOS0_ = comdat any

$_ZSt4swapIPN8antlrcpp3Any4BaseEENSt9enable_ifIXsr6__and_ISt6__not_ISt15__is_tuple_likeIT_EESt21is_move_constructibleIS7_ESt18is_move_assignableIS7_EEE5valueEvE4typeERS7_SG_ = comdat any

$_ZSt4moveIRPN8antlrcpp3Any4BaseEEONSt16remove_referenceIT_E4typeEOS6_ = comdat any

$_ZNK8antlrcpp3Any10getDerivedIPSt3mapINSt7__cxx1112basic_stringIcSt11char_traitsIcESaIcEEESt10shared_ptrIN4mini10TypedValueEESt4lessIS8_ESaISt4pairIKS8_SC_EEEEEPNS0_7DerivedINSt5decayIT_E4typeEEEb = comdat any

$_ZNSt8bad_castC2Ev = comdat any

$_ZNSt9exceptionC2Ev = comdat any

$_ZNSt11char_traitsIcE7compareEPKcS2_m = comdat any

$_ZNK8antlrcpp3Any10getDerivedIiEEPNS0_7DerivedINSt5decayIT_E4typeEEEb = comdat any

$_ZNK8antlrcpp3Any10getDerivedIbEEPNS0_7DerivedINSt5decayIT_E4typeEEEb = comdat any

$_ZNSt6vectorISt3mapINSt7__cxx1112basic_stringIcSt11char_traitsIcESaIcEEESt10shared_ptrIN4mini10TypedValueEESt4lessIS6_ESaISt4pairIKS6_SA_EEESaISH_EE3endEv = comdat any

$_ZNSt16reverse_iteratorIN9__gnu_cxx17__normal_iteratorIPSt3mapINSt7__cxx1112basic_stringIcSt11char_traitsIcESaIcEEESt10shared_ptrIN4mini10TypedValueEESt4lessIS8_ESaISt4pairIKS8_SC_EEESt6vectorISJ_SaISJ_EEEEEC2ESO_ = comdat any

$_ZN9__gnu_cxx17__normal_iteratorIPSt3mapINSt7__cxx1112basic_stringIcSt11char_traitsIcESaIcEEESt10shared_ptrIN4mini10TypedValueEESt4lessIS7_ESaISt4pairIKS7_SB_EEESt6vectorISI_SaISI_EEEC2ERKSJ_ = comdat any

$_ZNSt6vectorISt3mapINSt7__cxx1112basic_stringIcSt11char_traitsIcESaIcEEESt10shared_ptrIN4mini10TypedValueEESt4lessIS6_ESaISt4pairIKS6_SA_EEESaISH_EE5beginEv = comdat any

$_ZSteqIN9__gnu_cxx17__normal_iteratorIPSt3mapINSt7__cxx1112basic_stringIcSt11char_traitsIcESaIcEEESt10shared_ptrIN4mini10TypedValueEESt4lessIS8_ESaISt4pairIKS8_SC_EEESt6vectorISJ_SaISJ_EEEEEbRKSt16reverse_iteratorIT_EST_ = comdat any

$_ZN9__gnu_cxxeqIPSt3mapINSt7__cxx1112basic_stringIcSt11char_traitsIcESaIcEEESt10shared_ptrIN4mini10TypedValueEESt4lessIS7_ESaISt4pairIKS7_SB_EEESt6vectorISI_SaISI_EEEEbRKNS_17__normal_iteratorIT_T0_EESS_ = comdat any

$_ZNKSt16reverse_iteratorIN9__gnu_cxx17__normal_iteratorIPSt3mapINSt7__cxx1112basic_stringIcSt11char_traitsIcESaIcEEESt10shared_ptrIN4mini10TypedValueEESt4lessIS8_ESaISt4pairIKS8_SC_EEESt6vectorISJ_SaISJ_EEEEE4baseEv = comdat any

$_ZNK9__gnu_cxx17__normal_iteratorIPSt3mapINSt7__cxx1112basic_stringIcSt11char_traitsIcESaIcEEESt10shared_ptrIN4mini10TypedValueEESt4lessIS7_ESaISt4pairIKS7_SB_EEESt6vectorISI_SaISI_EEE4baseEv = comdat any

$_ZN9__gnu_cxx17__normal_iteratorIPSt3mapINSt7__cxx1112basic_stringIcSt11char_traitsIcESaIcEEESt10shared_ptrIN4mini10TypedValueEESt4lessIS7_ESaISt4pairIKS7_SB_EEESt6vectorISI_SaISI_EEEmmEv = comdat any

$_ZSt11__addressofISt3mapINSt7__cxx1112basic_stringIcSt11char_traitsIcESaIcEEESt10shared_ptrIN4mini10TypedValueEESt4lessIS6_ESaISt4pairIKS6_SA_EEEEPT_RSI_ = comdat any

$_ZNKSt16reverse_iteratorIN9__gnu_cxx17__normal_iteratorIPSt3mapINSt7__cxx1112basic_stringIcSt11char_traitsIcESaIcEEESt10shared_ptrIN4mini10TypedValueEESt4lessIS8_ESaISt4pairIKS8_SC_EEESt6vectorISJ_SaISJ_EEEEEdeEv = comdat any

$_ZNK9__gnu_cxx17__normal_iteratorIPSt3mapINSt7__cxx1112basic_stringIcSt11char_traitsIcESaIcEEESt10shared_ptrIN4mini10TypedValueEESt4lessIS7_ESaISt4pairIKS7_SB_EEESt6vectorISI_SaISI_EEEdeEv = comdat any

$_ZNKSt8_Rb_treeINSt7__cxx1112basic_stringIcSt11char_traitsIcESaIcEEESt4pairIKS5_St10shared_ptrIN4mini10TypedValueEEESt10_Select1stISC_ESt4lessIS5_ESaISC_EE4findERS7_ = comdat any

$_ZNKSt23_Rb_tree_const_iteratorISt4pairIKNSt7__cxx1112basic_stringIcSt11char_traitsIcESaIcEEESt10shared_ptrIN4mini10TypedValueEEEEeqERKSD_ = comdat any

$_ZNKSt8_Rb_treeINSt7__cxx1112basic_stringIcSt11char_traitsIcESaIcEEESt4pairIKS5_St10shared_ptrIN4mini10TypedValueEEESt10_Select1stISC_ESt4lessIS5_ESaISC_EE3endEv = comdat any

$_ZNKSt8_Rb_treeINSt7__cxx1112basic_stringIcSt11char_traitsIcESaIcEEESt4pairIKS5_St10shared_ptrIN4mini10TypedValueEEESt10_Select1stISC_ESt4lessIS5_ESaISC_EE14_M_lower_boundEPKSt13_Rb_tree_nodeISC_EPKSt18_Rb_tree_node_baseRS7_ = comdat any

$_ZNKSt8_Rb_treeINSt7__cxx1112basic_stringIcSt11char_traitsIcESaIcEEESt4pairIKS5_St10shared_ptrIN4mini10TypedValueEEESt10_Select1stISC_ESt4lessIS5_ESaISC_EE6_M_endEv = comdat any

$_ZNKSt4lessINSt7__cxx1112basic_stringIcSt11char_traitsIcESaIcEEEEclERKS5_S8_ = comdat any

$_ZNSt8_Rb_treeINSt7__cxx1112basic_stringIcSt11char_traitsIcESaIcEEESt4pairIKS5_St10shared_ptrIN4mini10TypedValueEEESt10_Select1stISC_ESt4lessIS5_ESaISC_EE6_S_keyEPKSt18_Rb_tree_node_base = comdat any

$_ZNSt8_Rb_treeINSt7__cxx1112basic_stringIcSt11char_traitsIcESaIcEEESt4pairIKS5_St10shared_ptrIN4mini10TypedValueEEESt10_Select1stISC_ESt4lessIS5_ESaISC_EE6_S_keyEPKSt13_Rb_tree_nodeISC_E = comdat any

$_ZNSt23_Rb_tree_const_iteratorISt4pairIKNSt7__cxx1112basic_stringIcSt11char_traitsIcESaIcEEESt10shared_ptrIN4mini10TypedValueEEEEC2EPKSt18_Rb_tree_node_base = comdat any

$_ZNKSt10_Select1stISt4pairIKNSt7__cxx1112basic_stringIcSt11char_traitsIcESaIcEEESt10shared_ptrIN4mini10TypedValueEEEEclERKSC_ = comdat any

$_ZNSt8_Rb_treeINSt7__cxx1112basic_stringIcSt11char_traitsIcESaIcEEESt4pairIKS5_St10shared_ptrIN4mini10TypedValueEEESt10_Select1stISC_ESt4lessIS5_ESaISC_EE8_S_valueEPKSt13_Rb_tree_nodeISC_E = comdat any

$_ZStltIcSt11char_traitsIcESaIcEEbRKNSt7__cxx1112basic_stringIT_T0_T1_EESA_ = comdat any

$_ZNSt8_Rb_treeINSt7__cxx1112basic_stringIcSt11char_traitsIcESaIcEEESt4pairIKS5_St10shared_ptrIN4mini10TypedValueEEESt10_Select1stISC_ESt4lessIS5_ESaISC_EE8_S_valueEPKSt18_Rb_tree_node_base = comdat any

$_ZNSt3mapINSt7__cxx1112basic_stringIcSt11char_traitsIcESaIcEEESt10shared_ptrIN4mini10TypedValueEESt4lessIS5_ESaISt4pairIKS5_S9_EEE11lower_boundERSD_ = comdat any

$_ZNKSt17_Rb_tree_iteratorISt4pairIKNSt7__cxx1112basic_stringIcSt11char_traitsIcESaIcEEESt10shared_ptrIN4mini10TypedValueEEEEeqERKSD_ = comdat any

$_ZNSt3mapINSt7__cxx1112basic_stringIcSt11char_traitsIcESaIcEEESt10shared_ptrIN4mini10TypedValueEESt4lessIS5_ESaISt4pairIKS5_S9_EEE3endEv = comdat any

$_ZNKSt3mapINSt7__cxx1112basic_stringIcSt11char_traitsIcESaIcEEESt10shared_ptrIN4mini10TypedValueEESt4lessIS5_ESaISt4pairIKS5_S9_EEE8key_compEv = comdat any

$_ZNKSt17_Rb_tree_iteratorISt4pairIKNSt7__cxx1112basic_stringIcSt11char_traitsIcESaIcEEESt10shared_ptrIN4mini10TypedValueEEEEdeEv = comdat any

$_ZNSt8_Rb_treeINSt7__cxx1112basic_stringIcSt11char_traitsIcESaIcEEESt4pairIKS5_St10shared_ptrIN4mini10TypedValueEEESt10_Select1stISC_ESt4lessIS5_ESaISC_EE11lower_boundERS7_ = comdat any

$_ZNSt8_Rb_treeINSt7__cxx1112basic_stringIcSt11char_traitsIcESaIcEEESt4pairIKS5_St10shared_ptrIN4mini10TypedValueEEESt10_Select1stISC_ESt4lessIS5_ESaISC_EE14_M_lower_boundEPSt13_Rb_tree_nodeISC_EPSt18_Rb_tree_node_baseRS7_ = comdat any

$_ZNSt17_Rb_tree_iteratorISt4pairIKNSt7__cxx1112basic_stringIcSt11char_traitsIcESaIcEEESt10shared_ptrIN4mini10TypedValueEEEEC2EPSt18_Rb_tree_node_base = comdat any

$_ZNSt8_Rb_treeINSt7__cxx1112basic_stringIcSt11char_traitsIcESaIcEEESt4pairIKS5_St10shared_ptrIN4mini10TypedValueEEESt10_Select1stISC_ESt4lessIS5_ESaISC_EE3endEv = comdat any

$_ZNKSt8_Rb_treeINSt7__cxx1112basic_stringIcSt11char_traitsIcESaIcEEESt4pairIKS5_St10shared_ptrIN4mini10TypedValueEEESt10_Select1stISC_ESt4lessIS5_ESaISC_EE8key_compEv = comdat any

$_ZNKSt6vectorISt10shared_ptrIN3ast10ExpressionEESaIS3_EE14_M_range_checkEm = comdat any

$_ZNSt6vectorISt10shared_ptrIN3ast10ExpressionEESaIS3_EEixEm = comdat any

$_ZNKSt19__shared_ptr_accessIN3ast10ExpressionELN9__gnu_cxx12_Lock_policyE2ELb0ELb0EE6_M_getEv = comdat any

$_ZNKSt12__shared_ptrIN3ast10ExpressionELN9__gnu_cxx12_Lock_policyE2EE3getEv = comdat any

$_ZNKSt6vectorISt10shared_ptrIN3ast11DeclarationEESaIS3_EE14_M_range_checkEm = comdat any

$_ZNSt6vectorISt10shared_ptrIN3ast11DeclarationEESaIS3_EEixEm = comdat any

$_ZNKSt19__shared_ptr_accessIN3ast11DeclarationELN9__gnu_cxx12_Lock_policyE2ELb0ELb0EE6_M_getEv = comdat any

$_ZNKSt12__shared_ptrIN3ast11DeclarationELN9__gnu_cxx12_Lock_policyE2EE3getEv = comdat any

$_ZN8antlrcpp3Any2asISt10shared_ptrIN4mini10TypedValueEEEERNSt5decayIT_E4typeEv = comdat any

$_ZNK8antlrcpp3Any10getDerivedISt10shared_ptrIN4mini10TypedValueEEEEPNS0_7DerivedINSt5decayIT_E4typeEEEb = comdat any

$_ZNKSt19__shared_ptr_accessIN4mini10TypedValueELN9__gnu_cxx12_Lock_policyE2ELb0ELb0EE6_M_getEv = comdat any

$_ZNKSt12__shared_ptrIN4mini10TypedValueELN9__gnu_cxx12_Lock_policyE2EE3getEv = comdat any

$_ZNSt8_Rb_treeINSt7__cxx1112basic_stringIcSt11char_traitsIcESaIcEEESt4pairIKS5_St10shared_ptrIN4mini10TypedValueEEESt10_Select1stISC_ESt4lessIS5_ESaISC_EE22_M_emplace_hint_uniqueIJRKSt21piecewise_construct_tSt5tupleIJRS7_EESN_IJEEEEESt17_Rb_tree_iteratorISC_ESt23_Rb_tree_const_iteratorISC_EDpOT_ = comdat any

$_ZNSt23_Rb_tree_const_iteratorISt4pairIKNSt7__cxx1112basic_stringIcSt11char_traitsIcESaIcEEESt10shared_ptrIN4mini10TypedValueEEEEC2ERKSt17_Rb_tree_iteratorISC_E = comdat any

$_ZNSt5tupleIJRKNSt7__cxx1112basic_stringIcSt11char_traitsIcESaIcEEEEEC2IvLb1EEES7_ = comdat any

$_ZNSt8_Rb_treeINSt7__cxx1112basic_stringIcSt11char_traitsIcESaIcEEESt4pairIKS5_St10shared_ptrIN4mini10TypedValueEEESt10_Select1stISC_ESt4lessIS5_ESaISC_EE14_M_create_nodeIJRKSt21piecewise_construct_tSt5tupleIJRS7_EESN_IJEEEEEPSt13_Rb_tree_nodeISC_EDpOT_ = comdat any

$_ZSt7forwardIRKSt21piecewise_construct_tEOT_RNSt16remove_referenceIS3_E4typeE = comdat any

$_ZSt7forwardISt5tupleIJRKNSt7__cxx1112basic_stringIcSt11char_traitsIcESaIcEEEEEEOT_RNSt16remove_referenceISA_E4typeE = comdat any

$_ZSt7forwardISt5tupleIJEEEOT_RNSt16remove_referenceIS2_E4typeE = comdat any

$_ZNSt8_Rb_treeINSt7__cxx1112basic_stringIcSt11char_traitsIcESaIcEEESt4pairIKS5_St10shared_ptrIN4mini10TypedValueEEESt10_Select1stISC_ESt4lessIS5_ESaISC_EE29_M_get_insert_hint_unique_posESt23_Rb_tree_const_iteratorISC_ERS7_ = comdat any

$_ZNSt8_Rb_treeINSt7__cxx1112basic_stringIcSt11char_traitsIcESaIcEEESt4pairIKS5_St10shared_ptrIN4mini10TypedValueEEESt10_Select1stISC_ESt4lessIS5_ESaISC_EE14_M_insert_nodeEPSt18_Rb_tree_node_baseSK_PSt13_Rb_tree_nodeISC_E = comdat any

$_ZNSt8_Rb_treeINSt7__cxx1112basic_stringIcSt11char_traitsIcESaIcEEESt4pairIKS5_St10shared_ptrIN4mini10TypedValueEEESt10_Select1stISC_ESt4lessIS5_ESaISC_EE17_M_construct_nodeIJRKSt21piecewise_construct_tSt5tupleIJRS7_EESN_IJEEEEEvPSt13_Rb_tree_nodeISC_EDpOT_ = comdat any

$_ZNSt16allocator_traitsISaISt13_Rb_tree_nodeISt4pairIKNSt7__cxx1112basic_stringIcSt11char_traitsIcESaIcEEESt10shared_ptrIN4mini10TypedValueEEEEEE9constructISD_JRKSt21piecewise_construct_tSt5tupleIJRS8_EESL_IJEEEEEvRSF_PT_DpOT0_ = comdat any

$_ZN9__gnu_cxx13new_allocatorISt13_Rb_tree_nodeISt4pairIKNSt7__cxx1112basic_stringIcSt11char_traitsIcESaIcEEESt10shared_ptrIN4mini10TypedValueEEEEE9constructISE_JRKSt21piecewise_construct_tSt5tupleIJRS9_EESL_IJEEEEEvPT_DpOT0_ = comdat any

$_ZNSt5tupleIJRKNSt7__cxx1112basic_stringIcSt11char_traitsIcESaIcEEEEEC2EOS8_ = comdat any

$_ZNSt4pairIKNSt7__cxx1112basic_stringIcSt11char_traitsIcESaIcEEESt10shared_ptrIN4mini10TypedValueEEEC2IJRS6_EJEEESt21piecewise_construct_tSt5tupleIJDpT_EESF_IJDpT0_EE = comdat any

$_ZNSt11_Tuple_implILm0EJRKNSt7__cxx1112basic_stringIcSt11char_traitsIcESaIcEEEEEC2EOS8_ = comdat any

$_ZSt7forwardIRKNSt7__cxx1112basic_stringIcSt11char_traitsIcESaIcEEEEOT_RNSt16remove_referenceIS8_E4typeE = comdat any

$_ZNSt11_Tuple_implILm0EJRKNSt7__cxx1112basic_stringIcSt11char_traitsIcESaIcEEEEE7_M_headERS8_ = comdat any

$_ZNSt10_Head_baseILm0ERKNSt7__cxx1112basic_stringIcSt11char_traitsIcESaIcEEELb0EEC2ES7_ = comdat any

$_ZNSt10_Head_baseILm0ERKNSt7__cxx1112basic_stringIcSt11char_traitsIcESaIcEEELb0EE7_M_headERS8_ = comdat any

$_ZNSt4pairIKNSt7__cxx1112basic_stringIcSt11char_traitsIcESaIcEEESt10shared_ptrIN4mini10TypedValueEEEC2IJRS6_EJLm0EEJEJEEERSt5tupleIJDpT_EERSE_IJDpT1_EESt12_Index_tupleIJXspT0_EEESN_IJXspT2_EEE = comdat any

$_ZSt3getILm0EJRKNSt7__cxx1112basic_stringIcSt11char_traitsIcESaIcEEEEERNSt13tuple_elementIXT_ESt5tupleIJDpT0_EEE4typeERSC_ = comdat any

$_ZNSt10shared_ptrIN4mini10TypedValueEEC2Ev = comdat any

$_ZSt12__get_helperILm0ERKNSt7__cxx1112basic_stringIcSt11char_traitsIcESaIcEEEJEERT0_RSt11_Tuple_implIXT_EJS8_DpT1_EE = comdat any

$_ZNKSt23_Rb_tree_const_iteratorISt4pairIKNSt7__cxx1112basic_stringIcSt11char_traitsIcESaIcEEESt10shared_ptrIN4mini10TypedValueEEEE13_M_const_castEv = comdat any

$_ZNKSt8_Rb_treeINSt7__cxx1112basic_stringIcSt11char_traitsIcESaIcEEESt4pairIKS5_St10shared_ptrIN4mini10TypedValueEEESt10_Select1stISC_ESt4lessIS5_ESaISC_EE4sizeEv = comdat any

$_ZNSt4pairIPSt18_Rb_tree_node_baseS1_EC2IRS1_Lb1EEERKS1_OT_ = comdat any

$_ZNSt8_Rb_treeINSt7__cxx1112basic_stringIcSt11char_traitsIcESaIcEEESt4pairIKS5_St10shared_ptrIN4mini10TypedValueEEESt10_Select1stISC_ESt4lessIS5_ESaISC_EE24_M_get_insert_unique_posERS7_ = comdat any

$_ZNSt4pairIPSt18_Rb_tree_node_baseS1_EC2IRS1_S4_Lb1EEEOT_OT0_ = comdat any

$_ZNSt17_Rb_tree_iteratorISt4pairIKNSt7__cxx1112basic_stringIcSt11char_traitsIcESaIcEEESt10shared_ptrIN4mini10TypedValueEEEEmmEv = comdat any

$_ZNSt17_Rb_tree_iteratorISt4pairIKNSt7__cxx1112basic_stringIcSt11char_traitsIcESaIcEEESt10shared_ptrIN4mini10TypedValueEEEEppEv = comdat any

$_ZNSt4pairIPSt18_Rb_tree_node_baseS1_EC2IRS1_Lb1EEEOT_RKS1_ = comdat any

$_ZSt7forwardIRPSt18_Rb_tree_node_baseEOT_RNSt16remove_referenceIS3_E4typeE = comdat any

$_ZNSt8_Rb_treeINSt7__cxx1112basic_stringIcSt11char_traitsIcESaIcEEESt4pairIKS5_St10shared_ptrIN4mini10TypedValueEEESt10_Select1stISC_ESt4lessIS5_ESaISC_EE5beginEv = comdat any

$_ZNSt4pairIPSt18_Rb_tree_node_baseS1_EC2IRPSt13_Rb_tree_nodeIS_IKNSt7__cxx1112basic_stringIcSt11char_traitsIcESaIcEEESt10shared_ptrIN4mini10TypedValueEEEERS1_Lb1EEEOT_OT0_ = comdat any

$_ZSt7forwardIRPSt13_Rb_tree_nodeISt4pairIKNSt7__cxx1112basic_stringIcSt11char_traitsIcESaIcEEESt10shared_ptrIN4mini10TypedValueEEEEEOT_RNSt16remove_referenceISH_E4typeE = comdat any

$_ZNSt11_Tuple_implILm0EJRKNSt7__cxx1112basic_stringIcSt11char_traitsIcESaIcEEEEEC2ES7_ = comdat any

$_ZNSt12_Vector_baseISt3mapINSt7__cxx1112basic_stringIcSt11char_traitsIcESaIcEEESt10shared_ptrIN4mini10TypedValueEESt4lessIS6_ESaISt4pairIKS6_SA_EEESaISH_EEC2Ev = comdat any

$_ZNSt12_Vector_baseISt3mapINSt7__cxx1112basic_stringIcSt11char_traitsIcESaIcEEESt10shared_ptrIN4mini10TypedValueEESt4lessIS6_ESaISt4pairIKS6_SA_EEESaISH_EE12_Vector_implC2Ev = comdat any

$_ZNSaISt3mapINSt7__cxx1112basic_stringIcSt11char_traitsIcESaIcEEESt10shared_ptrIN4mini10TypedValueEESt4lessIS5_ESaISt4pairIKS5_S9_EEEEC2Ev = comdat any

$_ZN9__gnu_cxx13new_allocatorISt3mapINSt7__cxx1112basic_stringIcSt11char_traitsIcESaIcEEESt10shared_ptrIN4mini10TypedValueEESt4lessIS7_ESaISt4pairIKS7_SB_EEEEC2Ev = comdat any

$_ZNKSt19__shared_ptr_accessIN3ast6LvalueELN9__gnu_cxx12_Lock_policyE2ELb0ELb0EE6_M_getEv = comdat any

$_ZNKSt12__shared_ptrIN3ast6LvalueELN9__gnu_cxx12_Lock_policyE2EE3getEv = comdat any

$_ZSt7forwardIbEOT_RNSt16remove_referenceIS0_E4typeE = comdat any

$_ZN8antlrcpp3Any7DerivedIbEC2IbEEOT_ = comdat any

$_ZN8antlrcpp3Any4BaseC2Ev = comdat any

$_ZN8antlrcpp3Any7DerivedIbED2Ev = comdat any

$_ZN8antlrcpp3Any7DerivedIbED0Ev = comdat any

$_ZNK8antlrcpp3Any7DerivedIbE5cloneEv = comdat any

$_ZN8antlrcpp3Any4BaseD2Ev = comdat any

$_ZN8antlrcpp3Any4BaseD0Ev = comdat any

$_ZNK8antlrcpp3Any7DerivedIbE5cloneILi0ELi0EEEPNS0_4BaseEv = comdat any

$_ZN8antlrcpp3Any7DerivedIbEC2IRKbEEOT_ = comdat any

$_ZSt7forwardIRKbEOT_RNSt16remove_referenceIS2_E4typeE = comdat any

$_ZSt7forwardIN4mini10TypedValueEEOT_RNSt16remove_referenceIS2_E4typeE = comdat any

$_ZN8antlrcpp3Any7DerivedIN4mini10TypedValueEEC2IS3_EEOT_ = comdat any

$_ZN4mini10TypedValueC2EOS0_ = comdat any

$_ZN8antlrcpp3Any7DerivedIN4mini10TypedValueEED2Ev = comdat any

$_ZN8antlrcpp3Any7DerivedIN4mini10TypedValueEED0Ev = comdat any

$_ZNK8antlrcpp3Any7DerivedIN4mini10TypedValueEE5cloneEv = comdat any

$_ZN8antlrcpp3AnyC2EOS0_ = comdat any

$_ZNK8antlrcpp3Any7DerivedIN4mini10TypedValueEE5cloneILi0ELi0EEEPNS0_4BaseEv = comdat any

$_ZSt7forwardIiEOT_RNSt16remove_referenceIS0_E4typeE = comdat any

$_ZN8antlrcpp3Any7DerivedIiEC2IiEEOT_ = comdat any

$_ZN8antlrcpp3Any7DerivedIiED2Ev = comdat any

$_ZN8antlrcpp3Any7DerivedIiED0Ev = comdat any

$_ZNK8antlrcpp3Any7DerivedIiE5cloneEv = comdat any

$_ZNK8antlrcpp3Any7DerivedIiE5cloneILi0ELi0EEEPNS0_4BaseEv = comdat any

$_ZN8antlrcpp3Any7DerivedIiEC2IRKiEEOT_ = comdat any

$_ZSt7forwardIRKiEOT_RNSt16remove_referenceIS2_E4typeE = comdat any

$_ZN9__gnu_cxx17__normal_iteratorIPSt10shared_ptrIN3ast9StatementEESt6vectorIS4_SaIS4_EEEC2ERKS5_ = comdat any

$_ZNK9__gnu_cxx17__normal_iteratorIPSt10shared_ptrIN3ast9StatementEESt6vectorIS4_SaIS4_EEE4baseEv = comdat any

$_ZNKSt19__shared_ptr_accessIN3ast9StatementELN9__gnu_cxx12_Lock_policyE2ELb0ELb0EE6_M_getEv = comdat any

$_ZNKSt12__shared_ptrIN3ast9StatementELN9__gnu_cxx12_Lock_policyE2EE3getEv = comdat any

$_ZNK8antlrcpp3Any10getDerivedIN4mini10TypedValueEEEPNS0_7DerivedINSt5decayIT_E4typeEEEb = comdat any

$_ZSt7forwardINSt7__cxx1112basic_stringIcSt11char_traitsIcESaIcEEEEOT_RNSt16remove_referenceIS6_E4typeE = comdat any

$_ZN8antlrcpp3Any7DerivedINSt7__cxx1112basic_stringIcSt11char_traitsIcESaIcEEEEC2IS7_EEOT_ = comdat any

$_ZN8antlrcpp3Any7DerivedINSt7__cxx1112basic_stringIcSt11char_traitsIcESaIcEEEED2Ev = comdat any

$_ZN8antlrcpp3Any7DerivedINSt7__cxx1112basic_stringIcSt11char_traitsIcESaIcEEEED0Ev = comdat any

$_ZNK8antlrcpp3Any7DerivedINSt7__cxx1112basic_stringIcSt11char_traitsIcESaIcEEEE5cloneEv = comdat any

$_ZNK8antlrcpp3Any7DerivedINSt7__cxx1112basic_stringIcSt11char_traitsIcESaIcEEEE5cloneILi0ELi0EEEPNS0_4BaseEv = comdat any

$_ZNKSt19__shared_ptr_accessIN3ast4TypeELN9__gnu_cxx12_Lock_policyE2ELb0ELb0EE6_M_getEv = comdat any

$_ZNKSt12__shared_ptrIN3ast4TypeELN9__gnu_cxx12_Lock_policyE2EE3getEv = comdat any

$_ZN8antlrcpp3Any2asINSt7__cxx1112basic_stringIcSt11char_traitsIcESaIcEEEEERNSt5decayIT_E4typeEv = comdat any

$_ZNK8antlrcpp3Any10getDerivedINSt7__cxx1112basic_stringIcSt11char_traitsIcESaIcEEEEEPNS0_7DerivedINSt5decayIT_E4typeEEEb = comdat any

$_ZSt15allocate_sharedIN4mini10TypedValueESaIS1_EJRNSt7__cxx1112basic_stringIcSt11char_traitsIcESaIcEEEiEESt10shared_ptrIT_ERKT0_DpOT1_ = comdat any

$_ZNSaIN4mini10TypedValueEEC2Ev = comdat any

$_ZNSaIN4mini10TypedValueEED2Ev = comdat any

$_ZNSt10shared_ptrIN4mini10TypedValueEEC2ISaIS1_EJRNSt7__cxx1112basic_stringIcSt11char_traitsIcESaIcEEEiEEESt19_Sp_make_shared_tagRKT_DpOT0_ = comdat any

$_ZNSt12__shared_ptrIN4mini10TypedValueELN9__gnu_cxx12_Lock_policyE2EEC2ISaIS1_EJRNSt7__cxx1112basic_stringIcSt11char_traitsIcESaIcEEEiEEESt19_Sp_make_shared_tagRKT_DpOT0_ = comdat any

$_ZNSt14__shared_countILN9__gnu_cxx12_Lock_policyE2EEC2IN4mini10TypedValueESaIS5_EJRNSt7__cxx1112basic_stringIcSt11char_traitsIcESaIcEEEiEEESt19_Sp_make_shared_tagPT_RKT0_DpOT1_ = comdat any

$_ZNKSt14__shared_countILN9__gnu_cxx12_Lock_policyE2EE14_M_get_deleterERKSt9type_info = comdat any

$_ZNSt12__shared_ptrIN4mini10TypedValueELN9__gnu_cxx12_Lock_policyE2EE31_M_enable_shared_from_this_withIS1_S1_EENSt9enable_ifIXntsr15__has_esft_baseIT0_EE5valueEvE4typeEPT_ = comdat any

$_ZNSaISt23_Sp_counted_ptr_inplaceIN4mini10TypedValueESaIS1_ELN9__gnu_cxx12_Lock_policyE2EEEC2IS1_EERKSaIT_E = comdat any

$_ZSt18__allocate_guardedISaISt23_Sp_counted_ptr_inplaceIN4mini10TypedValueESaIS2_ELN9__gnu_cxx12_Lock_policyE2EEEESt15__allocated_ptrIT_ERS9_ = comdat any

$_ZNSt15__allocated_ptrISaISt23_Sp_counted_ptr_inplaceIN4mini10TypedValueESaIS2_ELN9__gnu_cxx12_Lock_policyE2EEEE3getEv = comdat any

$_ZSt4moveIRKSaIN4mini10TypedValueEEEONSt16remove_referenceIT_E4typeEOS6_ = comdat any

$_ZNSaIN4mini10TypedValueEEC2ERKS1_ = comdat any

$_ZNSt23_Sp_counted_ptr_inplaceIN4mini10TypedValueESaIS1_ELN9__gnu_cxx12_Lock_policyE2EEC2IJRNSt7__cxx1112basic_stringIcSt11char_traitsIcESaIcEEEiEEES2_DpOT_ = comdat any

$_ZNSt15__allocated_ptrISaISt23_Sp_counted_ptr_inplaceIN4mini10TypedValueESaIS2_ELN9__gnu_cxx12_Lock_policyE2EEEEaSEDn = comdat any

$_ZNSt15__allocated_ptrISaISt23_Sp_counted_ptr_inplaceIN4mini10TypedValueESaIS2_ELN9__gnu_cxx12_Lock_policyE2EEEED2Ev = comdat any

$_ZNSaISt23_Sp_counted_ptr_inplaceIN4mini10TypedValueESaIS1_ELN9__gnu_cxx12_Lock_policyE2EEED2Ev = comdat any

$_ZN9__gnu_cxx13new_allocatorISt23_Sp_counted_ptr_inplaceIN4mini10TypedValueESaIS3_ELNS_12_Lock_policyE2EEEC2Ev = comdat any

$_ZNSt16allocator_traitsISaISt23_Sp_counted_ptr_inplaceIN4mini10TypedValueESaIS2_ELN9__gnu_cxx12_Lock_policyE2EEEE8allocateERS7_m = comdat any

$_ZNSt15__allocated_ptrISaISt23_Sp_counted_ptr_inplaceIN4mini10TypedValueESaIS2_ELN9__gnu_cxx12_Lock_policyE2EEEEC2ERS7_PS6_ = comdat any

$_ZN9__gnu_cxx13new_allocatorISt23_Sp_counted_ptr_inplaceIN4mini10TypedValueESaIS3_ELNS_12_Lock_policyE2EEE8allocateEmPKv = comdat any

$_ZNK9__gnu_cxx13new_allocatorISt23_Sp_counted_ptr_inplaceIN4mini10TypedValueESaIS3_ELNS_12_Lock_policyE2EEE8max_sizeEv = comdat any

$_ZSt11__addressofISaISt23_Sp_counted_ptr_inplaceIN4mini10TypedValueESaIS2_ELN9__gnu_cxx12_Lock_policyE2EEEEPT_RS8_ = comdat any

$_ZNSt15__allocated_ptrISaISt23_Sp_counted_ptr_inplaceIN4mini10TypedValueESaIS2_ELN9__gnu_cxx12_Lock_policyE2EEEE10_S_raw_ptrEPS6_ = comdat any

$_ZN9__gnu_cxx13new_allocatorIN4mini10TypedValueEEC2ERKS3_ = comdat any

$_ZNSt16_Sp_counted_baseILN9__gnu_cxx12_Lock_policyE2EEC2Ev = comdat any

$_ZNSt23_Sp_counted_ptr_inplaceIN4mini10TypedValueESaIS1_ELN9__gnu_cxx12_Lock_policyE2EE5_ImplC2ES2_ = comdat any

$_ZNSt16allocator_traitsISaIN4mini10TypedValueEEE9constructIS1_JRNSt7__cxx1112basic_stringIcSt11char_traitsIcESaIcEEEiEEEvRS2_PT_DpOT0_ = comdat any

$_ZNSt23_Sp_counted_ptr_inplaceIN4mini10TypedValueESaIS1_ELN9__gnu_cxx12_Lock_policyE2EE6_M_ptrEv = comdat any

$_ZNSt23_Sp_counted_ptr_inplaceIN4mini10TypedValueESaIS1_ELN9__gnu_cxx12_Lock_policyE2EE5_ImplD2Ev = comdat any

$_ZNSt23_Sp_counted_ptr_inplaceIN4mini10TypedValueESaIS1_ELN9__gnu_cxx12_Lock_policyE2EED2Ev = comdat any

$_ZNSt23_Sp_counted_ptr_inplaceIN4mini10TypedValueESaIS1_ELN9__gnu_cxx12_Lock_policyE2EED0Ev = comdat any

$_ZNSt23_Sp_counted_ptr_inplaceIN4mini10TypedValueESaIS1_ELN9__gnu_cxx12_Lock_policyE2EE10_M_disposeEv = comdat any

$_ZNSt23_Sp_counted_ptr_inplaceIN4mini10TypedValueESaIS1_ELN9__gnu_cxx12_Lock_policyE2EE10_M_destroyEv = comdat any

$_ZNSt23_Sp_counted_ptr_inplaceIN4mini10TypedValueESaIS1_ELN9__gnu_cxx12_Lock_policyE2EE14_M_get_deleterERKSt9type_info = comdat any

$_ZNSt16_Sp_counted_baseILN9__gnu_cxx12_Lock_policyE2EED2Ev = comdat any

$_ZNSt16_Sp_counted_baseILN9__gnu_cxx12_Lock_policyE2EED0Ev = comdat any

$_ZNSt16_Sp_counted_baseILN9__gnu_cxx12_Lock_policyE2EE10_M_destroyEv = comdat any

$_ZNSt14_Sp_ebo_helperILi0ESaIN4mini10TypedValueEELb1EEC2ERKS2_ = comdat any

$_ZN9__gnu_cxx13new_allocatorIN4mini10TypedValueEE9constructIS2_JRNSt7__cxx1112basic_stringIcSt11char_traitsIcESaIcEEEiEEEvPT_DpOT0_ = comdat any

$_ZN9__gnu_cxx16__aligned_bufferIN4mini10TypedValueEE6_M_ptrEv = comdat any

$_ZN9__gnu_cxx16__aligned_bufferIN4mini10TypedValueEE7_M_addrEv = comdat any

$_ZNSt14_Sp_ebo_helperILi0ESaIN4mini10TypedValueEELb1EED2Ev = comdat any

$_ZN9__gnu_cxx13new_allocatorIN4mini10TypedValueEED2Ev = comdat any

$_ZNSt16allocator_traitsISaIN4mini10TypedValueEEE7destroyIS1_EEvRS2_PT_ = comdat any

$_ZNSt23_Sp_counted_ptr_inplaceIN4mini10TypedValueESaIS1_ELN9__gnu_cxx12_Lock_policyE2EE5_Impl8_M_allocEv = comdat any

$_ZN9__gnu_cxx13new_allocatorIN4mini10TypedValueEE7destroyIS2_EEvPT_ = comdat any

$_ZNSt14_Sp_ebo_helperILi0ESaIN4mini10TypedValueEELb1EE6_S_getERS3_ = comdat any

$_ZNKSt9type_infoeqERKS_ = comdat any

$_ZNSt16allocator_traitsISaISt23_Sp_counted_ptr_inplaceIN4mini10TypedValueESaIS2_ELN9__gnu_cxx12_Lock_policyE2EEEE10deallocateERS7_PS6_m = comdat any

$_ZN9__gnu_cxx13new_allocatorISt23_Sp_counted_ptr_inplaceIN4mini10TypedValueESaIS3_ELNS_12_Lock_policyE2EEE10deallocateEPS6_m = comdat any

$_ZN9__gnu_cxx13new_allocatorISt23_Sp_counted_ptr_inplaceIN4mini10TypedValueESaIS3_ELNS_12_Lock_policyE2EEED2Ev = comdat any

$_ZN9__gnu_cxx13new_allocatorIN4mini10TypedValueEEC2Ev = comdat any

$_ZSt7forwardISt10shared_ptrIN4mini10TypedValueEEEOT_RNSt16remove_referenceIS4_E4typeE = comdat any

$_ZN8antlrcpp3Any7DerivedISt10shared_ptrIN4mini10TypedValueEEEC2IS5_EEOT_ = comdat any

$_ZNSt10shared_ptrIN4mini10TypedValueEEC2EOS2_ = comdat any

$_ZN8antlrcpp3Any7DerivedISt10shared_ptrIN4mini10TypedValueEEED2Ev = comdat any

$_ZN8antlrcpp3Any7DerivedISt10shared_ptrIN4mini10TypedValueEEED0Ev = comdat any

$_ZNK8antlrcpp3Any7DerivedISt10shared_ptrIN4mini10TypedValueEEE5cloneEv = comdat any

$_ZSt4moveIRSt10shared_ptrIN4mini10TypedValueEEEONSt16remove_referenceIT_E4typeEOS6_ = comdat any

$_ZNSt12__shared_ptrIN4mini10TypedValueELN9__gnu_cxx12_Lock_policyE2EEC2EOS4_ = comdat any

$_ZNSt14__shared_countILN9__gnu_cxx12_Lock_policyE2EE7_M_swapERS2_ = comdat any

$_ZNK8antlrcpp3Any7DerivedISt10shared_ptrIN4mini10TypedValueEEE5cloneILi0ELi0EEEPNS0_4BaseEv = comdat any

$_ZN8antlrcpp3Any7DerivedISt10shared_ptrIN4mini10TypedValueEEEC2IRKS5_EEOT_ = comdat any

$_ZSt7forwardIRKSt10shared_ptrIN4mini10TypedValueEEEOT_RNSt16remove_referenceIS6_E4typeE = comdat any

$_ZSt15allocate_sharedIN4mini10TypedValueESaIS1_EJRNSt7__cxx1112basic_stringIcSt11char_traitsIcESaIcEEEbEESt10shared_ptrIT_ERKT0_DpOT1_ = comdat any

$_ZNSt10shared_ptrIN4mini10TypedValueEEC2ISaIS1_EJRNSt7__cxx1112basic_stringIcSt11char_traitsIcESaIcEEEbEEESt19_Sp_make_shared_tagRKT_DpOT0_ = comdat any

$_ZNSt12__shared_ptrIN4mini10TypedValueELN9__gnu_cxx12_Lock_policyE2EEC2ISaIS1_EJRNSt7__cxx1112basic_stringIcSt11char_traitsIcESaIcEEEbEEESt19_Sp_make_shared_tagRKT_DpOT0_ = comdat any

$_ZNSt14__shared_countILN9__gnu_cxx12_Lock_policyE2EEC2IN4mini10TypedValueESaIS5_EJRNSt7__cxx1112basic_stringIcSt11char_traitsIcESaIcEEEbEEESt19_Sp_make_shared_tagPT_RKT0_DpOT1_ = comdat any

$_ZNSt23_Sp_counted_ptr_inplaceIN4mini10TypedValueESaIS1_ELN9__gnu_cxx12_Lock_policyE2EEC2IJRNSt7__cxx1112basic_stringIcSt11char_traitsIcESaIcEEEbEEES2_DpOT_ = comdat any

$_ZNSt16allocator_traitsISaIN4mini10TypedValueEEE9constructIS1_JRNSt7__cxx1112basic_stringIcSt11char_traitsIcESaIcEEEbEEEvRS2_PT_DpOT0_ = comdat any

$_ZN9__gnu_cxx13new_allocatorIN4mini10TypedValueEE9constructIS2_JRNSt7__cxx1112basic_stringIcSt11char_traitsIcESaIcEEEbEEEvPT_DpOT0_ = comdat any

$_ZSt15allocate_sharedIN4mini10TypedValueESaIS1_EJRNSt7__cxx1112basic_stringIcSt11char_traitsIcESaIcEEEPSt3mapIS8_St10shared_ptrIS1_ESt4lessIS8_ESaISt4pairIKS8_SC_EEEEESB_IT_ERKT0_DpOT1_ = comdat any

$_ZSt7forwardIPSt3mapINSt7__cxx1112basic_stringIcSt11char_traitsIcESaIcEEESt10shared_ptrIN4mini10TypedValueEESt4lessIS6_ESaISt4pairIKS6_SA_EEEEOT_RNSt16remove_referenceISJ_E4typeE = comdat any

$_ZNSt10shared_ptrIN4mini10TypedValueEEC2ISaIS1_EJRNSt7__cxx1112basic_stringIcSt11char_traitsIcESaIcEEEPSt3mapISA_S2_St4lessISA_ESaISt4pairIKSA_S2_EEEEEESt19_Sp_make_shared_tagRKT_DpOT0_ = comdat any

$_ZNSt12__shared_ptrIN4mini10TypedValueELN9__gnu_cxx12_Lock_policyE2EEC2ISaIS1_EJRNSt7__cxx1112basic_stringIcSt11char_traitsIcESaIcEEEPSt3mapISC_St10shared_ptrIS1_ESt4lessISC_ESaISt4pairIKSC_SG_EEEEEESt19_Sp_make_shared_tagRKT_DpOT0_ = comdat any

$_ZNSt14__shared_countILN9__gnu_cxx12_Lock_policyE2EEC2IN4mini10TypedValueESaIS5_EJRNSt7__cxx1112basic_stringIcSt11char_traitsIcESaIcEEEPSt3mapISC_St10shared_ptrIS5_ESt4lessISC_ESaISt4pairIKSC_SG_EEEEEESt19_Sp_make_shared_tagPT_RKT0_DpOT1_ = comdat any

$_ZNSt23_Sp_counted_ptr_inplaceIN4mini10TypedValueESaIS1_ELN9__gnu_cxx12_Lock_policyE2EEC2IJRNSt7__cxx1112basic_stringIcSt11char_traitsIcESaIcEEEPSt3mapISC_St10shared_ptrIS1_ESt4lessISC_ESaISt4pairIKSC_SG_EEEEEES2_DpOT_ = comdat any

$_ZNSt16allocator_traitsISaIN4mini10TypedValueEEE9constructIS1_JRNSt7__cxx1112basic_stringIcSt11char_traitsIcESaIcEEEPSt3mapISA_St10shared_ptrIS1_ESt4lessISA_ESaISt4pairIKSA_SE_EEEEEEvRS2_PT_DpOT0_ = comdat any

$_ZN9__gnu_cxx13new_allocatorIN4mini10TypedValueEE9constructIS2_JRNSt7__cxx1112basic_stringIcSt11char_traitsIcESaIcEEEPSt3mapISA_St10shared_ptrIS2_ESt4lessISA_ESaISt4pairIKSA_SE_EEEEEEvPT_DpOT0_ = comdat any

$_ZSt4moveIRNSt7__cxx1112basic_stringIcSt11char_traitsIcESaIcEEEEONSt16remove_referenceIT_E4typeEOS8_ = comdat any

$_ZSt7forwardIRN4mini10TypedValueEEOT_RNSt16remove_referenceIS3_E4typeE = comdat any

$_ZN8antlrcpp3Any7DerivedIN4mini10TypedValueEEC2IRS3_EEOT_ = comdat any

$_ZN9__gnu_cxx17__normal_iteratorIPSt10shared_ptrIN3ast11DeclarationEESt6vectorIS4_SaIS4_EEEC2ERKS5_ = comdat any

$_ZNK9__gnu_cxx17__normal_iteratorIPSt10shared_ptrIN3ast11DeclarationEESt6vectorIS4_SaIS4_EEE4baseEv = comdat any

$_ZNK9__gnu_cxx17__normal_iteratorIPSt3mapINSt7__cxx1112basic_stringIcSt11char_traitsIcESaIcEEESt10shared_ptrIN4mini10TypedValueEESt4lessIS7_ESaISt4pairIKS7_SB_EEESt6vectorISI_SaISI_EEEmiEl = comdat any

$_ZSt7forwardIRiEOT_RNSt16remove_referenceIS1_E4typeE = comdat any

$_ZN8antlrcpp3Any7DerivedIiEC2IRiEEOT_ = comdat any

$_ZNKSt8_Rb_treeINSt7__cxx1112basic_stringIcSt11char_traitsIcESaIcEEESt4pairIKS5_St10shared_ptrIN3ast8FunctionEEESt10_Select1stISC_ESt4lessIS5_ESaISC_EE4findERS7_ = comdat any

$_ZNKSt23_Rb_tree_const_iteratorISt4pairIKNSt7__cxx1112basic_stringIcSt11char_traitsIcESaIcEEESt10shared_ptrIN3ast8FunctionEEEEeqERKSD_ = comdat any

$_ZNKSt8_Rb_treeINSt7__cxx1112basic_stringIcSt11char_traitsIcESaIcEEESt4pairIKS5_St10shared_ptrIN3ast8FunctionEEESt10_Select1stISC_ESt4lessIS5_ESaISC_EE3endEv = comdat any

$_ZNKSt8_Rb_treeINSt7__cxx1112basic_stringIcSt11char_traitsIcESaIcEEESt4pairIKS5_St10shared_ptrIN3ast8FunctionEEESt10_Select1stISC_ESt4lessIS5_ESaISC_EE14_M_lower_boundEPKSt13_Rb_tree_nodeISC_EPKSt18_Rb_tree_node_baseRS7_ = comdat any

$_ZNKSt8_Rb_treeINSt7__cxx1112basic_stringIcSt11char_traitsIcESaIcEEESt4pairIKS5_St10shared_ptrIN3ast8FunctionEEESt10_Select1stISC_ESt4lessIS5_ESaISC_EE8_M_beginEv = comdat any

$_ZNKSt8_Rb_treeINSt7__cxx1112basic_stringIcSt11char_traitsIcESaIcEEESt4pairIKS5_St10shared_ptrIN3ast8FunctionEEESt10_Select1stISC_ESt4lessIS5_ESaISC_EE6_M_endEv = comdat any

$_ZNSt8_Rb_treeINSt7__cxx1112basic_stringIcSt11char_traitsIcESaIcEEESt4pairIKS5_St10shared_ptrIN3ast8FunctionEEESt10_Select1stISC_ESt4lessIS5_ESaISC_EE6_S_keyEPKSt18_Rb_tree_node_base = comdat any

$_ZNSt8_Rb_treeINSt7__cxx1112basic_stringIcSt11char_traitsIcESaIcEEESt4pairIKS5_St10shared_ptrIN3ast8FunctionEEESt10_Select1stISC_ESt4lessIS5_ESaISC_EE6_S_keyEPKSt13_Rb_tree_nodeISC_E = comdat any

$_ZNSt8_Rb_treeINSt7__cxx1112basic_stringIcSt11char_traitsIcESaIcEEESt4pairIKS5_St10shared_ptrIN3ast8FunctionEEESt10_Select1stISC_ESt4lessIS5_ESaISC_EE7_S_leftEPKSt18_Rb_tree_node_base = comdat any

$_ZNSt8_Rb_treeINSt7__cxx1112basic_stringIcSt11char_traitsIcESaIcEEESt4pairIKS5_St10shared_ptrIN3ast8FunctionEEESt10_Select1stISC_ESt4lessIS5_ESaISC_EE8_S_rightEPKSt18_Rb_tree_node_base = comdat any

$_ZNSt23_Rb_tree_const_iteratorISt4pairIKNSt7__cxx1112basic_stringIcSt11char_traitsIcESaIcEEESt10shared_ptrIN3ast8FunctionEEEEC2EPKSt18_Rb_tree_node_base = comdat any

$_ZNKSt10_Select1stISt4pairIKNSt7__cxx1112basic_stringIcSt11char_traitsIcESaIcEEESt10shared_ptrIN3ast8FunctionEEEEclERKSC_ = comdat any

$_ZNSt8_Rb_treeINSt7__cxx1112basic_stringIcSt11char_traitsIcESaIcEEESt4pairIKS5_St10shared_ptrIN3ast8FunctionEEESt10_Select1stISC_ESt4lessIS5_ESaISC_EE8_S_valueEPKSt13_Rb_tree_nodeISC_E = comdat any

$_ZNKSt13_Rb_tree_nodeISt4pairIKNSt7__cxx1112basic_stringIcSt11char_traitsIcESaIcEEESt10shared_ptrIN3ast8FunctionEEEE9_M_valptrEv = comdat any

$_ZNK9__gnu_cxx16__aligned_membufISt4pairIKNSt7__cxx1112basic_stringIcSt11char_traitsIcESaIcEEESt10shared_ptrIN3ast8FunctionEEEE6_M_ptrEv = comdat any

$_ZNK9__gnu_cxx16__aligned_membufISt4pairIKNSt7__cxx1112basic_stringIcSt11char_traitsIcESaIcEEESt10shared_ptrIN3ast8FunctionEEEE7_M_addrEv = comdat any

$_ZNSt8_Rb_treeINSt7__cxx1112basic_stringIcSt11char_traitsIcESaIcEEESt4pairIKS5_St10shared_ptrIN3ast8FunctionEEESt10_Select1stISC_ESt4lessIS5_ESaISC_EE8_S_valueEPKSt18_Rb_tree_node_base = comdat any

$_ZNSt3mapINSt7__cxx1112basic_stringIcSt11char_traitsIcESaIcEEESt10shared_ptrIN3ast8FunctionEESt4lessIS5_ESaISt4pairIKS5_S9_EEE11lower_boundERSD_ = comdat any

$_ZNKSt17_Rb_tree_iteratorISt4pairIKNSt7__cxx1112basic_stringIcSt11char_traitsIcESaIcEEESt10shared_ptrIN3ast8FunctionEEEEeqERKSD_ = comdat any

$_ZNSt3mapINSt7__cxx1112basic_stringIcSt11char_traitsIcESaIcEEESt10shared_ptrIN3ast8FunctionEESt4lessIS5_ESaISt4pairIKS5_S9_EEE3endEv = comdat any

$_ZNKSt3mapINSt7__cxx1112basic_stringIcSt11char_traitsIcESaIcEEESt10shared_ptrIN3ast8FunctionEESt4lessIS5_ESaISt4pairIKS5_S9_EEE8key_compEv = comdat any

$_ZNKSt17_Rb_tree_iteratorISt4pairIKNSt7__cxx1112basic_stringIcSt11char_traitsIcESaIcEEESt10shared_ptrIN3ast8FunctionEEEEdeEv = comdat any

$_ZNSt8_Rb_treeINSt7__cxx1112basic_stringIcSt11char_traitsIcESaIcEEESt4pairIKS5_St10shared_ptrIN3ast8FunctionEEESt10_Select1stISC_ESt4lessIS5_ESaISC_EE11lower_boundERS7_ = comdat any

$_ZNSt8_Rb_treeINSt7__cxx1112basic_stringIcSt11char_traitsIcESaIcEEESt4pairIKS5_St10shared_ptrIN3ast8FunctionEEESt10_Select1stISC_ESt4lessIS5_ESaISC_EE14_M_lower_boundEPSt13_Rb_tree_nodeISC_EPSt18_Rb_tree_node_baseRS7_ = comdat any

$_ZNSt8_Rb_treeINSt7__cxx1112basic_stringIcSt11char_traitsIcESaIcEEESt4pairIKS5_St10shared_ptrIN3ast8FunctionEEESt10_Select1stISC_ESt4lessIS5_ESaISC_EE8_M_beginEv = comdat any

$_ZNSt8_Rb_treeINSt7__cxx1112basic_stringIcSt11char_traitsIcESaIcEEESt4pairIKS5_St10shared_ptrIN3ast8FunctionEEESt10_Select1stISC_ESt4lessIS5_ESaISC_EE6_M_endEv = comdat any

$_ZNSt8_Rb_treeINSt7__cxx1112basic_stringIcSt11char_traitsIcESaIcEEESt4pairIKS5_St10shared_ptrIN3ast8FunctionEEESt10_Select1stISC_ESt4lessIS5_ESaISC_EE7_S_leftEPSt18_Rb_tree_node_base = comdat any

$_ZNSt8_Rb_treeINSt7__cxx1112basic_stringIcSt11char_traitsIcESaIcEEESt4pairIKS5_St10shared_ptrIN3ast8FunctionEEESt10_Select1stISC_ESt4lessIS5_ESaISC_EE8_S_rightEPSt18_Rb_tree_node_base = comdat any

$_ZNSt17_Rb_tree_iteratorISt4pairIKNSt7__cxx1112basic_stringIcSt11char_traitsIcESaIcEEESt10shared_ptrIN3ast8FunctionEEEEC2EPSt18_Rb_tree_node_base = comdat any

$_ZNSt8_Rb_treeINSt7__cxx1112basic_stringIcSt11char_traitsIcESaIcEEESt4pairIKS5_St10shared_ptrIN3ast8FunctionEEESt10_Select1stISC_ESt4lessIS5_ESaISC_EE3endEv = comdat any

$_ZNKSt8_Rb_treeINSt7__cxx1112basic_stringIcSt11char_traitsIcESaIcEEESt4pairIKS5_St10shared_ptrIN3ast8FunctionEEESt10_Select1stISC_ESt4lessIS5_ESaISC_EE8key_compEv = comdat any

$_ZNSt13_Rb_tree_nodeISt4pairIKNSt7__cxx1112basic_stringIcSt11char_traitsIcESaIcEEESt10shared_ptrIN3ast8FunctionEEEE9_M_valptrEv = comdat any

$_ZN9__gnu_cxx16__aligned_membufISt4pairIKNSt7__cxx1112basic_stringIcSt11char_traitsIcESaIcEEESt10shared_ptrIN3ast8FunctionEEEE6_M_ptrEv = comdat any

$_ZN9__gnu_cxx16__aligned_membufISt4pairIKNSt7__cxx1112basic_stringIcSt11char_traitsIcESaIcEEESt10shared_ptrIN3ast8FunctionEEEE7_M_addrEv = comdat any

$_ZNKSt19__shared_ptr_accessIN3ast8FunctionELN9__gnu_cxx12_Lock_policyE2ELb0ELb0EE6_M_getEv = comdat any

$_ZNKSt12__shared_ptrIN3ast8FunctionELN9__gnu_cxx12_Lock_policyE2EE3getEv = comdat any

$_ZNSt16allocator_traitsISaISt3mapINSt7__cxx1112basic_stringIcSt11char_traitsIcESaIcEEESt10shared_ptrIN4mini10TypedValueEESt4lessIS6_ESaISt4pairIKS6_SA_EEEEE9constructISH_JRKSH_EEEvRSI_PT_DpOT0_ = comdat any

$_ZNSt6vectorISt3mapINSt7__cxx1112basic_stringIcSt11char_traitsIcESaIcEEESt10shared_ptrIN4mini10TypedValueEESt4lessIS6_ESaISt4pairIKS6_SA_EEESaISH_EE17_M_realloc_insertIJRKSH_EEEvN9__gnu_cxx17__normal_iteratorIPSH_SJ_EEDpOT_ = comdat any

$_ZN9__gnu_cxx13new_allocatorISt3mapINSt7__cxx1112basic_stringIcSt11char_traitsIcESaIcEEESt10shared_ptrIN4mini10TypedValueEESt4lessIS7_ESaISt4pairIKS7_SB_EEEE9constructISI_JRKSI_EEEvPT_DpOT0_ = comdat any

$_ZSt7forwardIRKSt3mapINSt7__cxx1112basic_stringIcSt11char_traitsIcESaIcEEESt10shared_ptrIN4mini10TypedValueEESt4lessIS6_ESaISt4pairIKS6_SA_EEEEOT_RNSt16remove_referenceISK_E4typeE = comdat any

$_ZNKSt6vectorISt3mapINSt7__cxx1112basic_stringIcSt11char_traitsIcESaIcEEESt10shared_ptrIN4mini10TypedValueEESt4lessIS6_ESaISt4pairIKS6_SA_EEESaISH_EE12_M_check_lenEmPKc = comdat any

$_ZN9__gnu_cxxmiIPSt3mapINSt7__cxx1112basic_stringIcSt11char_traitsIcESaIcEEESt10shared_ptrIN4mini10TypedValueEESt4lessIS7_ESaISt4pairIKS7_SB_EEESt6vectorISI_SaISI_EEEENS_17__normal_iteratorIT_T0_E15difference_typeERKSQ_ST_ = comdat any

$_ZNSt12_Vector_baseISt3mapINSt7__cxx1112basic_stringIcSt11char_traitsIcESaIcEEESt10shared_ptrIN4mini10TypedValueEESt4lessIS6_ESaISt4pairIKS6_SA_EEESaISH_EE11_M_allocateEm = comdat any

$_ZSt34__uninitialized_move_if_noexcept_aIPSt3mapINSt7__cxx1112basic_stringIcSt11char_traitsIcESaIcEEESt10shared_ptrIN4mini10TypedValueEESt4lessIS6_ESaISt4pairIKS6_SA_EEESI_SaISH_EET0_T_SL_SK_RT1_ = comdat any

$_ZNSt12_Vector_baseISt3mapINSt7__cxx1112basic_stringIcSt11char_traitsIcESaIcEEESt10shared_ptrIN4mini10TypedValueEESt4lessIS6_ESaISt4pairIKS6_SA_EEESaISH_EE19_M_get_Tp_allocatorEv = comdat any

$_ZNSt16allocator_traitsISaISt3mapINSt7__cxx1112basic_stringIcSt11char_traitsIcESaIcEEESt10shared_ptrIN4mini10TypedValueEESt4lessIS6_ESaISt4pairIKS6_SA_EEEEE7destroyISH_EEvRSI_PT_ = comdat any

$_ZSt8_DestroyIPSt3mapINSt7__cxx1112basic_stringIcSt11char_traitsIcESaIcEEESt10shared_ptrIN4mini10TypedValueEESt4lessIS6_ESaISt4pairIKS6_SA_EEESH_EvT_SJ_RSaIT0_E = comdat any

$_ZNSt12_Vector_baseISt3mapINSt7__cxx1112basic_stringIcSt11char_traitsIcESaIcEEESt10shared_ptrIN4mini10TypedValueEESt4lessIS6_ESaISt4pairIKS6_SA_EEESaISH_EE13_M_deallocateEPSH_m = comdat any

$_ZNKSt6vectorISt3mapINSt7__cxx1112basic_stringIcSt11char_traitsIcESaIcEEESt10shared_ptrIN4mini10TypedValueEESt4lessIS6_ESaISt4pairIKS6_SA_EEESaISH_EE8max_sizeEv = comdat any

$_ZNKSt6vectorISt3mapINSt7__cxx1112basic_stringIcSt11char_traitsIcESaIcEEESt10shared_ptrIN4mini10TypedValueEESt4lessIS6_ESaISt4pairIKS6_SA_EEESaISH_EE4sizeEv = comdat any

$_ZSt3maxImERKT_S2_S2_ = comdat any

$_ZNSt16allocator_traitsISaISt3mapINSt7__cxx1112basic_stringIcSt11char_traitsIcESaIcEEESt10shared_ptrIN4mini10TypedValueEESt4lessIS6_ESaISt4pairIKS6_SA_EEEEE8max_sizeERKSI_ = comdat any

$_ZNKSt12_Vector_baseISt3mapINSt7__cxx1112basic_stringIcSt11char_traitsIcESaIcEEESt10shared_ptrIN4mini10TypedValueEESt4lessIS6_ESaISt4pairIKS6_SA_EEESaISH_EE19_M_get_Tp_allocatorEv = comdat any

$_ZNK9__gnu_cxx13new_allocatorISt3mapINSt7__cxx1112basic_stringIcSt11char_traitsIcESaIcEEESt10shared_ptrIN4mini10TypedValueEESt4lessIS7_ESaISt4pairIKS7_SB_EEEE8max_sizeEv = comdat any

$_ZNSt16allocator_traitsISaISt3mapINSt7__cxx1112basic_stringIcSt11char_traitsIcESaIcEEESt10shared_ptrIN4mini10TypedValueEESt4lessIS6_ESaISt4pairIKS6_SA_EEEEE8allocateERSI_m = comdat any

$_ZN9__gnu_cxx13new_allocatorISt3mapINSt7__cxx1112basic_stringIcSt11char_traitsIcESaIcEEESt10shared_ptrIN4mini10TypedValueEESt4lessIS7_ESaISt4pairIKS7_SB_EEEE8allocateEmPKv = comdat any

$_ZSt22__uninitialized_copy_aISt13move_iteratorIPSt3mapINSt7__cxx1112basic_stringIcSt11char_traitsIcESaIcEEESt10shared_ptrIN4mini10TypedValueEESt4lessIS7_ESaISt4pairIKS7_SB_EEEESJ_SI_ET0_T_SM_SL_RSaIT1_E = comdat any

$_ZSt32__make_move_if_noexcept_iteratorISt3mapINSt7__cxx1112basic_stringIcSt11char_traitsIcESaIcEEESt10shared_ptrIN4mini10TypedValueEESt4lessIS6_ESaISt4pairIKS6_SA_EEESt13move_iteratorIPSH_EET0_PT_ = comdat any

$_ZSt18uninitialized_copyISt13move_iteratorIPSt3mapINSt7__cxx1112basic_stringIcSt11char_traitsIcESaIcEEESt10shared_ptrIN4mini10TypedValueEESt4lessIS7_ESaISt4pairIKS7_SB_EEEESJ_ET0_T_SM_SL_ = comdat any

$_ZNSt20__uninitialized_copyILb0EE13__uninit_copyISt13move_iteratorIPSt3mapINSt7__cxx1112basic_stringIcSt11char_traitsIcESaIcEEESt10shared_ptrIN4mini10TypedValueEESt4lessIS9_ESaISt4pairIKS9_SD_EEEESL_EET0_T_SO_SN_ = comdat any

$_ZStneIPSt3mapINSt7__cxx1112basic_stringIcSt11char_traitsIcESaIcEEESt10shared_ptrIN4mini10TypedValueEESt4lessIS6_ESaISt4pairIKS6_SA_EEEEbRKSt13move_iteratorIT_ESN_ = comdat any

$_ZSt10_ConstructISt3mapINSt7__cxx1112basic_stringIcSt11char_traitsIcESaIcEEESt10shared_ptrIN4mini10TypedValueEESt4lessIS6_ESaISt4pairIKS6_SA_EEEJSH_EEvPT_DpOT0_ = comdat any

$_ZNKSt13move_iteratorIPSt3mapINSt7__cxx1112basic_stringIcSt11char_traitsIcESaIcEEESt10shared_ptrIN4mini10TypedValueEESt4lessIS6_ESaISt4pairIKS6_SA_EEEEdeEv = comdat any

$_ZNSt13move_iteratorIPSt3mapINSt7__cxx1112basic_stringIcSt11char_traitsIcESaIcEEESt10shared_ptrIN4mini10TypedValueEESt4lessIS6_ESaISt4pairIKS6_SA_EEEEppEv = comdat any

$_ZSt8_DestroyIPSt3mapINSt7__cxx1112basic_stringIcSt11char_traitsIcESaIcEEESt10shared_ptrIN4mini10TypedValueEESt4lessIS6_ESaISt4pairIKS6_SA_EEEEvT_SJ_ = comdat any

$_ZSteqIPSt3mapINSt7__cxx1112basic_stringIcSt11char_traitsIcESaIcEEESt10shared_ptrIN4mini10TypedValueEESt4lessIS6_ESaISt4pairIKS6_SA_EEEEbRKSt13move_iteratorIT_ESN_ = comdat any

$_ZNKSt13move_iteratorIPSt3mapINSt7__cxx1112basic_stringIcSt11char_traitsIcESaIcEEESt10shared_ptrIN4mini10TypedValueEESt4lessIS6_ESaISt4pairIKS6_SA_EEEE4baseEv = comdat any

$_ZSt7forwardISt3mapINSt7__cxx1112basic_stringIcSt11char_traitsIcESaIcEEESt10shared_ptrIN4mini10TypedValueEESt4lessIS6_ESaISt4pairIKS6_SA_EEEEOT_RNSt16remove_referenceISI_E4typeE = comdat any

$_ZNSt3mapINSt7__cxx1112basic_stringIcSt11char_traitsIcESaIcEEESt10shared_ptrIN4mini10TypedValueEESt4lessIS5_ESaISt4pairIKS5_S9_EEEC2EOSG_ = comdat any

$_ZNSt8_Rb_treeINSt7__cxx1112basic_stringIcSt11char_traitsIcESaIcEEESt4pairIKS5_St10shared_ptrIN4mini10TypedValueEEESt10_Select1stISC_ESt4lessIS5_ESaISC_EEC2EOSI_ = comdat any

$_ZNSt8_Rb_treeINSt7__cxx1112basic_stringIcSt11char_traitsIcESaIcEEESt4pairIKS5_St10shared_ptrIN4mini10TypedValueEEESt10_Select1stISC_ESt4lessIS5_ESaISC_EE13_Rb_tree_implISG_Lb1EEC2EOSK_ = comdat any

$_ZNSt20_Rb_tree_key_compareISt4lessINSt7__cxx1112basic_stringIcSt11char_traitsIcESaIcEEEEEC2EOS8_ = comdat any

$_ZNSt15_Rb_tree_headerC2EOS_ = comdat any

$_ZNSt15_Rb_tree_header12_M_move_dataERS_ = comdat any

$_ZNSt12_Destroy_auxILb0EE9__destroyIPSt3mapINSt7__cxx1112basic_stringIcSt11char_traitsIcESaIcEEESt10shared_ptrIN4mini10TypedValueEESt4lessIS8_ESaISt4pairIKS8_SC_EEEEEvT_SL_ = comdat any

$_ZSt8_DestroyISt3mapINSt7__cxx1112basic_stringIcSt11char_traitsIcESaIcEEESt10shared_ptrIN4mini10TypedValueEESt4lessIS6_ESaISt4pairIKS6_SA_EEEEvPT_ = comdat any

$_ZNSt13move_iteratorIPSt3mapINSt7__cxx1112basic_stringIcSt11char_traitsIcESaIcEEESt10shared_ptrIN4mini10TypedValueEESt4lessIS6_ESaISt4pairIKS6_SA_EEEEC2ESI_ = comdat any

$_ZN9__gnu_cxx13new_allocatorISt3mapINSt7__cxx1112basic_stringIcSt11char_traitsIcESaIcEEESt10shared_ptrIN4mini10TypedValueEESt4lessIS7_ESaISt4pairIKS7_SB_EEEE7destroyISI_EEvPT_ = comdat any

$_ZNSt16allocator_traitsISaISt3mapINSt7__cxx1112basic_stringIcSt11char_traitsIcESaIcEEESt10shared_ptrIN4mini10TypedValueEESt4lessIS6_ESaISt4pairIKS6_SA_EEEEE10deallocateERSI_PSH_m = comdat any

$_ZN9__gnu_cxx13new_allocatorISt3mapINSt7__cxx1112basic_stringIcSt11char_traitsIcESaIcEEESt10shared_ptrIN4mini10TypedValueEESt4lessIS7_ESaISt4pairIKS7_SB_EEEE10deallocateEPSI_m = comdat any

$_ZN8antlrcpp3Any7DerivedISt10shared_ptrIN4mini10TypedValueEEEC2IRS5_EEOT_ = comdat any

$_ZNKSt8_Rb_treeINSt7__cxx1112basic_stringIcSt11char_traitsIcESaIcEEESt4pairIKS5_St3mapIS5_St10shared_ptrIN4mini10TypedValueEESt4lessIS5_ESaIS6_IS7_SC_EEEESt10_Select1stISI_ESE_SaISI_EE4findERS7_ = comdat any

$_ZNKSt23_Rb_tree_const_iteratorISt4pairIKNSt7__cxx1112basic_stringIcSt11char_traitsIcESaIcEEESt3mapIS6_St10shared_ptrIN4mini10TypedValueEESt4lessIS6_ESaIS0_IS7_SC_EEEEEeqERKSJ_ = comdat any

$_ZNKSt8_Rb_treeINSt7__cxx1112basic_stringIcSt11char_traitsIcESaIcEEESt4pairIKS5_St3mapIS5_St10shared_ptrIN4mini10TypedValueEESt4lessIS5_ESaIS6_IS7_SC_EEEESt10_Select1stISI_ESE_SaISI_EE3endEv = comdat any

$_ZNKSt8_Rb_treeINSt7__cxx1112basic_stringIcSt11char_traitsIcESaIcEEESt4pairIKS5_St3mapIS5_St10shared_ptrIN4mini10TypedValueEESt4lessIS5_ESaIS6_IS7_SC_EEEESt10_Select1stISI_ESE_SaISI_EE14_M_lower_boundEPKSt13_Rb_tree_nodeISI_EPKSt18_Rb_tree_node_baseRS7_ = comdat any

$_ZNKSt8_Rb_treeINSt7__cxx1112basic_stringIcSt11char_traitsIcESaIcEEESt4pairIKS5_St3mapIS5_St10shared_ptrIN4mini10TypedValueEESt4lessIS5_ESaIS6_IS7_SC_EEEESt10_Select1stISI_ESE_SaISI_EE8_M_beginEv = comdat any

$_ZNKSt8_Rb_treeINSt7__cxx1112basic_stringIcSt11char_traitsIcESaIcEEESt4pairIKS5_St3mapIS5_St10shared_ptrIN4mini10TypedValueEESt4lessIS5_ESaIS6_IS7_SC_EEEESt10_Select1stISI_ESE_SaISI_EE6_M_endEv = comdat any

$_ZNSt8_Rb_treeINSt7__cxx1112basic_stringIcSt11char_traitsIcESaIcEEESt4pairIKS5_St3mapIS5_St10shared_ptrIN4mini10TypedValueEESt4lessIS5_ESaIS6_IS7_SC_EEEESt10_Select1stISI_ESE_SaISI_EE6_S_keyEPKSt18_Rb_tree_node_base = comdat any

$_ZNSt8_Rb_treeINSt7__cxx1112basic_stringIcSt11char_traitsIcESaIcEEESt4pairIKS5_St3mapIS5_St10shared_ptrIN4mini10TypedValueEESt4lessIS5_ESaIS6_IS7_SC_EEEESt10_Select1stISI_ESE_SaISI_EE6_S_keyEPKSt13_Rb_tree_nodeISI_E = comdat any

$_ZNSt8_Rb_treeINSt7__cxx1112basic_stringIcSt11char_traitsIcESaIcEEESt4pairIKS5_St3mapIS5_St10shared_ptrIN4mini10TypedValueEESt4lessIS5_ESaIS6_IS7_SC_EEEESt10_Select1stISI_ESE_SaISI_EE7_S_leftEPKSt18_Rb_tree_node_base = comdat any

$_ZNSt8_Rb_treeINSt7__cxx1112basic_stringIcSt11char_traitsIcESaIcEEESt4pairIKS5_St3mapIS5_St10shared_ptrIN4mini10TypedValueEESt4lessIS5_ESaIS6_IS7_SC_EEEESt10_Select1stISI_ESE_SaISI_EE8_S_rightEPKSt18_Rb_tree_node_base = comdat any

$_ZNSt23_Rb_tree_const_iteratorISt4pairIKNSt7__cxx1112basic_stringIcSt11char_traitsIcESaIcEEESt3mapIS6_St10shared_ptrIN4mini10TypedValueEESt4lessIS6_ESaIS0_IS7_SC_EEEEEC2EPKSt18_Rb_tree_node_base = comdat any

$_ZNKSt10_Select1stISt4pairIKNSt7__cxx1112basic_stringIcSt11char_traitsIcESaIcEEESt3mapIS6_St10shared_ptrIN4mini10TypedValueEESt4lessIS6_ESaIS0_IS7_SC_EEEEEclERKSI_ = comdat any

$_ZNSt8_Rb_treeINSt7__cxx1112basic_stringIcSt11char_traitsIcESaIcEEESt4pairIKS5_St3mapIS5_St10shared_ptrIN4mini10TypedValueEESt4lessIS5_ESaIS6_IS7_SC_EEEESt10_Select1stISI_ESE_SaISI_EE8_S_valueEPKSt13_Rb_tree_nodeISI_E = comdat any

$_ZNKSt13_Rb_tree_nodeISt4pairIKNSt7__cxx1112basic_stringIcSt11char_traitsIcESaIcEEESt3mapIS6_St10shared_ptrIN4mini10TypedValueEESt4lessIS6_ESaIS0_IS7_SC_EEEEE9_M_valptrEv = comdat any

$_ZNK9__gnu_cxx16__aligned_membufISt4pairIKNSt7__cxx1112basic_stringIcSt11char_traitsIcESaIcEEESt3mapIS7_St10shared_ptrIN4mini10TypedValueEESt4lessIS7_ESaIS1_IS8_SD_EEEEE6_M_ptrEv = comdat any

$_ZNK9__gnu_cxx16__aligned_membufISt4pairIKNSt7__cxx1112basic_stringIcSt11char_traitsIcESaIcEEESt3mapIS7_St10shared_ptrIN4mini10TypedValueEESt4lessIS7_ESaIS1_IS8_SD_EEEEE7_M_addrEv = comdat any

$_ZNSt8_Rb_treeINSt7__cxx1112basic_stringIcSt11char_traitsIcESaIcEEESt4pairIKS5_St3mapIS5_St10shared_ptrIN4mini10TypedValueEESt4lessIS5_ESaIS6_IS7_SC_EEEESt10_Select1stISI_ESE_SaISI_EE8_S_valueEPKSt18_Rb_tree_node_base = comdat any

$_ZNSt3mapINSt7__cxx1112basic_stringIcSt11char_traitsIcESaIcEEES_IS5_St10shared_ptrIN4mini10TypedValueEESt4lessIS5_ESaISt4pairIKS5_S9_EEESB_SaISC_ISD_SG_EEE11lower_boundERSD_ = comdat any

$_ZNKSt17_Rb_tree_iteratorISt4pairIKNSt7__cxx1112basic_stringIcSt11char_traitsIcESaIcEEESt3mapIS6_St10shared_ptrIN4mini10TypedValueEESt4lessIS6_ESaIS0_IS7_SC_EEEEEeqERKSJ_ = comdat any

$_ZNSt3mapINSt7__cxx1112basic_stringIcSt11char_traitsIcESaIcEEES_IS5_St10shared_ptrIN4mini10TypedValueEESt4lessIS5_ESaISt4pairIKS5_S9_EEESB_SaISC_ISD_SG_EEE3endEv = comdat any

$_ZNKSt3mapINSt7__cxx1112basic_stringIcSt11char_traitsIcESaIcEEES_IS5_St10shared_ptrIN4mini10TypedValueEESt4lessIS5_ESaISt4pairIKS5_S9_EEESB_SaISC_ISD_SG_EEE8key_compEv = comdat any

$_ZNKSt17_Rb_tree_iteratorISt4pairIKNSt7__cxx1112basic_stringIcSt11char_traitsIcESaIcEEESt3mapIS6_St10shared_ptrIN4mini10TypedValueEESt4lessIS6_ESaIS0_IS7_SC_EEEEEdeEv = comdat any

$_ZNSt8_Rb_treeINSt7__cxx1112basic_stringIcSt11char_traitsIcESaIcEEESt4pairIKS5_St3mapIS5_St10shared_ptrIN4mini10TypedValueEESt4lessIS5_ESaIS6_IS7_SC_EEEESt10_Select1stISI_ESE_SaISI_EE11lower_boundERS7_ = comdat any

$_ZNSt8_Rb_treeINSt7__cxx1112basic_stringIcSt11char_traitsIcESaIcEEESt4pairIKS5_St3mapIS5_St10shared_ptrIN4mini10TypedValueEESt4lessIS5_ESaIS6_IS7_SC_EEEESt10_Select1stISI_ESE_SaISI_EE14_M_lower_boundEPSt13_Rb_tree_nodeISI_EPSt18_Rb_tree_node_baseRS7_ = comdat any

$_ZNSt8_Rb_treeINSt7__cxx1112basic_stringIcSt11char_traitsIcESaIcEEESt4pairIKS5_St3mapIS5_St10shared_ptrIN4mini10TypedValueEESt4lessIS5_ESaIS6_IS7_SC_EEEESt10_Select1stISI_ESE_SaISI_EE8_M_beginEv = comdat any

$_ZNSt8_Rb_treeINSt7__cxx1112basic_stringIcSt11char_traitsIcESaIcEEESt4pairIKS5_St3mapIS5_St10shared_ptrIN4mini10TypedValueEESt4lessIS5_ESaIS6_IS7_SC_EEEESt10_Select1stISI_ESE_SaISI_EE6_M_endEv = comdat any

$_ZNSt8_Rb_treeINSt7__cxx1112basic_stringIcSt11char_traitsIcESaIcEEESt4pairIKS5_St3mapIS5_St10shared_ptrIN4mini10TypedValueEESt4lessIS5_ESaIS6_IS7_SC_EEEESt10_Select1stISI_ESE_SaISI_EE7_S_leftEPSt18_Rb_tree_node_base = comdat any

$_ZNSt8_Rb_treeINSt7__cxx1112basic_stringIcSt11char_traitsIcESaIcEEESt4pairIKS5_St3mapIS5_St10shared_ptrIN4mini10TypedValueEESt4lessIS5_ESaIS6_IS7_SC_EEEESt10_Select1stISI_ESE_SaISI_EE8_S_rightEPSt18_Rb_tree_node_base = comdat any

$_ZNSt17_Rb_tree_iteratorISt4pairIKNSt7__cxx1112basic_stringIcSt11char_traitsIcESaIcEEESt3mapIS6_St10shared_ptrIN4mini10TypedValueEESt4lessIS6_ESaIS0_IS7_SC_EEEEEC2EPSt18_Rb_tree_node_base = comdat any

$_ZNSt8_Rb_treeINSt7__cxx1112basic_stringIcSt11char_traitsIcESaIcEEESt4pairIKS5_St3mapIS5_St10shared_ptrIN4mini10TypedValueEESt4lessIS5_ESaIS6_IS7_SC_EEEESt10_Select1stISI_ESE_SaISI_EE3endEv = comdat any

$_ZNKSt8_Rb_treeINSt7__cxx1112basic_stringIcSt11char_traitsIcESaIcEEESt4pairIKS5_St3mapIS5_St10shared_ptrIN4mini10TypedValueEESt4lessIS5_ESaIS6_IS7_SC_EEEESt10_Select1stISI_ESE_SaISI_EE8key_compEv = comdat any

$_ZNSt13_Rb_tree_nodeISt4pairIKNSt7__cxx1112basic_stringIcSt11char_traitsIcESaIcEEESt3mapIS6_St10shared_ptrIN4mini10TypedValueEESt4lessIS6_ESaIS0_IS7_SC_EEEEE9_M_valptrEv = comdat any

$_ZN9__gnu_cxx16__aligned_membufISt4pairIKNSt7__cxx1112basic_stringIcSt11char_traitsIcESaIcEEESt3mapIS7_St10shared_ptrIN4mini10TypedValueEESt4lessIS7_ESaIS1_IS8_SD_EEEEE6_M_ptrEv = comdat any

$_ZN9__gnu_cxx16__aligned_membufISt4pairIKNSt7__cxx1112basic_stringIcSt11char_traitsIcESaIcEEESt3mapIS7_St10shared_ptrIN4mini10TypedValueEESt4lessIS7_ESaIS1_IS8_SD_EEEEE7_M_addrEv = comdat any

$_ZN8antlrcpp3Any7DerivedIPSt3mapINSt7__cxx1112basic_stringIcSt11char_traitsIcESaIcEEESt10shared_ptrIN4mini10TypedValueEESt4lessIS8_ESaISt4pairIKS8_SC_EEEEC2ISK_EEOT_ = comdat any

$_ZN8antlrcpp3Any7DerivedIPSt3mapINSt7__cxx1112basic_stringIcSt11char_traitsIcESaIcEEESt10shared_ptrIN4mini10TypedValueEESt4lessIS8_ESaISt4pairIKS8_SC_EEEED2Ev = comdat any

$_ZN8antlrcpp3Any7DerivedIPSt3mapINSt7__cxx1112basic_stringIcSt11char_traitsIcESaIcEEESt10shared_ptrIN4mini10TypedValueEESt4lessIS8_ESaISt4pairIKS8_SC_EEEED0Ev = comdat any

$_ZNK8antlrcpp3Any7DerivedIPSt3mapINSt7__cxx1112basic_stringIcSt11char_traitsIcESaIcEEESt10shared_ptrIN4mini10TypedValueEESt4lessIS8_ESaISt4pairIKS8_SC_EEEE5cloneEv = comdat any

$_ZNK8antlrcpp3Any7DerivedIPSt3mapINSt7__cxx1112basic_stringIcSt11char_traitsIcESaIcEEESt10shared_ptrIN4mini10TypedValueEESt4lessIS8_ESaISt4pairIKS8_SC_EEEE5cloneILi0ELi0EEEPNS0_4BaseEv = comdat any

$_ZN8antlrcpp3Any7DerivedIPSt3mapINSt7__cxx1112basic_stringIcSt11char_traitsIcESaIcEEESt10shared_ptrIN4mini10TypedValueEESt4lessIS8_ESaISt4pairIKS8_SC_EEEEC2IRKSK_EEOT_ = comdat any

$_ZSt7forwardIRKPSt3mapINSt7__cxx1112basic_stringIcSt11char_traitsIcESaIcEEESt10shared_ptrIN4mini10TypedValueEESt4lessIS6_ESaISt4pairIKS6_SA_EEEEOT_RNSt16remove_referenceISL_E4typeE = comdat any

$_ZNSt8_Rb_treeINSt7__cxx1112basic_stringIcSt11char_traitsIcESaIcEEESt4pairIKS5_St10shared_ptrIN4mini10TypedValueEEESt10_Select1stISC_ESt4lessIS5_ESaISC_EE5clearEv = comdat any

$_ZNSt6vectorISt3mapINSt7__cxx1112basic_stringIcSt11char_traitsIcESaIcEEESt10shared_ptrIN4mini10TypedValueEESt4lessIS6_ESaISt4pairIKS6_SA_EEESaISH_EE15_M_erase_at_endEPSH_ = comdat any

$_ZNSt8_Rb_treeINSt7__cxx1112basic_stringIcSt11char_traitsIcESaIcEEESt4pairIKS5_St10shared_ptrIN3ast8FunctionEEESt10_Select1stISC_ESt4lessIS5_ESaISC_EE5clearEv = comdat any

$_ZNSt8_Rb_treeINSt7__cxx1112basic_stringIcSt11char_traitsIcESaIcEEESt4pairIKS5_St10shared_ptrIN3ast8FunctionEEESt10_Select1stISC_ESt4lessIS5_ESaISC_EE8_M_eraseEPSt13_Rb_tree_nodeISC_E = comdat any

$_ZNSt8_Rb_treeINSt7__cxx1112basic_stringIcSt11char_traitsIcESaIcEEESt4pairIKS5_St10shared_ptrIN3ast8FunctionEEESt10_Select1stISC_ESt4lessIS5_ESaISC_EE12_M_drop_nodeEPSt13_Rb_tree_nodeISC_E = comdat any

$_ZNSt8_Rb_treeINSt7__cxx1112basic_stringIcSt11char_traitsIcESaIcEEESt4pairIKS5_St10shared_ptrIN3ast8FunctionEEESt10_Select1stISC_ESt4lessIS5_ESaISC_EE15_M_destroy_nodeEPSt13_Rb_tree_nodeISC_E = comdat any

$_ZNSt8_Rb_treeINSt7__cxx1112basic_stringIcSt11char_traitsIcESaIcEEESt4pairIKS5_St10shared_ptrIN3ast8FunctionEEESt10_Select1stISC_ESt4lessIS5_ESaISC_EE11_M_put_nodeEPSt13_Rb_tree_nodeISC_E = comdat any

$_ZNSt16allocator_traitsISaISt13_Rb_tree_nodeISt4pairIKNSt7__cxx1112basic_stringIcSt11char_traitsIcESaIcEEESt10shared_ptrIN3ast8FunctionEEEEEE7destroyISD_EEvRSF_PT_ = comdat any

$_ZNSt8_Rb_treeINSt7__cxx1112basic_stringIcSt11char_traitsIcESaIcEEESt4pairIKS5_St10shared_ptrIN3ast8FunctionEEESt10_Select1stISC_ESt4lessIS5_ESaISC_EE21_M_get_Node_allocatorEv = comdat any

$_ZN9__gnu_cxx13new_allocatorISt13_Rb_tree_nodeISt4pairIKNSt7__cxx1112basic_stringIcSt11char_traitsIcESaIcEEESt10shared_ptrIN3ast8FunctionEEEEE7destroyISE_EEvPT_ = comdat any

$_ZNSt16allocator_traitsISaISt13_Rb_tree_nodeISt4pairIKNSt7__cxx1112basic_stringIcSt11char_traitsIcESaIcEEESt10shared_ptrIN3ast8FunctionEEEEEE10deallocateERSF_PSE_m = comdat any

$_ZN9__gnu_cxx13new_allocatorISt13_Rb_tree_nodeISt4pairIKNSt7__cxx1112basic_stringIcSt11char_traitsIcESaIcEEESt10shared_ptrIN3ast8FunctionEEEEE10deallocateEPSF_m = comdat any

$_ZNSt8_Rb_treeINSt7__cxx1112basic_stringIcSt11char_traitsIcESaIcEEESt4pairIKS5_St3mapIS5_St10shared_ptrIN4mini10TypedValueEESt4lessIS5_ESaIS6_IS7_SC_EEEESt10_Select1stISI_ESE_SaISI_EE5clearEv = comdat any

$_ZNSt8_Rb_treeINSt7__cxx1112basic_stringIcSt11char_traitsIcESaIcEEESt4pairIKS5_St3mapIS5_St10shared_ptrIN4mini10TypedValueEESt4lessIS5_ESaIS6_IS7_SC_EEEESt10_Select1stISI_ESE_SaISI_EE8_M_eraseEPSt13_Rb_tree_nodeISI_E = comdat any

$_ZNSt8_Rb_treeINSt7__cxx1112basic_stringIcSt11char_traitsIcESaIcEEESt4pairIKS5_St3mapIS5_St10shared_ptrIN4mini10TypedValueEESt4lessIS5_ESaIS6_IS7_SC_EEEESt10_Select1stISI_ESE_SaISI_EE12_M_drop_nodeEPSt13_Rb_tree_nodeISI_E = comdat any

$_ZNSt8_Rb_treeINSt7__cxx1112basic_stringIcSt11char_traitsIcESaIcEEESt4pairIKS5_St3mapIS5_St10shared_ptrIN4mini10TypedValueEESt4lessIS5_ESaIS6_IS7_SC_EEEESt10_Select1stISI_ESE_SaISI_EE15_M_destroy_nodeEPSt13_Rb_tree_nodeISI_E = comdat any

$_ZNSt8_Rb_treeINSt7__cxx1112basic_stringIcSt11char_traitsIcESaIcEEESt4pairIKS5_St3mapIS5_St10shared_ptrIN4mini10TypedValueEESt4lessIS5_ESaIS6_IS7_SC_EEEESt10_Select1stISI_ESE_SaISI_EE11_M_put_nodeEPSt13_Rb_tree_nodeISI_E = comdat any

$_ZNSt16allocator_traitsISaISt13_Rb_tree_nodeISt4pairIKNSt7__cxx1112basic_stringIcSt11char_traitsIcESaIcEEESt3mapIS7_St10shared_ptrIN4mini10TypedValueEESt4lessIS7_ESaIS1_IS8_SD_EEEEEEE7destroyISJ_EEvRSL_PT_ = comdat any

$_ZNSt8_Rb_treeINSt7__cxx1112basic_stringIcSt11char_traitsIcESaIcEEESt4pairIKS5_St3mapIS5_St10shared_ptrIN4mini10TypedValueEESt4lessIS5_ESaIS6_IS7_SC_EEEESt10_Select1stISI_ESE_SaISI_EE21_M_get_Node_allocatorEv = comdat any

$_ZN9__gnu_cxx13new_allocatorISt13_Rb_tree_nodeISt4pairIKNSt7__cxx1112basic_stringIcSt11char_traitsIcESaIcEEESt3mapIS8_St10shared_ptrIN4mini10TypedValueEESt4lessIS8_ESaIS2_IS9_SE_EEEEEE7destroyISK_EEvPT_ = comdat any

$_ZNSt16allocator_traitsISaISt13_Rb_tree_nodeISt4pairIKNSt7__cxx1112basic_stringIcSt11char_traitsIcESaIcEEESt3mapIS7_St10shared_ptrIN4mini10TypedValueEESt4lessIS7_ESaIS1_IS8_SD_EEEEEEE10deallocateERSL_PSK_m = comdat any

$_ZN9__gnu_cxx13new_allocatorISt13_Rb_tree_nodeISt4pairIKNSt7__cxx1112basic_stringIcSt11char_traitsIcESaIcEEESt3mapIS8_St10shared_ptrIN4mini10TypedValueEESt4lessIS8_ESaIS2_IS9_SE_EEEEEE10deallocateEPSL_m = comdat any

$_ZNSt6vectorISt3mapINSt7__cxx1112basic_stringIcSt11char_traitsIcESaIcEEESt10shared_ptrIN4mini10TypedValueEESt4lessIS6_ESaISt4pairIKS6_SA_EEESaISH_EE12emplace_backIJSH_EEEvDpOT_ = comdat any

$_ZSt4moveIRSt3mapINSt7__cxx1112basic_stringIcSt11char_traitsIcESaIcEEESt10shared_ptrIN4mini10TypedValueEESt4lessIS6_ESaISt4pairIKS6_SA_EEEEONSt16remove_referenceIT_E4typeEOSK_ = comdat any

$_ZNSt16allocator_traitsISaISt3mapINSt7__cxx1112basic_stringIcSt11char_traitsIcESaIcEEESt10shared_ptrIN4mini10TypedValueEESt4lessIS6_ESaISt4pairIKS6_SA_EEEEE9constructISH_JSH_EEEvRSI_PT_DpOT0_ = comdat any

$_ZNSt6vectorISt3mapINSt7__cxx1112basic_stringIcSt11char_traitsIcESaIcEEESt10shared_ptrIN4mini10TypedValueEESt4lessIS6_ESaISt4pairIKS6_SA_EEESaISH_EE17_M_realloc_insertIJSH_EEEvN9__gnu_cxx17__normal_iteratorIPSH_SJ_EEDpOT_ = comdat any

$_ZN9__gnu_cxx13new_allocatorISt3mapINSt7__cxx1112basic_stringIcSt11char_traitsIcESaIcEEESt10shared_ptrIN4mini10TypedValueEESt4lessIS7_ESaISt4pairIKS7_SB_EEEE9constructISI_JSI_EEEvPT_DpOT0_ = comdat any

$_ZNSt8_Rb_treeINSt7__cxx1112basic_stringIcSt11char_traitsIcESaIcEEESt4pairIKS5_St10shared_ptrIN4mini10TypedValueEEESt10_Select1stISC_ESt4lessIS5_ESaISC_EE16_M_insert_uniqueISC_EES6_ISt17_Rb_tree_iteratorISC_EbEOT_ = comdat any

$_ZSt4moveIRSt4pairIKNSt7__cxx1112basic_stringIcSt11char_traitsIcESaIcEEESt10shared_ptrIN4mini10TypedValueEEEEONSt16remove_referenceIT_E4typeEOSF_ = comdat any

$_ZNKSt10_Select1stISt4pairIKNSt7__cxx1112basic_stringIcSt11char_traitsIcESaIcEEESt10shared_ptrIN4mini10TypedValueEEEEclERSC_ = comdat any

$_ZNSt8_Rb_treeINSt7__cxx1112basic_stringIcSt11char_traitsIcESaIcEEESt4pairIKS5_St10shared_ptrIN4mini10TypedValueEEESt10_Select1stISC_ESt4lessIS5_ESaISC_EE10_M_insert_ISC_NSI_11_Alloc_nodeEEESt17_Rb_tree_iteratorISC_EPSt18_Rb_tree_node_baseSO_OT_RT0_ = comdat any

$_ZSt7forwardISt4pairIKNSt7__cxx1112basic_stringIcSt11char_traitsIcESaIcEEESt10shared_ptrIN4mini10TypedValueEEEEOT_RNSt16remove_referenceISD_E4typeE = comdat any

$_ZNSt4pairISt17_Rb_tree_iteratorIS_IKNSt7__cxx1112basic_stringIcSt11char_traitsIcESaIcEEESt10shared_ptrIN4mini10TypedValueEEEEbEC2ISD_bLb1EEEOT_OT0_ = comdat any

$_ZNKSt8_Rb_treeINSt7__cxx1112basic_stringIcSt11char_traitsIcESaIcEEESt4pairIKS5_St10shared_ptrIN4mini10TypedValueEEESt10_Select1stISC_ESt4lessIS5_ESaISC_EE11_Alloc_nodeclISC_EEPSt13_Rb_tree_nodeISC_EOT_ = comdat any

$_ZNSt8_Rb_treeINSt7__cxx1112basic_stringIcSt11char_traitsIcESaIcEEESt4pairIKS5_St10shared_ptrIN4mini10TypedValueEEESt10_Select1stISC_ESt4lessIS5_ESaISC_EE14_M_create_nodeIJSC_EEEPSt13_Rb_tree_nodeISC_EDpOT_ = comdat any

$_ZNSt8_Rb_treeINSt7__cxx1112basic_stringIcSt11char_traitsIcESaIcEEESt4pairIKS5_St10shared_ptrIN4mini10TypedValueEEESt10_Select1stISC_ESt4lessIS5_ESaISC_EE17_M_construct_nodeIJSC_EEEvPSt13_Rb_tree_nodeISC_EDpOT_ = comdat any

$_ZNSt16allocator_traitsISaISt13_Rb_tree_nodeISt4pairIKNSt7__cxx1112basic_stringIcSt11char_traitsIcESaIcEEESt10shared_ptrIN4mini10TypedValueEEEEEE9constructISD_JSD_EEEvRSF_PT_DpOT0_ = comdat any

$_ZN9__gnu_cxx13new_allocatorISt13_Rb_tree_nodeISt4pairIKNSt7__cxx1112basic_stringIcSt11char_traitsIcESaIcEEESt10shared_ptrIN4mini10TypedValueEEEEE9constructISE_JSE_EEEvPT_DpOT0_ = comdat any

$_ZNSt4pairIKNSt7__cxx1112basic_stringIcSt11char_traitsIcESaIcEEESt10shared_ptrIN4mini10TypedValueEEEC2EOSB_ = comdat any

$_ZSt7forwardISt17_Rb_tree_iteratorISt4pairIKNSt7__cxx1112basic_stringIcSt11char_traitsIcESaIcEEESt10shared_ptrIN4mini10TypedValueEEEEEOT_RNSt16remove_referenceISF_E4typeE = comdat any

$_ZN9__gnu_cxx17__normal_iteratorIPSt10shared_ptrIN3ast15TypeDeclarationEESt6vectorIS4_SaIS4_EEEC2ERKS5_ = comdat any

$_ZNK9__gnu_cxx17__normal_iteratorIPSt10shared_ptrIN3ast15TypeDeclarationEESt6vectorIS4_SaIS4_EEE4baseEv = comdat any

$_ZNKSt19__shared_ptr_accessIN3ast15TypeDeclarationELN9__gnu_cxx12_Lock_policyE2ELb0ELb0EE6_M_getEv = comdat any

$_ZNKSt12__shared_ptrIN3ast15TypeDeclarationELN9__gnu_cxx12_Lock_policyE2EE3getEv = comdat any

$_ZNSt8_Rb_treeINSt7__cxx1112basic_stringIcSt11char_traitsIcESaIcEEESt4pairIKS5_St3mapIS5_St10shared_ptrIN4mini10TypedValueEESt4lessIS5_ESaIS6_IS7_SC_EEEESt10_Select1stISI_ESE_SaISI_EE16_M_insert_uniqueISI_EES6_ISt17_Rb_tree_iteratorISI_EbEOT_ = comdat any

$_ZSt4moveIRSt4pairIKNSt7__cxx1112basic_stringIcSt11char_traitsIcESaIcEEESt3mapIS6_St10shared_ptrIN4mini10TypedValueEESt4lessIS6_ESaIS0_IS7_SC_EEEEEONSt16remove_referenceIT_E4typeEOSL_ = comdat any

$_ZNSt8_Rb_treeINSt7__cxx1112basic_stringIcSt11char_traitsIcESaIcEEESt4pairIKS5_St3mapIS5_St10shared_ptrIN4mini10TypedValueEESt4lessIS5_ESaIS6_IS7_SC_EEEESt10_Select1stISI_ESE_SaISI_EE24_M_get_insert_unique_posERS7_ = comdat any

$_ZNKSt10_Select1stISt4pairIKNSt7__cxx1112basic_stringIcSt11char_traitsIcESaIcEEESt3mapIS6_St10shared_ptrIN4mini10TypedValueEESt4lessIS6_ESaIS0_IS7_SC_EEEEEclERSI_ = comdat any

$_ZNSt8_Rb_treeINSt7__cxx1112basic_stringIcSt11char_traitsIcESaIcEEESt4pairIKS5_St3mapIS5_St10shared_ptrIN4mini10TypedValueEESt4lessIS5_ESaIS6_IS7_SC_EEEESt10_Select1stISI_ESE_SaISI_EE11_Alloc_nodeC2ERSM_ = comdat any

$_ZNSt8_Rb_treeINSt7__cxx1112basic_stringIcSt11char_traitsIcESaIcEEESt4pairIKS5_St3mapIS5_St10shared_ptrIN4mini10TypedValueEESt4lessIS5_ESaIS6_IS7_SC_EEEESt10_Select1stISI_ESE_SaISI_EE10_M_insert_ISI_NSM_11_Alloc_nodeEEESt17_Rb_tree_iteratorISI_EPSt18_Rb_tree_node_baseSS_OT_RT0_ = comdat any

$_ZSt7forwardISt4pairIKNSt7__cxx1112basic_stringIcSt11char_traitsIcESaIcEEESt3mapIS6_St10shared_ptrIN4mini10TypedValueEESt4lessIS6_ESaIS0_IS7_SC_EEEEEOT_RNSt16remove_referenceISJ_E4typeE = comdat any

$_ZNSt4pairISt17_Rb_tree_iteratorIS_IKNSt7__cxx1112basic_stringIcSt11char_traitsIcESaIcEEESt3mapIS6_St10shared_ptrIN4mini10TypedValueEESt4lessIS6_ESaIS_IS7_SC_EEEEEbEC2ISJ_bLb1EEEOT_OT0_ = comdat any

$_ZNSt8_Rb_treeINSt7__cxx1112basic_stringIcSt11char_traitsIcESaIcEEESt4pairIKS5_St3mapIS5_St10shared_ptrIN4mini10TypedValueEESt4lessIS5_ESaIS6_IS7_SC_EEEESt10_Select1stISI_ESE_SaISI_EE5beginEv = comdat any

$_ZNSt4pairIPSt18_Rb_tree_node_baseS1_EC2IRPSt13_Rb_tree_nodeIS_IKNSt7__cxx1112basic_stringIcSt11char_traitsIcESaIcEEESt3mapISA_St10shared_ptrIN4mini10TypedValueEESt4lessISA_ESaIS_ISB_SG_EEEEERS1_Lb1EEEOT_OT0_ = comdat any

$_ZNSt17_Rb_tree_iteratorISt4pairIKNSt7__cxx1112basic_stringIcSt11char_traitsIcESaIcEEESt3mapIS6_St10shared_ptrIN4mini10TypedValueEESt4lessIS6_ESaIS0_IS7_SC_EEEEEmmEv = comdat any

$_ZSt7forwardIRPSt13_Rb_tree_nodeISt4pairIKNSt7__cxx1112basic_stringIcSt11char_traitsIcESaIcEEESt3mapIS7_St10shared_ptrIN4mini10TypedValueEESt4lessIS7_ESaIS1_IS8_SD_EEEEEEOT_RNSt16remove_referenceISN_E4typeE = comdat any

$_ZNKSt8_Rb_treeINSt7__cxx1112basic_stringIcSt11char_traitsIcESaIcEEESt4pairIKS5_St3mapIS5_St10shared_ptrIN4mini10TypedValueEESt4lessIS5_ESaIS6_IS7_SC_EEEESt10_Select1stISI_ESE_SaISI_EE11_Alloc_nodeclISI_EEPSt13_Rb_tree_nodeISI_EOT_ = comdat any

$_ZNSt8_Rb_treeINSt7__cxx1112basic_stringIcSt11char_traitsIcESaIcEEESt4pairIKS5_St3mapIS5_St10shared_ptrIN4mini10TypedValueEESt4lessIS5_ESaIS6_IS7_SC_EEEESt10_Select1stISI_ESE_SaISI_EE14_M_create_nodeIJSI_EEEPSt13_Rb_tree_nodeISI_EDpOT_ = comdat any

$_ZNSt8_Rb_treeINSt7__cxx1112basic_stringIcSt11char_traitsIcESaIcEEESt4pairIKS5_St3mapIS5_St10shared_ptrIN4mini10TypedValueEESt4lessIS5_ESaIS6_IS7_SC_EEEESt10_Select1stISI_ESE_SaISI_EE11_M_get_nodeEv = comdat any

$_ZNSt8_Rb_treeINSt7__cxx1112basic_stringIcSt11char_traitsIcESaIcEEESt4pairIKS5_St3mapIS5_St10shared_ptrIN4mini10TypedValueEESt4lessIS5_ESaIS6_IS7_SC_EEEESt10_Select1stISI_ESE_SaISI_EE17_M_construct_nodeIJSI_EEEvPSt13_Rb_tree_nodeISI_EDpOT_ = comdat any

$_ZNSt16allocator_traitsISaISt13_Rb_tree_nodeISt4pairIKNSt7__cxx1112basic_stringIcSt11char_traitsIcESaIcEEESt3mapIS7_St10shared_ptrIN4mini10TypedValueEESt4lessIS7_ESaIS1_IS8_SD_EEEEEEE8allocateERSL_m = comdat any

$_ZN9__gnu_cxx13new_allocatorISt13_Rb_tree_nodeISt4pairIKNSt7__cxx1112basic_stringIcSt11char_traitsIcESaIcEEESt3mapIS8_St10shared_ptrIN4mini10TypedValueEESt4lessIS8_ESaIS2_IS9_SE_EEEEEE8allocateEmPKv = comdat any

$_ZNK9__gnu_cxx13new_allocatorISt13_Rb_tree_nodeISt4pairIKNSt7__cxx1112basic_stringIcSt11char_traitsIcESaIcEEESt3mapIS8_St10shared_ptrIN4mini10TypedValueEESt4lessIS8_ESaIS2_IS9_SE_EEEEEE8max_sizeEv = comdat any

$_ZNSt16allocator_traitsISaISt13_Rb_tree_nodeISt4pairIKNSt7__cxx1112basic_stringIcSt11char_traitsIcESaIcEEESt3mapIS7_St10shared_ptrIN4mini10TypedValueEESt4lessIS7_ESaIS1_IS8_SD_EEEEEEE9constructISJ_JSJ_EEEvRSL_PT_DpOT0_ = comdat any

$_ZN9__gnu_cxx13new_allocatorISt13_Rb_tree_nodeISt4pairIKNSt7__cxx1112basic_stringIcSt11char_traitsIcESaIcEEESt3mapIS8_St10shared_ptrIN4mini10TypedValueEESt4lessIS8_ESaIS2_IS9_SE_EEEEEE9constructISK_JSK_EEEvPT_DpOT0_ = comdat any

$_ZNSt4pairIKNSt7__cxx1112basic_stringIcSt11char_traitsIcESaIcEEESt3mapIS5_St10shared_ptrIN4mini10TypedValueEESt4lessIS5_ESaIS_IS6_SB_EEEEC2EOSH_ = comdat any

$_ZSt7forwardISt17_Rb_tree_iteratorISt4pairIKNSt7__cxx1112basic_stringIcSt11char_traitsIcESaIcEEESt3mapIS7_St10shared_ptrIN4mini10TypedValueEESt4lessIS7_ESaIS1_IS8_SD_EEEEEEOT_RNSt16remove_referenceISL_E4typeE = comdat any

$_ZN8antlrcpp3Any2asISt3mapINSt7__cxx1112basic_stringIcSt11char_traitsIcESaIcEEESt10shared_ptrIN4mini10TypedValueEESt4lessIS8_ESaISt4pairIKS8_SC_EEEEERNSt5decayIT_E4typeEv = comdat any

$_ZNK8antlrcpp3Any10getDerivedISt3mapINSt7__cxx1112basic_stringIcSt11char_traitsIcESaIcEEESt10shared_ptrIN4mini10TypedValueEESt4lessIS8_ESaISt4pairIKS8_SC_EEEEEPNS0_7DerivedINSt5decayIT_E4typeEEEb = comdat any

$_ZN9__gnu_cxx17__normal_iteratorIPSt10shared_ptrIN3ast8FunctionEESt6vectorIS4_SaIS4_EEEC2ERKS5_ = comdat any

$_ZNK9__gnu_cxx17__normal_iteratorIPSt10shared_ptrIN3ast8FunctionEESt6vectorIS4_SaIS4_EEE4baseEv = comdat any

$_ZNSt8_Rb_treeINSt7__cxx1112basic_stringIcSt11char_traitsIcESaIcEEESt4pairIKS5_St10shared_ptrIN3ast8FunctionEEESt10_Select1stISC_ESt4lessIS5_ESaISC_EE16_M_insert_uniqueISC_EES6_ISt17_Rb_tree_iteratorISC_EbEOT_ = comdat any

$_ZSt4moveIRSt4pairIKNSt7__cxx1112basic_stringIcSt11char_traitsIcESaIcEEESt10shared_ptrIN3ast8FunctionEEEEONSt16remove_referenceIT_E4typeEOSF_ = comdat any

$_ZNSt8_Rb_treeINSt7__cxx1112basic_stringIcSt11char_traitsIcESaIcEEESt4pairIKS5_St10shared_ptrIN3ast8FunctionEEESt10_Select1stISC_ESt4lessIS5_ESaISC_EE24_M_get_insert_unique_posERS7_ = comdat any

$_ZNKSt10_Select1stISt4pairIKNSt7__cxx1112basic_stringIcSt11char_traitsIcESaIcEEESt10shared_ptrIN3ast8FunctionEEEEclERSC_ = comdat any

$_ZNSt8_Rb_treeINSt7__cxx1112basic_stringIcSt11char_traitsIcESaIcEEESt4pairIKS5_St10shared_ptrIN3ast8FunctionEEESt10_Select1stISC_ESt4lessIS5_ESaISC_EE11_Alloc_nodeC2ERSI_ = comdat any

$_ZNSt8_Rb_treeINSt7__cxx1112basic_stringIcSt11char_traitsIcESaIcEEESt4pairIKS5_St10shared_ptrIN3ast8FunctionEEESt10_Select1stISC_ESt4lessIS5_ESaISC_EE10_M_insert_ISC_NSI_11_Alloc_nodeEEESt17_Rb_tree_iteratorISC_EPSt18_Rb_tree_node_baseSO_OT_RT0_ = comdat any

$_ZSt7forwardISt4pairIKNSt7__cxx1112basic_stringIcSt11char_traitsIcESaIcEEESt10shared_ptrIN3ast8FunctionEEEEOT_RNSt16remove_referenceISD_E4typeE = comdat any

$_ZNSt4pairISt17_Rb_tree_iteratorIS_IKNSt7__cxx1112basic_stringIcSt11char_traitsIcESaIcEEESt10shared_ptrIN3ast8FunctionEEEEbEC2ISD_bLb1EEEOT_OT0_ = comdat any

$_ZNSt8_Rb_treeINSt7__cxx1112basic_stringIcSt11char_traitsIcESaIcEEESt4pairIKS5_St10shared_ptrIN3ast8FunctionEEESt10_Select1stISC_ESt4lessIS5_ESaISC_EE5beginEv = comdat any

$_ZNSt4pairIPSt18_Rb_tree_node_baseS1_EC2IRPSt13_Rb_tree_nodeIS_IKNSt7__cxx1112basic_stringIcSt11char_traitsIcESaIcEEESt10shared_ptrIN3ast8FunctionEEEERS1_Lb1EEEOT_OT0_ = comdat any

$_ZNSt17_Rb_tree_iteratorISt4pairIKNSt7__cxx1112basic_stringIcSt11char_traitsIcESaIcEEESt10shared_ptrIN3ast8FunctionEEEEmmEv = comdat any

$_ZSt7forwardIRPSt13_Rb_tree_nodeISt4pairIKNSt7__cxx1112basic_stringIcSt11char_traitsIcESaIcEEESt10shared_ptrIN3ast8FunctionEEEEEOT_RNSt16remove_referenceISH_E4typeE = comdat any

$_ZNKSt8_Rb_treeINSt7__cxx1112basic_stringIcSt11char_traitsIcESaIcEEESt4pairIKS5_St10shared_ptrIN3ast8FunctionEEESt10_Select1stISC_ESt4lessIS5_ESaISC_EE11_Alloc_nodeclISC_EEPSt13_Rb_tree_nodeISC_EOT_ = comdat any

$_ZNSt8_Rb_treeINSt7__cxx1112basic_stringIcSt11char_traitsIcESaIcEEESt4pairIKS5_St10shared_ptrIN3ast8FunctionEEESt10_Select1stISC_ESt4lessIS5_ESaISC_EE14_M_create_nodeIJSC_EEEPSt13_Rb_tree_nodeISC_EDpOT_ = comdat any

$_ZNSt8_Rb_treeINSt7__cxx1112basic_stringIcSt11char_traitsIcESaIcEEESt4pairIKS5_St10shared_ptrIN3ast8FunctionEEESt10_Select1stISC_ESt4lessIS5_ESaISC_EE11_M_get_nodeEv = comdat any

$_ZNSt8_Rb_treeINSt7__cxx1112basic_stringIcSt11char_traitsIcESaIcEEESt4pairIKS5_St10shared_ptrIN3ast8FunctionEEESt10_Select1stISC_ESt4lessIS5_ESaISC_EE17_M_construct_nodeIJSC_EEEvPSt13_Rb_tree_nodeISC_EDpOT_ = comdat any

$_ZNSt16allocator_traitsISaISt13_Rb_tree_nodeISt4pairIKNSt7__cxx1112basic_stringIcSt11char_traitsIcESaIcEEESt10shared_ptrIN3ast8FunctionEEEEEE8allocateERSF_m = comdat any

$_ZN9__gnu_cxx13new_allocatorISt13_Rb_tree_nodeISt4pairIKNSt7__cxx1112basic_stringIcSt11char_traitsIcESaIcEEESt10shared_ptrIN3ast8FunctionEEEEE8allocateEmPKv = comdat any

$_ZNK9__gnu_cxx13new_allocatorISt13_Rb_tree_nodeISt4pairIKNSt7__cxx1112basic_stringIcSt11char_traitsIcESaIcEEESt10shared_ptrIN3ast8FunctionEEEEE8max_sizeEv = comdat any

$_ZNSt16allocator_traitsISaISt13_Rb_tree_nodeISt4pairIKNSt7__cxx1112basic_stringIcSt11char_traitsIcESaIcEEESt10shared_ptrIN3ast8FunctionEEEEEE9constructISD_JSD_EEEvRSF_PT_DpOT0_ = comdat any

$_ZN9__gnu_cxx13new_allocatorISt13_Rb_tree_nodeISt4pairIKNSt7__cxx1112basic_stringIcSt11char_traitsIcESaIcEEESt10shared_ptrIN3ast8FunctionEEEEE9constructISE_JSE_EEEvPT_DpOT0_ = comdat any

$_ZNSt4pairIKNSt7__cxx1112basic_stringIcSt11char_traitsIcESaIcEEESt10shared_ptrIN3ast8FunctionEEEC2EOSB_ = comdat any

$_ZNSt10shared_ptrIN3ast8FunctionEEC2EOS2_ = comdat any

$_ZSt4moveIRSt10shared_ptrIN3ast8FunctionEEEONSt16remove_referenceIT_E4typeEOS6_ = comdat any

$_ZNSt12__shared_ptrIN3ast8FunctionELN9__gnu_cxx12_Lock_policyE2EEC2EOS4_ = comdat any

$_ZSt7forwardISt17_Rb_tree_iteratorISt4pairIKNSt7__cxx1112basic_stringIcSt11char_traitsIcESaIcEEESt10shared_ptrIN3ast8FunctionEEEEEOT_RNSt16remove_referenceISF_E4typeE = comdat any

$_ZNKSt12__shared_ptrIN3ast8FunctionELN9__gnu_cxx12_Lock_policyE2EEcvbEv = comdat any

$_ZN8antlrcpp3Any7DerivedISt3mapINSt7__cxx1112basic_stringIcSt11char_traitsIcESaIcEEESt10shared_ptrIN4mini10TypedValueEESt4lessIS8_ESaISt4pairIKS8_SC_EEEEC2ISJ_EEOT_ = comdat any

$_ZN8antlrcpp3Any7DerivedISt3mapINSt7__cxx1112basic_stringIcSt11char_traitsIcESaIcEEESt10shared_ptrIN4mini10TypedValueEESt4lessIS8_ESaISt4pairIKS8_SC_EEEED2Ev = comdat any

$_ZN8antlrcpp3Any7DerivedISt3mapINSt7__cxx1112basic_stringIcSt11char_traitsIcESaIcEEESt10shared_ptrIN4mini10TypedValueEESt4lessIS8_ESaISt4pairIKS8_SC_EEEED0Ev = comdat any

$_ZNK8antlrcpp3Any7DerivedISt3mapINSt7__cxx1112basic_stringIcSt11char_traitsIcESaIcEEESt10shared_ptrIN4mini10TypedValueEESt4lessIS8_ESaISt4pairIKS8_SC_EEEE5cloneEv = comdat any

$_ZNK8antlrcpp3Any7DerivedISt3mapINSt7__cxx1112basic_stringIcSt11char_traitsIcESaIcEEESt10shared_ptrIN4mini10TypedValueEESt4lessIS8_ESaISt4pairIKS8_SC_EEEE5cloneILi0ELi0EEEPNS0_4BaseEv = comdat any

$_ZNKSt19__shared_ptr_accessIN3ast7ProgramELN9__gnu_cxx12_Lock_policyE2ELb0ELb0EE6_M_getEv = comdat any

$_ZTSN8antlrcpp3Any4BaseE = comdat any

$_ZTIN8antlrcpp3Any4BaseE = comdat any

$_ZTSN8antlrcpp3Any7DerivedIPSt3mapINSt7__cxx1112basic_stringIcSt11char_traitsIcESaIcEEESt10shared_ptrIN4mini10TypedValueEESt4lessIS8_ESaISt4pairIKS8_SC_EEEEE = comdat any

$_ZTIN8antlrcpp3Any7DerivedIPSt3mapINSt7__cxx1112basic_stringIcSt11char_traitsIcESaIcEEESt10shared_ptrIN4mini10TypedValueEESt4lessIS8_ESaISt4pairIKS8_SC_EEEEE = comdat any

$_ZTSN8antlrcpp3Any7DerivedIiEE = comdat any

$_ZTIN8antlrcpp3Any7DerivedIiEE = comdat any

$_ZTSN8antlrcpp3Any7DerivedIbEE = comdat any

$_ZTIN8antlrcpp3Any7DerivedIbEE = comdat any

$_ZTSN8antlrcpp3Any7DerivedISt10shared_ptrIN4mini10TypedValueEEEE = comdat any

$_ZTIN8antlrcpp3Any7DerivedISt10shared_ptrIN4mini10TypedValueEEEE = comdat any

$_ZTVN8antlrcpp3Any7DerivedIbEE = comdat any

$_ZTVN8antlrcpp3Any4BaseE = comdat any

$_ZTVN8antlrcpp3Any7DerivedIN4mini10TypedValueEEE = comdat any

$_ZTSN8antlrcpp3Any7DerivedIN4mini10TypedValueEEE = comdat any

$_ZTIN8antlrcpp3Any7DerivedIN4mini10TypedValueEEE = comdat any

$_ZTVN8antlrcpp3Any7DerivedIiEE = comdat any

$_ZTVN8antlrcpp3Any7DerivedINSt7__cxx1112basic_stringIcSt11char_traitsIcESaIcEEEEE = comdat any

$_ZTSN8antlrcpp3Any7DerivedINSt7__cxx1112basic_stringIcSt11char_traitsIcESaIcEEEEE = comdat any

$_ZTIN8antlrcpp3Any7DerivedINSt7__cxx1112basic_stringIcSt11char_traitsIcESaIcEEEEE = comdat any

$_ZTSSt19_Sp_make_shared_tag = comdat any

$_ZTISt19_Sp_make_shared_tag = comdat any

$_ZTVSt23_Sp_counted_ptr_inplaceIN4mini10TypedValueESaIS1_ELN9__gnu_cxx12_Lock_policyE2EE = comdat any

$_ZTSSt23_Sp_counted_ptr_inplaceIN4mini10TypedValueESaIS1_ELN9__gnu_cxx12_Lock_policyE2EE = comdat any

$_ZTSSt16_Sp_counted_baseILN9__gnu_cxx12_Lock_policyE2EE = comdat any

$_ZTSSt11_Mutex_baseILN9__gnu_cxx12_Lock_policyE2EE = comdat any

$_ZTISt11_Mutex_baseILN9__gnu_cxx12_Lock_policyE2EE = comdat any

$_ZTISt16_Sp_counted_baseILN9__gnu_cxx12_Lock_policyE2EE = comdat any

$_ZTISt23_Sp_counted_ptr_inplaceIN4mini10TypedValueESaIS1_ELN9__gnu_cxx12_Lock_policyE2EE = comdat any

$_ZTVSt16_Sp_counted_baseILN9__gnu_cxx12_Lock_policyE2EE = comdat any

$_ZTVN8antlrcpp3Any7DerivedISt10shared_ptrIN4mini10TypedValueEEEE = comdat any

$_ZTVN8antlrcpp3Any7DerivedIPSt3mapINSt7__cxx1112basic_stringIcSt11char_traitsIcESaIcEEESt10shared_ptrIN4mini10TypedValueEESt4lessIS8_ESaISt4pairIKS8_SC_EEEEE = comdat any

$_ZTSN8antlrcpp3Any7DerivedISt3mapINSt7__cxx1112basic_stringIcSt11char_traitsIcESaIcEEESt10shared_ptrIN4mini10TypedValueEESt4lessIS8_ESaISt4pairIKS8_SC_EEEEE = comdat any

$_ZTIN8antlrcpp3Any7DerivedISt3mapINSt7__cxx1112basic_stringIcSt11char_traitsIcESaIcEEESt10shared_ptrIN4mini10TypedValueEESt4lessIS8_ESaISt4pairIKS8_SC_EEEEE = comdat any

$_ZTVN8antlrcpp3Any7DerivedISt3mapINSt7__cxx1112basic_stringIcSt11char_traitsIcESaIcEEESt10shared_ptrIN4mini10TypedValueEESt4lessIS8_ESaISt4pairIKS8_SC_EEEEE = comdat any

@_ZStL8__ioinit = internal global %"class.std::ios_base::Init" zeroinitializer, align 1
@__dso_handle = external hidden global i8
@.str = private unnamed_addr constant [5 x i8] c"true\00", align 1
@.str.1 = private unnamed_addr constant [6 x i8] c"false\00", align 1
@.str.2 = private unnamed_addr constant [5 x i8] c"void\00", align 1
@.str.3 = private unnamed_addr constant [5 x i8] c"null\00", align 1
@_ZTIN3ast14TrueExpressionE = external dso_local constant i8*
@_ZTIN3ast15FalseExpressionE = external dso_local constant i8*
@.str.4 = private unnamed_addr constant [49 x i8] c"error: cannot extract bool state of non-int/bool\00", align 1
@_ZTISt13runtime_error = external dso_local constant i8*
@.str.5 = private unnamed_addr constant [44 x i8] c"arg and param list were not the same length\00", align 1
@.str.6 = private unnamed_addr constant [37 x i8] c"incorrect type for arg-param binding\00", align 1
@_ZTVN4mini15MiniInterpreterE = dso_local unnamed_addr constant { [33 x i8*] } { [33 x i8*] [i8* null, i8* bitcast ({ i8*, i8*, i8* }* @_ZTIN4mini15MiniInterpreterE to i8*), i8* bitcast (void (%"struct.antlrcpp::Any"*, %"class.mini::MiniInterpreter"*, %"class.ast::AssignmentStatement"*)* @_ZN4mini15MiniInterpreter5visitEPN3ast19AssignmentStatementE to i8*), i8* bitcast (void (%"struct.antlrcpp::Any"*, %"class.mini::MiniInterpreter"*, %"class.ast::BinaryExpression"*)* @_ZN4mini15MiniInterpreter5visitEPN3ast16BinaryExpressionE to i8*), i8* bitcast (void (%"struct.antlrcpp::Any"*, %"class.mini::MiniInterpreter"*, %"class.ast::BlockStatement"*)* @_ZN4mini15MiniInterpreter5visitEPN3ast14BlockStatementE to i8*), i8* bitcast (void (%"struct.antlrcpp::Any"*, %"class.mini::MiniInterpreter"*, %"class.ast::BoolType"*)* @_ZN4mini15MiniInterpreter5visitEPN3ast8BoolTypeE to i8*), i8* bitcast (void (%"struct.antlrcpp::Any"*, %"class.mini::MiniInterpreter"*, %"class.ast::ConditionalStatement"*)* @_ZN4mini15MiniInterpreter5visitEPN3ast20ConditionalStatementE to i8*), i8* bitcast (void (%"struct.antlrcpp::Any"*, %"class.mini::MiniInterpreter"*, %"class.ast::Declaration"*)* @_ZN4mini15MiniInterpreter5visitEPN3ast11DeclarationE to i8*), i8* bitcast (void (%"struct.antlrcpp::Any"*, %"class.mini::MiniInterpreter"*, %"class.ast::DeleteStatement"*)* @_ZN4mini15MiniInterpreter5visitEPN3ast15DeleteStatementE to i8*), i8* bitcast (void (%"struct.antlrcpp::Any"*, %"class.mini::MiniInterpreter"*, %"class.ast::DotExpression"*)* @_ZN4mini15MiniInterpreter5visitEPN3ast13DotExpressionE to i8*), i8* bitcast (void (%"struct.antlrcpp::Any"*, %"class.mini::MiniInterpreter"*, %"class.ast::FalseExpression"*)* @_ZN4mini15MiniInterpreter5visitEPN3ast15FalseExpressionE to i8*), i8* bitcast (void (%"struct.antlrcpp::Any"*, %"class.mini::MiniInterpreter"*, %"class.ast::Function"*)* @_ZN4mini15MiniInterpreter5visitEPN3ast8FunctionE to i8*), i8* bitcast (void (%"struct.antlrcpp::Any"*, %"class.mini::MiniInterpreter"*, %"class.ast::IdentifierExpression"*)* @_ZN4mini15MiniInterpreter5visitEPN3ast20IdentifierExpressionE to i8*), i8* bitcast (void (%"struct.antlrcpp::Any"*, %"class.mini::MiniInterpreter"*, %"class.ast::IntegerExpression"*)* @_ZN4mini15MiniInterpreter5visitEPN3ast17IntegerExpressionE to i8*), i8* bitcast (void (%"struct.antlrcpp::Any"*, %"class.mini::MiniInterpreter"*, %"class.ast::IntType"*)* @_ZN4mini15MiniInterpreter5visitEPN3ast7IntTypeE to i8*), i8* bitcast (void (%"struct.antlrcpp::Any"*, %"class.mini::MiniInterpreter"*, %"class.ast::InvocationExpression"*)* @_ZN4mini15MiniInterpreter5visitEPN3ast20InvocationExpressionE to i8*), i8* bitcast (void (%"struct.antlrcpp::Any"*, %"class.mini::MiniInterpreter"*, %"class.ast::InvocationStatement"*)* @_ZN4mini15MiniInterpreter5visitEPN3ast19InvocationStatementE to i8*), i8* bitcast (void (%"struct.antlrcpp::Any"*, %"class.mini::MiniInterpreter"*, %"class.ast::LvalueDot"*)* @_ZN4mini15MiniInterpreter5visitEPN3ast9LvalueDotE to i8*), i8* bitcast (void (%"struct.antlrcpp::Any"*, %"class.mini::MiniInterpreter"*, %"class.ast::LvalueId"*)* @_ZN4mini15MiniInterpreter5visitEPN3ast8LvalueIdE to i8*), i8* bitcast (void (%"struct.antlrcpp::Any"*, %"class.mini::MiniInterpreter"*, %"class.ast::NewExpression"*)* @_ZN4mini15MiniInterpreter5visitEPN3ast13NewExpressionE to i8*), i8* bitcast (void (%"struct.antlrcpp::Any"*, %"class.mini::MiniInterpreter"*, %"class.ast::NullExpression"*)* @_ZN4mini15MiniInterpreter5visitEPN3ast14NullExpressionE to i8*), i8* bitcast (void (%"struct.antlrcpp::Any"*, %"class.mini::MiniInterpreter"*, %"class.ast::PrintLnStatement"*)* @_ZN4mini15MiniInterpreter5visitEPN3ast16PrintLnStatementE to i8*), i8* bitcast (void (%"struct.antlrcpp::Any"*, %"class.mini::MiniInterpreter"*, %"class.ast::PrintStatement"*)* @_ZN4mini15MiniInterpreter5visitEPN3ast14PrintStatementE to i8*), i8* bitcast (void (%"struct.antlrcpp::Any"*, %"class.mini::MiniInterpreter"*, %"class.ast::Program"*)* @_ZN4mini15MiniInterpreter5visitEPN3ast7ProgramE to i8*), i8* bitcast (void (%"struct.antlrcpp::Any"*, %"class.mini::MiniInterpreter"*, %"class.ast::ReadExpression"*)* @_ZN4mini15MiniInterpreter5visitEPN3ast14ReadExpressionE to i8*), i8* bitcast (void (%"struct.antlrcpp::Any"*, %"class.mini::MiniInterpreter"*, %"class.ast::ReturnEmptyStatement"*)* @_ZN4mini15MiniInterpreter5visitEPN3ast20ReturnEmptyStatementE to i8*), i8* bitcast (void (%"struct.antlrcpp::Any"*, %"class.mini::MiniInterpreter"*, %"class.ast::ReturnStatement"*)* @_ZN4mini15MiniInterpreter5visitEPN3ast15ReturnStatementE to i8*), i8* bitcast (void (%"struct.antlrcpp::Any"*, %"class.mini::MiniInterpreter"*, %"class.ast::StructType"*)* @_ZN4mini15MiniInterpreter5visitEPN3ast10StructTypeE to i8*), i8* bitcast (void (%"struct.antlrcpp::Any"*, %"class.mini::MiniInterpreter"*, %"class.ast::TrueExpression"*)* @_ZN4mini15MiniInterpreter5visitEPN3ast14TrueExpressionE to i8*), i8* bitcast (void (%"struct.antlrcpp::Any"*, %"class.mini::MiniInterpreter"*, %"class.ast::TypeDeclaration"*)* @_ZN4mini15MiniInterpreter5visitEPN3ast15TypeDeclarationE to i8*), i8* bitcast (void (%"struct.antlrcpp::Any"*, %"class.mini::MiniInterpreter"*, %"class.ast::UnaryExpression"*)* @_ZN4mini15MiniInterpreter5visitEPN3ast15UnaryExpressionE to i8*), i8* bitcast (void (%"struct.antlrcpp::Any"*, %"class.mini::MiniInterpreter"*, %"class.ast::VoidType"*)* @_ZN4mini15MiniInterpreter5visitEPN3ast8VoidTypeE to i8*), i8* bitcast (void (%"struct.antlrcpp::Any"*, %"class.mini::MiniInterpreter"*, %"class.ast::WhileStatement"*)* @_ZN4mini15MiniInterpreter5visitEPN3ast14WhileStatementE to i8*)] }, align 8
@_ZSt4cerr = external dso_local global %"class.std::basic_ostream", align 8
@.str.7 = private unnamed_addr constant [53 x i8] c"error: cannot instantiate a variable with void type\0A\00", align 1
@.str.8 = private unnamed_addr constant [36 x i8] c": invalid struct for dot expression\00", align 1
@.str.9 = private unnamed_addr constant [30 x i8] c": null used in dot expression\00", align 1
@.str.10 = private unnamed_addr constant [34 x i8] c": invalid field in dot expression\00", align 1
@.str.11 = private unnamed_addr constant [29 x i8] c": call to undefined function\00", align 1
@.str.12 = private unnamed_addr constant [36 x i8] c": invalid lvalue for dot expression\00", align 1
@.str.13 = private unnamed_addr constant [33 x i8] c": null lvalue for dot expression\00", align 1
@.str.14 = private unnamed_addr constant [39 x i8] c": new expression of nonexistent struct\00", align 1
@_ZSt4cout = external dso_local global %"class.std::basic_ostream", align 8
@.str.15 = private unnamed_addr constant [70 x i8] c"error: interpreter called on different program than initialized with\0A\00", align 1
@.str.16 = private unnamed_addr constant [5 x i8] c"main\00", align 1
@.str.17 = private unnamed_addr constant [36 x i8] c"error: no main function in program\0A\00", align 1
@.str.18 = private unnamed_addr constant [36 x i8] c"error: main did not return a value\0A\00", align 1
@.str.19 = private unnamed_addr constant [35 x i8] c"error: main did not return an int\0A\00", align 1
@_ZSt3cin = external dso_local global %"class.std::basic_istream", align 8
@_ZTVN10__cxxabiv120__si_class_type_infoE = external dso_local global i8*
@_ZTSN4mini15MiniInterpreterE = dso_local constant [25 x i8] c"N4mini15MiniInterpreterE\00", align 1
@_ZTIN3ast10ASTVisitorE = external dso_local constant i8*
@_ZTIN4mini15MiniInterpreterE = dso_local constant { i8*, i8*, i8* } { i8* bitcast (i8** getelementptr inbounds (i8*, i8** @_ZTVN10__cxxabiv120__si_class_type_infoE, i64 2) to i8*), i8* getelementptr inbounds ([25 x i8], [25 x i8]* @_ZTSN4mini15MiniInterpreterE, i32 0, i32 0), i8* bitcast (i8** @_ZTIN3ast10ASTVisitorE to i8*) }, align 8
@_ZTVN8antlrcpp3AnyE = external dso_local unnamed_addr constant { [5 x i8*] }, align 8
@.str.20 = private unnamed_addr constant [3 x i8] c"%d\00", align 1
@.str.21 = private unnamed_addr constant [42 x i8] c"basic_string::_M_construct null not valid\00", align 1
@_ZZL18__gthread_active_pvE20__gthread_active_ptr = internal constant i8* bitcast (i32 (i32*, void (i8*)*)* @__pthread_key_create to i8*), align 8
@_ZTVN3ast10ASTVisitorE = external dso_local unnamed_addr constant { [33 x i8*] }, align 8
@_ZTVN10__cxxabiv117__class_type_infoE = external dso_local global i8*
@_ZTSN8antlrcpp3Any4BaseE = linkonce_odr dso_local constant [21 x i8] c"N8antlrcpp3Any4BaseE\00", comdat, align 1
@_ZTIN8antlrcpp3Any4BaseE = linkonce_odr dso_local constant { i8*, i8* } { i8* bitcast (i8** getelementptr inbounds (i8*, i8** @_ZTVN10__cxxabiv117__class_type_infoE, i64 2) to i8*), i8* getelementptr inbounds ([21 x i8], [21 x i8]* @_ZTSN8antlrcpp3Any4BaseE, i32 0, i32 0) }, comdat, align 8
@_ZTSN8antlrcpp3Any7DerivedIPSt3mapINSt7__cxx1112basic_stringIcSt11char_traitsIcESaIcEEESt10shared_ptrIN4mini10TypedValueEESt4lessIS8_ESaISt4pairIKS8_SC_EEEEE = linkonce_odr dso_local constant [154 x i8] c"N8antlrcpp3Any7DerivedIPSt3mapINSt7__cxx1112basic_stringIcSt11char_traitsIcESaIcEEESt10shared_ptrIN4mini10TypedValueEESt4lessIS8_ESaISt4pairIKS8_SC_EEEEE\00", comdat, align 1
@_ZTIN8antlrcpp3Any7DerivedIPSt3mapINSt7__cxx1112basic_stringIcSt11char_traitsIcESaIcEEESt10shared_ptrIN4mini10TypedValueEESt4lessIS8_ESaISt4pairIKS8_SC_EEEEE = linkonce_odr dso_local constant { i8*, i8*, i8* } { i8* bitcast (i8** getelementptr inbounds (i8*, i8** @_ZTVN10__cxxabiv120__si_class_type_infoE, i64 2) to i8*), i8* getelementptr inbounds ([154 x i8], [154 x i8]* @_ZTSN8antlrcpp3Any7DerivedIPSt3mapINSt7__cxx1112basic_stringIcSt11char_traitsIcESaIcEEESt10shared_ptrIN4mini10TypedValueEESt4lessIS8_ESaISt4pairIKS8_SC_EEEEE, i32 0, i32 0), i8* bitcast ({ i8*, i8* }* @_ZTIN8antlrcpp3Any4BaseE to i8*) }, comdat, align 8
@_ZTISt8bad_cast = external dso_local constant i8*
@_ZTVSt8bad_cast = external dso_local unnamed_addr constant { [5 x i8*] }, align 8
@_ZTVSt9exception = external dso_local unnamed_addr constant { [5 x i8*] }, align 8
@_ZTSN8antlrcpp3Any7DerivedIiEE = linkonce_odr dso_local constant [27 x i8] c"N8antlrcpp3Any7DerivedIiEE\00", comdat, align 1
@_ZTIN8antlrcpp3Any7DerivedIiEE = linkonce_odr dso_local constant { i8*, i8*, i8* } { i8* bitcast (i8** getelementptr inbounds (i8*, i8** @_ZTVN10__cxxabiv120__si_class_type_infoE, i64 2) to i8*), i8* getelementptr inbounds ([27 x i8], [27 x i8]* @_ZTSN8antlrcpp3Any7DerivedIiEE, i32 0, i32 0), i8* bitcast ({ i8*, i8* }* @_ZTIN8antlrcpp3Any4BaseE to i8*) }, comdat, align 8
@_ZTSN8antlrcpp3Any7DerivedIbEE = linkonce_odr dso_local constant [27 x i8] c"N8antlrcpp3Any7DerivedIbEE\00", comdat, align 1
@_ZTIN8antlrcpp3Any7DerivedIbEE = linkonce_odr dso_local constant { i8*, i8*, i8* } { i8* bitcast (i8** getelementptr inbounds (i8*, i8** @_ZTVN10__cxxabiv120__si_class_type_infoE, i64 2) to i8*), i8* getelementptr inbounds ([27 x i8], [27 x i8]* @_ZTSN8antlrcpp3Any7DerivedIbEE, i32 0, i32 0), i8* bitcast ({ i8*, i8* }* @_ZTIN8antlrcpp3Any4BaseE to i8*) }, comdat, align 8
@.str.22 = private unnamed_addr constant [8 x i8] c"map::at\00", align 1
@.str.23 = private unnamed_addr constant [74 x i8] c"vector::_M_range_check: __n (which is %zu) >= this->size() (which is %zu)\00", align 1
@_ZTSN8antlrcpp3Any7DerivedISt10shared_ptrIN4mini10TypedValueEEEE = linkonce_odr dso_local constant [61 x i8] c"N8antlrcpp3Any7DerivedISt10shared_ptrIN4mini10TypedValueEEEE\00", comdat, align 1
@_ZTIN8antlrcpp3Any7DerivedISt10shared_ptrIN4mini10TypedValueEEEE = linkonce_odr dso_local constant { i8*, i8*, i8* } { i8* bitcast (i8** getelementptr inbounds (i8*, i8** @_ZTVN10__cxxabiv120__si_class_type_infoE, i64 2) to i8*), i8* getelementptr inbounds ([61 x i8], [61 x i8]* @_ZTSN8antlrcpp3Any7DerivedISt10shared_ptrIN4mini10TypedValueEEEE, i32 0, i32 0), i8* bitcast ({ i8*, i8* }* @_ZTIN8antlrcpp3Any4BaseE to i8*) }, comdat, align 8
@_ZStL19piecewise_construct = internal constant %"struct.std::piecewise_construct_t" undef, align 1
@_ZTVN8antlrcpp3Any7DerivedIbEE = linkonce_odr dso_local unnamed_addr constant { [5 x i8*] } { [5 x i8*] [i8* null, i8* bitcast ({ i8*, i8*, i8* }* @_ZTIN8antlrcpp3Any7DerivedIbEE to i8*), i8* bitcast (void (%"struct.antlrcpp::Any::Derived.90"*)* @_ZN8antlrcpp3Any7DerivedIbED2Ev to i8*), i8* bitcast (void (%"struct.antlrcpp::Any::Derived.90"*)* @_ZN8antlrcpp3Any7DerivedIbED0Ev to i8*), i8* bitcast (%"struct.antlrcpp::Any::Base"* (%"struct.antlrcpp::Any::Derived.90"*)* @_ZNK8antlrcpp3Any7DerivedIbE5cloneEv to i8*)] }, comdat, align 8
@_ZTVN8antlrcpp3Any4BaseE = linkonce_odr dso_local unnamed_addr constant { [5 x i8*] } { [5 x i8*] [i8* null, i8* bitcast ({ i8*, i8* }* @_ZTIN8antlrcpp3Any4BaseE to i8*), i8* bitcast (void (%"struct.antlrcpp::Any::Base"*)* @_ZN8antlrcpp3Any4BaseD2Ev to i8*), i8* bitcast (void (%"struct.antlrcpp::Any::Base"*)* @_ZN8antlrcpp3Any4BaseD0Ev to i8*), i8* bitcast (void ()* @__cxa_pure_virtual to i8*)] }, comdat, align 8
@_ZTVN8antlrcpp3Any7DerivedIN4mini10TypedValueEEE = linkonce_odr dso_local unnamed_addr constant { [5 x i8*] } { [5 x i8*] [i8* null, i8* bitcast ({ i8*, i8*, i8* }* @_ZTIN8antlrcpp3Any7DerivedIN4mini10TypedValueEEE to i8*), i8* bitcast (void (%"struct.antlrcpp::Any::Derived.98"*)* @_ZN8antlrcpp3Any7DerivedIN4mini10TypedValueEED2Ev to i8*), i8* bitcast (void (%"struct.antlrcpp::Any::Derived.98"*)* @_ZN8antlrcpp3Any7DerivedIN4mini10TypedValueEED0Ev to i8*), i8* bitcast (%"struct.antlrcpp::Any::Base"* (%"struct.antlrcpp::Any::Derived.98"*)* @_ZNK8antlrcpp3Any7DerivedIN4mini10TypedValueEE5cloneEv to i8*)] }, comdat, align 8
@_ZTSN8antlrcpp3Any7DerivedIN4mini10TypedValueEEE = linkonce_odr dso_local constant [45 x i8] c"N8antlrcpp3Any7DerivedIN4mini10TypedValueEEE\00", comdat, align 1
@_ZTIN8antlrcpp3Any7DerivedIN4mini10TypedValueEEE = linkonce_odr dso_local constant { i8*, i8*, i8* } { i8* bitcast (i8** getelementptr inbounds (i8*, i8** @_ZTVN10__cxxabiv120__si_class_type_infoE, i64 2) to i8*), i8* getelementptr inbounds ([45 x i8], [45 x i8]* @_ZTSN8antlrcpp3Any7DerivedIN4mini10TypedValueEEE, i32 0, i32 0), i8* bitcast ({ i8*, i8* }* @_ZTIN8antlrcpp3Any4BaseE to i8*) }, comdat, align 8
@_ZTVN8antlrcpp3Any7DerivedIiEE = linkonce_odr dso_local unnamed_addr constant { [5 x i8*] } { [5 x i8*] [i8* null, i8* bitcast ({ i8*, i8*, i8* }* @_ZTIN8antlrcpp3Any7DerivedIiEE to i8*), i8* bitcast (void (%"struct.antlrcpp::Any::Derived.89"*)* @_ZN8antlrcpp3Any7DerivedIiED2Ev to i8*), i8* bitcast (void (%"struct.antlrcpp::Any::Derived.89"*)* @_ZN8antlrcpp3Any7DerivedIiED0Ev to i8*), i8* bitcast (%"struct.antlrcpp::Any::Base"* (%"struct.antlrcpp::Any::Derived.89"*)* @_ZNK8antlrcpp3Any7DerivedIiE5cloneEv to i8*)] }, comdat, align 8
@_ZTVN8antlrcpp3Any7DerivedINSt7__cxx1112basic_stringIcSt11char_traitsIcESaIcEEEEE = linkonce_odr dso_local unnamed_addr constant { [5 x i8*] } { [5 x i8*] [i8* null, i8* bitcast ({ i8*, i8*, i8* }* @_ZTIN8antlrcpp3Any7DerivedINSt7__cxx1112basic_stringIcSt11char_traitsIcESaIcEEEEE to i8*), i8* bitcast (void (%"struct.antlrcpp::Any::Derived.99"*)* @_ZN8antlrcpp3Any7DerivedINSt7__cxx1112basic_stringIcSt11char_traitsIcESaIcEEEED2Ev to i8*), i8* bitcast (void (%"struct.antlrcpp::Any::Derived.99"*)* @_ZN8antlrcpp3Any7DerivedINSt7__cxx1112basic_stringIcSt11char_traitsIcESaIcEEEED0Ev to i8*), i8* bitcast (%"struct.antlrcpp::Any::Base"* (%"struct.antlrcpp::Any::Derived.99"*)* @_ZNK8antlrcpp3Any7DerivedINSt7__cxx1112basic_stringIcSt11char_traitsIcESaIcEEEE5cloneEv to i8*)] }, comdat, align 8
@_ZTSN8antlrcpp3Any7DerivedINSt7__cxx1112basic_stringIcSt11char_traitsIcESaIcEEEEE = linkonce_odr dso_local constant [78 x i8] c"N8antlrcpp3Any7DerivedINSt7__cxx1112basic_stringIcSt11char_traitsIcESaIcEEEEE\00", comdat, align 1
@_ZTIN8antlrcpp3Any7DerivedINSt7__cxx1112basic_stringIcSt11char_traitsIcESaIcEEEEE = linkonce_odr dso_local constant { i8*, i8*, i8* } { i8* bitcast (i8** getelementptr inbounds (i8*, i8** @_ZTVN10__cxxabiv120__si_class_type_infoE, i64 2) to i8*), i8* getelementptr inbounds ([78 x i8], [78 x i8]* @_ZTSN8antlrcpp3Any7DerivedINSt7__cxx1112basic_stringIcSt11char_traitsIcESaIcEEEEE, i32 0, i32 0), i8* bitcast ({ i8*, i8* }* @_ZTIN8antlrcpp3Any4BaseE to i8*) }, comdat, align 8
@_ZTSSt19_Sp_make_shared_tag = linkonce_odr dso_local constant [24 x i8] c"St19_Sp_make_shared_tag\00", comdat, align 1
@_ZTISt19_Sp_make_shared_tag = linkonce_odr dso_local constant { i8*, i8* } { i8* bitcast (i8** getelementptr inbounds (i8*, i8** @_ZTVN10__cxxabiv117__class_type_infoE, i64 2) to i8*), i8* getelementptr inbounds ([24 x i8], [24 x i8]* @_ZTSSt19_Sp_make_shared_tag, i32 0, i32 0) }, comdat, align 8
@_ZTVSt23_Sp_counted_ptr_inplaceIN4mini10TypedValueESaIS1_ELN9__gnu_cxx12_Lock_policyE2EE = linkonce_odr dso_local unnamed_addr constant { [7 x i8*] } { [7 x i8*] [i8* null, i8* bitcast ({ i8*, i8*, i8* }* @_ZTISt23_Sp_counted_ptr_inplaceIN4mini10TypedValueESaIS1_ELN9__gnu_cxx12_Lock_policyE2EE to i8*), i8* bitcast (void (%"class.std::_Sp_counted_ptr_inplace"*)* @_ZNSt23_Sp_counted_ptr_inplaceIN4mini10TypedValueESaIS1_ELN9__gnu_cxx12_Lock_policyE2EED2Ev to i8*), i8* bitcast (void (%"class.std::_Sp_counted_ptr_inplace"*)* @_ZNSt23_Sp_counted_ptr_inplaceIN4mini10TypedValueESaIS1_ELN9__gnu_cxx12_Lock_policyE2EED0Ev to i8*), i8* bitcast (void (%"class.std::_Sp_counted_ptr_inplace"*)* @_ZNSt23_Sp_counted_ptr_inplaceIN4mini10TypedValueESaIS1_ELN9__gnu_cxx12_Lock_policyE2EE10_M_disposeEv to i8*), i8* bitcast (void (%"class.std::_Sp_counted_ptr_inplace"*)* @_ZNSt23_Sp_counted_ptr_inplaceIN4mini10TypedValueESaIS1_ELN9__gnu_cxx12_Lock_policyE2EE10_M_destroyEv to i8*), i8* bitcast (i8* (%"class.std::_Sp_counted_ptr_inplace"*, %"class.std::type_info"*)* @_ZNSt23_Sp_counted_ptr_inplaceIN4mini10TypedValueESaIS1_ELN9__gnu_cxx12_Lock_policyE2EE14_M_get_deleterERKSt9type_info to i8*)] }, comdat, align 8
@_ZTSSt23_Sp_counted_ptr_inplaceIN4mini10TypedValueESaIS1_ELN9__gnu_cxx12_Lock_policyE2EE = linkonce_odr dso_local constant [85 x i8] c"St23_Sp_counted_ptr_inplaceIN4mini10TypedValueESaIS1_ELN9__gnu_cxx12_Lock_policyE2EE\00", comdat, align 1
@_ZTSSt16_Sp_counted_baseILN9__gnu_cxx12_Lock_policyE2EE = linkonce_odr dso_local constant [52 x i8] c"St16_Sp_counted_baseILN9__gnu_cxx12_Lock_policyE2EE\00", comdat, align 1
@_ZTSSt11_Mutex_baseILN9__gnu_cxx12_Lock_policyE2EE = linkonce_odr dso_local constant [47 x i8] c"St11_Mutex_baseILN9__gnu_cxx12_Lock_policyE2EE\00", comdat, align 1
@_ZTISt11_Mutex_baseILN9__gnu_cxx12_Lock_policyE2EE = linkonce_odr dso_local constant { i8*, i8* } { i8* bitcast (i8** getelementptr inbounds (i8*, i8** @_ZTVN10__cxxabiv117__class_type_infoE, i64 2) to i8*), i8* getelementptr inbounds ([47 x i8], [47 x i8]* @_ZTSSt11_Mutex_baseILN9__gnu_cxx12_Lock_policyE2EE, i32 0, i32 0) }, comdat, align 8
@_ZTISt16_Sp_counted_baseILN9__gnu_cxx12_Lock_policyE2EE = linkonce_odr dso_local constant { i8*, i8*, i8* } { i8* bitcast (i8** getelementptr inbounds (i8*, i8** @_ZTVN10__cxxabiv120__si_class_type_infoE, i64 2) to i8*), i8* getelementptr inbounds ([52 x i8], [52 x i8]* @_ZTSSt16_Sp_counted_baseILN9__gnu_cxx12_Lock_policyE2EE, i32 0, i32 0), i8* bitcast ({ i8*, i8* }* @_ZTISt11_Mutex_baseILN9__gnu_cxx12_Lock_policyE2EE to i8*) }, comdat, align 8
@_ZTISt23_Sp_counted_ptr_inplaceIN4mini10TypedValueESaIS1_ELN9__gnu_cxx12_Lock_policyE2EE = linkonce_odr dso_local constant { i8*, i8*, i8* } { i8* bitcast (i8** getelementptr inbounds (i8*, i8** @_ZTVN10__cxxabiv120__si_class_type_infoE, i64 2) to i8*), i8* getelementptr inbounds ([85 x i8], [85 x i8]* @_ZTSSt23_Sp_counted_ptr_inplaceIN4mini10TypedValueESaIS1_ELN9__gnu_cxx12_Lock_policyE2EE, i32 0, i32 0), i8* bitcast ({ i8*, i8*, i8* }* @_ZTISt16_Sp_counted_baseILN9__gnu_cxx12_Lock_policyE2EE to i8*) }, comdat, align 8
@_ZTVSt16_Sp_counted_baseILN9__gnu_cxx12_Lock_policyE2EE = linkonce_odr dso_local unnamed_addr constant { [7 x i8*] } { [7 x i8*] [i8* null, i8* bitcast ({ i8*, i8*, i8* }* @_ZTISt16_Sp_counted_baseILN9__gnu_cxx12_Lock_policyE2EE to i8*), i8* bitcast (void (%"class.std::_Sp_counted_base"*)* @_ZNSt16_Sp_counted_baseILN9__gnu_cxx12_Lock_policyE2EED2Ev to i8*), i8* bitcast (void (%"class.std::_Sp_counted_base"*)* @_ZNSt16_Sp_counted_baseILN9__gnu_cxx12_Lock_policyE2EED0Ev to i8*), i8* bitcast (void ()* @__cxa_pure_virtual to i8*), i8* bitcast (void (%"class.std::_Sp_counted_base"*)* @_ZNSt16_Sp_counted_baseILN9__gnu_cxx12_Lock_policyE2EE10_M_destroyEv to i8*), i8* bitcast (void ()* @__cxa_pure_virtual to i8*)] }, comdat, align 8
@_ZTVN8antlrcpp3Any7DerivedISt10shared_ptrIN4mini10TypedValueEEEE = linkonce_odr dso_local unnamed_addr constant { [5 x i8*] } { [5 x i8*] [i8* null, i8* bitcast ({ i8*, i8*, i8* }* @_ZTIN8antlrcpp3Any7DerivedISt10shared_ptrIN4mini10TypedValueEEEE to i8*), i8* bitcast (void (%"struct.antlrcpp::Any::Derived.92"*)* @_ZN8antlrcpp3Any7DerivedISt10shared_ptrIN4mini10TypedValueEEED2Ev to i8*), i8* bitcast (void (%"struct.antlrcpp::Any::Derived.92"*)* @_ZN8antlrcpp3Any7DerivedISt10shared_ptrIN4mini10TypedValueEEED0Ev to i8*), i8* bitcast (%"struct.antlrcpp::Any::Base"* (%"struct.antlrcpp::Any::Derived.92"*)* @_ZNK8antlrcpp3Any7DerivedISt10shared_ptrIN4mini10TypedValueEEE5cloneEv to i8*)] }, comdat, align 8
@.str.24 = private unnamed_addr constant [26 x i8] c"vector::_M_realloc_insert\00", align 1
@_ZTVN8antlrcpp3Any7DerivedIPSt3mapINSt7__cxx1112basic_stringIcSt11char_traitsIcESaIcEEESt10shared_ptrIN4mini10TypedValueEESt4lessIS8_ESaISt4pairIKS8_SC_EEEEE = linkonce_odr dso_local unnamed_addr constant { [5 x i8*] } { [5 x i8*] [i8* null, i8* bitcast ({ i8*, i8*, i8* }* @_ZTIN8antlrcpp3Any7DerivedIPSt3mapINSt7__cxx1112basic_stringIcSt11char_traitsIcESaIcEEESt10shared_ptrIN4mini10TypedValueEESt4lessIS8_ESaISt4pairIKS8_SC_EEEEE to i8*), i8* bitcast (void (%"struct.antlrcpp::Any::Derived"*)* @_ZN8antlrcpp3Any7DerivedIPSt3mapINSt7__cxx1112basic_stringIcSt11char_traitsIcESaIcEEESt10shared_ptrIN4mini10TypedValueEESt4lessIS8_ESaISt4pairIKS8_SC_EEEED2Ev to i8*), i8* bitcast (void (%"struct.antlrcpp::Any::Derived"*)* @_ZN8antlrcpp3Any7DerivedIPSt3mapINSt7__cxx1112basic_stringIcSt11char_traitsIcESaIcEEESt10shared_ptrIN4mini10TypedValueEESt4lessIS8_ESaISt4pairIKS8_SC_EEEED0Ev to i8*), i8* bitcast (%"struct.antlrcpp::Any::Base"* (%"struct.antlrcpp::Any::Derived"*)* @_ZNK8antlrcpp3Any7DerivedIPSt3mapINSt7__cxx1112basic_stringIcSt11char_traitsIcESaIcEEESt10shared_ptrIN4mini10TypedValueEESt4lessIS8_ESaISt4pairIKS8_SC_EEEE5cloneEv to i8*)] }, comdat, align 8
@_ZTSN8antlrcpp3Any7DerivedISt3mapINSt7__cxx1112basic_stringIcSt11char_traitsIcESaIcEEESt10shared_ptrIN4mini10TypedValueEESt4lessIS8_ESaISt4pairIKS8_SC_EEEEE = linkonce_odr dso_local constant [153 x i8] c"N8antlrcpp3Any7DerivedISt3mapINSt7__cxx1112basic_stringIcSt11char_traitsIcESaIcEEESt10shared_ptrIN4mini10TypedValueEESt4lessIS8_ESaISt4pairIKS8_SC_EEEEE\00", comdat, align 1
@_ZTIN8antlrcpp3Any7DerivedISt3mapINSt7__cxx1112basic_stringIcSt11char_traitsIcESaIcEEESt10shared_ptrIN4mini10TypedValueEESt4lessIS8_ESaISt4pairIKS8_SC_EEEEE = linkonce_odr dso_local constant { i8*, i8*, i8* } { i8* bitcast (i8** getelementptr inbounds (i8*, i8** @_ZTVN10__cxxabiv120__si_class_type_infoE, i64 2) to i8*), i8* getelementptr inbounds ([153 x i8], [153 x i8]* @_ZTSN8antlrcpp3Any7DerivedISt3mapINSt7__cxx1112basic_stringIcSt11char_traitsIcESaIcEEESt10shared_ptrIN4mini10TypedValueEESt4lessIS8_ESaISt4pairIKS8_SC_EEEEE, i32 0, i32 0), i8* bitcast ({ i8*, i8* }* @_ZTIN8antlrcpp3Any4BaseE to i8*) }, comdat, align 8
@_ZTVN8antlrcpp3Any7DerivedISt3mapINSt7__cxx1112basic_stringIcSt11char_traitsIcESaIcEEESt10shared_ptrIN4mini10TypedValueEESt4lessIS8_ESaISt4pairIKS8_SC_EEEEE = linkonce_odr dso_local unnamed_addr constant { [5 x i8*] } { [5 x i8*] [i8* null, i8* bitcast ({ i8*, i8*, i8* }* @_ZTIN8antlrcpp3Any7DerivedISt3mapINSt7__cxx1112basic_stringIcSt11char_traitsIcESaIcEEESt10shared_ptrIN4mini10TypedValueEESt4lessIS8_ESaISt4pairIKS8_SC_EEEEE to i8*), i8* bitcast (void (%"struct.antlrcpp::Any::Derived.116"*)* @_ZN8antlrcpp3Any7DerivedISt3mapINSt7__cxx1112basic_stringIcSt11char_traitsIcESaIcEEESt10shared_ptrIN4mini10TypedValueEESt4lessIS8_ESaISt4pairIKS8_SC_EEEED2Ev to i8*), i8* bitcast (void (%"struct.antlrcpp::Any::Derived.116"*)* @_ZN8antlrcpp3Any7DerivedISt3mapINSt7__cxx1112basic_stringIcSt11char_traitsIcESaIcEEESt10shared_ptrIN4mini10TypedValueEESt4lessIS8_ESaISt4pairIKS8_SC_EEEED0Ev to i8*), i8* bitcast (%"struct.antlrcpp::Any::Base"* (%"struct.antlrcpp::Any::Derived.116"*)* @_ZNK8antlrcpp3Any7DerivedISt3mapINSt7__cxx1112basic_stringIcSt11char_traitsIcESaIcEEESt10shared_ptrIN4mini10TypedValueEESt4lessIS8_ESaISt4pairIKS8_SC_EEEE5cloneEv to i8*)] }, comdat, align 8
@llvm.global_ctors = appending global [1 x { i32, void ()*, i8* }] [{ i32, void ()*, i8* } { i32 65535, void ()* @_GLOBAL__sub_I_MiniInterpreter.cpp, i8* null }]

@_ZN4mini10TypedValueC1ENSt7__cxx1112basic_stringIcSt11char_traitsIcESaIcEEEN8antlrcpp3AnyE = dso_local unnamed_addr alias void (%"class.mini::TypedValue"*, %"class.std::__cxx11::basic_string"*, %"struct.antlrcpp::Any"*), void (%"class.mini::TypedValue"*, %"class.std::__cxx11::basic_string"*, %"struct.antlrcpp::Any"*)* @_ZN4mini10TypedValueC2ENSt7__cxx1112basic_stringIcSt11char_traitsIcESaIcEEEN8antlrcpp3AnyE
@_ZN4mini15MiniInterpreterC1ESt10shared_ptrIN3ast7ProgramEE = dso_local unnamed_addr alias void (%"class.mini::MiniInterpreter"*, %"class.std::shared_ptr"*), void (%"class.mini::MiniInterpreter"*, %"class.std::shared_ptr"*)* @_ZN4mini15MiniInterpreterC2ESt10shared_ptrIN3ast7ProgramEE

; Function Attrs: noinline uwtable
define internal void @__cxx_global_var_init() #0 section ".text.startup" {
  call void @_ZNSt8ios_base4InitC1Ev(%"class.std::ios_base::Init"* @_ZStL8__ioinit)
  %1 = call i32 @__cxa_atexit(void (i8*)* bitcast (void (%"class.std::ios_base::Init"*)* @_ZNSt8ios_base4InitD1Ev to void (i8*)*), i8* getelementptr inbounds (%"class.std::ios_base::Init", %"class.std::ios_base::Init"* @_ZStL8__ioinit, i32 0, i32 0), i8* @__dso_handle) #3
  ret void
}

declare dso_local void @_ZNSt8ios_base4InitC1Ev(%"class.std::ios_base::Init"*) unnamed_addr #1

; Function Attrs: nounwind
declare dso_local void @_ZNSt8ios_base4InitD1Ev(%"class.std::ios_base::Init"*) unnamed_addr #2

; Function Attrs: nounwind
declare dso_local i32 @__cxa_atexit(void (i8*)*, i8*, i8*) #3

; Function Attrs: noinline optnone uwtable
define dso_local void @_ZN4mini10TypedValueC2ENSt7__cxx1112basic_stringIcSt11char_traitsIcESaIcEEEN8antlrcpp3AnyE(%"class.mini::TypedValue"* %0, %"class.std::__cxx11::basic_string"* %1, %"struct.antlrcpp::Any"* %2) unnamed_addr #4 align 2 personality i8* bitcast (i32 (...)* @__gxx_personality_v0 to i8*) {
  %4 = alloca %"class.mini::TypedValue"*, align 8
  %5 = alloca i8*
  %6 = alloca i32
  store %"class.mini::TypedValue"* %0, %"class.mini::TypedValue"** %4, align 8
  %7 = load %"class.mini::TypedValue"*, %"class.mini::TypedValue"** %4, align 8
  %8 = getelementptr inbounds %"class.mini::TypedValue", %"class.mini::TypedValue"* %7, i32 0, i32 0
  call void @_ZN8antlrcpp3AnyC2ERS0_(%"struct.antlrcpp::Any"* %8, %"struct.antlrcpp::Any"* dereferenceable(16) %2)
  %9 = getelementptr inbounds %"class.mini::TypedValue", %"class.mini::TypedValue"* %7, i32 0, i32 1
  invoke void @_ZNSt7__cxx1112basic_stringIcSt11char_traitsIcESaIcEEC1ERKS4_(%"class.std::__cxx11::basic_string"* %9, %"class.std::__cxx11::basic_string"* dereferenceable(32) %1)
          to label %10 unwind label %11

10:                                               ; preds = %3
  ret void

11:                                               ; preds = %3
  %12 = landingpad { i8*, i32 }
          cleanup
  %13 = extractvalue { i8*, i32 } %12, 0
  store i8* %13, i8** %5, align 8
  %14 = extractvalue { i8*, i32 } %12, 1
  store i32 %14, i32* %6, align 4
  call void @_ZN8antlrcpp3AnyD1Ev(%"struct.antlrcpp::Any"* %8) #3
  br label %15

15:                                               ; preds = %11
  %16 = load i8*, i8** %5, align 8
  %17 = load i32, i32* %6, align 4
  %18 = insertvalue { i8*, i32 } undef, i8* %16, 0
  %19 = insertvalue { i8*, i32 } %18, i32 %17, 1
  resume { i8*, i32 } %19
}

; Function Attrs: noinline optnone uwtable
define linkonce_odr dso_local void @_ZN8antlrcpp3AnyC2ERS0_(%"struct.antlrcpp::Any"* %0, %"struct.antlrcpp::Any"* dereferenceable(16) %1) unnamed_addr #4 comdat align 2 {
  %3 = alloca %"struct.antlrcpp::Any"*, align 8
  %4 = alloca %"struct.antlrcpp::Any"*, align 8
  store %"struct.antlrcpp::Any"* %0, %"struct.antlrcpp::Any"** %3, align 8
  store %"struct.antlrcpp::Any"* %1, %"struct.antlrcpp::Any"** %4, align 8
  %5 = load %"struct.antlrcpp::Any"*, %"struct.antlrcpp::Any"** %3, align 8
  %6 = bitcast %"struct.antlrcpp::Any"* %5 to i32 (...)***
  store i32 (...)** bitcast (i8** getelementptr inbounds ({ [5 x i8*] }, { [5 x i8*] }* @_ZTVN8antlrcpp3AnyE, i32 0, inrange i32 0, i32 2) to i32 (...)**), i32 (...)*** %6, align 8
  %7 = getelementptr inbounds %"struct.antlrcpp::Any", %"struct.antlrcpp::Any"* %5, i32 0, i32 1
  %8 = load %"struct.antlrcpp::Any"*, %"struct.antlrcpp::Any"** %4, align 8
  %9 = call %"struct.antlrcpp::Any::Base"* @_ZNK8antlrcpp3Any5cloneEv(%"struct.antlrcpp::Any"* %8)
  store %"struct.antlrcpp::Any::Base"* %9, %"struct.antlrcpp::Any::Base"** %7, align 8
  ret void
}

declare dso_local void @_ZNSt7__cxx1112basic_stringIcSt11char_traitsIcESaIcEEC1ERKS4_(%"class.std::__cxx11::basic_string"*, %"class.std::__cxx11::basic_string"* dereferenceable(32)) unnamed_addr #1

declare dso_local i32 @__gxx_personality_v0(...)

; Function Attrs: nounwind
declare dso_local void @_ZN8antlrcpp3AnyD1Ev(%"struct.antlrcpp::Any"*) unnamed_addr #2

; Function Attrs: noinline optnone uwtable
define dso_local zeroext i1 @_ZN4mini10TypedValue8isStructEv(%"class.mini::TypedValue"* %0) #4 align 2 {
  %2 = alloca %"class.mini::TypedValue"*, align 8
  store %"class.mini::TypedValue"* %0, %"class.mini::TypedValue"** %2, align 8
  %3 = load %"class.mini::TypedValue"*, %"class.mini::TypedValue"** %2, align 8
  %4 = getelementptr inbounds %"class.mini::TypedValue", %"class.mini::TypedValue"* %3, i32 0, i32 0
  %5 = call zeroext i1 @_ZNK8antlrcpp3Any2isIPSt3mapINSt7__cxx1112basic_stringIcSt11char_traitsIcESaIcEEESt10shared_ptrIN4mini10TypedValueEESt4lessIS8_ESaISt4pairIKS8_SC_EEEEEbv(%"struct.antlrcpp::Any"* %4)
  ret i1 %5
}

; Function Attrs: noinline optnone uwtable
define linkonce_odr dso_local zeroext i1 @_ZNK8antlrcpp3Any2isIPSt3mapINSt7__cxx1112basic_stringIcSt11char_traitsIcESaIcEEESt10shared_ptrIN4mini10TypedValueEESt4lessIS8_ESaISt4pairIKS8_SC_EEEEEbv(%"struct.antlrcpp::Any"* %0) #4 comdat align 2 {
  %2 = alloca %"struct.antlrcpp::Any"*, align 8
  %3 = alloca %"struct.antlrcpp::Any::Derived"*, align 8
  store %"struct.antlrcpp::Any"* %0, %"struct.antlrcpp::Any"** %2, align 8
  %4 = load %"struct.antlrcpp::Any"*, %"struct.antlrcpp::Any"** %2, align 8
  %5 = call %"struct.antlrcpp::Any::Derived"* @_ZNK8antlrcpp3Any10getDerivedIPSt3mapINSt7__cxx1112basic_stringIcSt11char_traitsIcESaIcEEESt10shared_ptrIN4mini10TypedValueEESt4lessIS8_ESaISt4pairIKS8_SC_EEEEEPNS0_7DerivedINSt5decayIT_E4typeEEEb(%"struct.antlrcpp::Any"* %4, i1 zeroext false)
  store %"struct.antlrcpp::Any::Derived"* %5, %"struct.antlrcpp::Any::Derived"** %3, align 8
  %6 = load %"struct.antlrcpp::Any::Derived"*, %"struct.antlrcpp::Any::Derived"** %3, align 8
  %7 = icmp ne %"struct.antlrcpp::Any::Derived"* %6, null
  ret i1 %7
}

; Function Attrs: noinline optnone uwtable
define dso_local zeroext i1 @_ZN4mini10TypedValue6isNullEv(%"class.mini::TypedValue"* %0) #4 align 2 {
  %2 = alloca %"class.mini::TypedValue"*, align 8
  store %"class.mini::TypedValue"* %0, %"class.mini::TypedValue"** %2, align 8
  %3 = load %"class.mini::TypedValue"*, %"class.mini::TypedValue"** %2, align 8
  %4 = call zeroext i1 @_ZN4mini10TypedValue8isStructEv(%"class.mini::TypedValue"* %3)
  br i1 %4, label %5, label %10

5:                                                ; preds = %1
  %6 = getelementptr inbounds %"class.mini::TypedValue", %"class.mini::TypedValue"* %3, i32 0, i32 0
  %7 = call dereferenceable(8) %"class.std::map"** @_ZN8antlrcpp3Any2asIPSt3mapINSt7__cxx1112basic_stringIcSt11char_traitsIcESaIcEEESt10shared_ptrIN4mini10TypedValueEESt4lessIS8_ESaISt4pairIKS8_SC_EEEEERNSt5decayIT_E4typeEv(%"struct.antlrcpp::Any"* %6)
  %8 = load %"class.std::map"*, %"class.std::map"** %7, align 8
  %9 = icmp eq %"class.std::map"* %8, null
  br label %10

10:                                               ; preds = %5, %1
  %11 = phi i1 [ false, %1 ], [ %9, %5 ]
  ret i1 %11
}

; Function Attrs: noinline optnone uwtable
define linkonce_odr dso_local dereferenceable(8) %"class.std::map"** @_ZN8antlrcpp3Any2asIPSt3mapINSt7__cxx1112basic_stringIcSt11char_traitsIcESaIcEEESt10shared_ptrIN4mini10TypedValueEESt4lessIS8_ESaISt4pairIKS8_SC_EEEEERNSt5decayIT_E4typeEv(%"struct.antlrcpp::Any"* %0) #4 comdat align 2 {
  %2 = alloca %"struct.antlrcpp::Any"*, align 8
  %3 = alloca %"struct.antlrcpp::Any::Derived"*, align 8
  store %"struct.antlrcpp::Any"* %0, %"struct.antlrcpp::Any"** %2, align 8
  %4 = load %"struct.antlrcpp::Any"*, %"struct.antlrcpp::Any"** %2, align 8
  %5 = call %"struct.antlrcpp::Any::Derived"* @_ZNK8antlrcpp3Any10getDerivedIPSt3mapINSt7__cxx1112basic_stringIcSt11char_traitsIcESaIcEEESt10shared_ptrIN4mini10TypedValueEESt4lessIS8_ESaISt4pairIKS8_SC_EEEEEPNS0_7DerivedINSt5decayIT_E4typeEEEb(%"struct.antlrcpp::Any"* %4, i1 zeroext true)
  store %"struct.antlrcpp::Any::Derived"* %5, %"struct.antlrcpp::Any::Derived"** %3, align 8
  %6 = load %"struct.antlrcpp::Any::Derived"*, %"struct.antlrcpp::Any::Derived"** %3, align 8
  %7 = getelementptr inbounds %"struct.antlrcpp::Any::Derived", %"struct.antlrcpp::Any::Derived"* %6, i32 0, i32 1
  ret %"class.std::map"** %7
}

; Function Attrs: noinline optnone uwtable
define dso_local void @_ZN4mini10TypedValue8toStringB5cxx11Ev(%"class.std::__cxx11::basic_string"* noalias sret %0, %"class.mini::TypedValue"* %1) #4 align 2 personality i8* bitcast (i32 (...)* @__gxx_personality_v0 to i8*) {
  %3 = alloca i8*, align 8
  %4 = alloca %"class.mini::TypedValue"*, align 8
  %5 = alloca %"class.std::__cxx11::basic_string", align 8
  %6 = alloca %"class.std::__cxx11::basic_string", align 8
  %7 = alloca %"class.std::allocator", align 1
  %8 = alloca i8*
  %9 = alloca i32
  %10 = alloca %"class.std::__cxx11::basic_string", align 8
  %11 = alloca %"class.std::allocator", align 1
  %12 = alloca %"class.std::allocator", align 1
  %13 = alloca %"class.std::__cxx11::basic_ostringstream", align 8
  %14 = bitcast %"class.std::__cxx11::basic_string"* %0 to i8*
  store i8* %14, i8** %3, align 8
  store %"class.mini::TypedValue"* %1, %"class.mini::TypedValue"** %4, align 8
  %15 = load %"class.mini::TypedValue"*, %"class.mini::TypedValue"** %4, align 8
  %16 = getelementptr inbounds %"class.mini::TypedValue", %"class.mini::TypedValue"* %15, i32 0, i32 1
  call void @_ZN3ast7IntType4nameB5cxx11Ev(%"class.std::__cxx11::basic_string"* sret %5)
  %17 = call zeroext i1 @_ZSteqIcEN9__gnu_cxx11__enable_ifIXsr9__is_charIT_EE7__valueEbE6__typeERKNSt7__cxx1112basic_stringIS2_St11char_traitsIS2_ESaIS2_EEESC_(%"class.std::__cxx11::basic_string"* dereferenceable(32) %16, %"class.std::__cxx11::basic_string"* dereferenceable(32) %5) #3
  call void @_ZNSt7__cxx1112basic_stringIcSt11char_traitsIcESaIcEED1Ev(%"class.std::__cxx11::basic_string"* %5) #3
  br i1 %17, label %18, label %22

18:                                               ; preds = %2
  %19 = getelementptr inbounds %"class.mini::TypedValue", %"class.mini::TypedValue"* %15, i32 0, i32 0
  %20 = call dereferenceable(4) i32* @_ZN8antlrcpp3Any2asIiEERNSt5decayIT_E4typeEv(%"struct.antlrcpp::Any"* %19)
  %21 = load i32, i32* %20, align 4
  call void @_ZNSt7__cxx119to_stringEi(%"class.std::__cxx11::basic_string"* sret %0, i32 %21)
  br label %68

22:                                               ; preds = %2
  %23 = getelementptr inbounds %"class.mini::TypedValue", %"class.mini::TypedValue"* %15, i32 0, i32 1
  call void @_ZN3ast8BoolType4nameB5cxx11Ev(%"class.std::__cxx11::basic_string"* sret %6)
  %24 = call zeroext i1 @_ZSteqIcEN9__gnu_cxx11__enable_ifIXsr9__is_charIT_EE7__valueEbE6__typeERKNSt7__cxx1112basic_stringIS2_St11char_traitsIS2_ESaIS2_EEESC_(%"class.std::__cxx11::basic_string"* dereferenceable(32) %23, %"class.std::__cxx11::basic_string"* dereferenceable(32) %6) #3
  call void @_ZNSt7__cxx1112basic_stringIcSt11char_traitsIcESaIcEED1Ev(%"class.std::__cxx11::basic_string"* %6) #3
  br i1 %24, label %25, label %37

25:                                               ; preds = %22
  %26 = getelementptr inbounds %"class.mini::TypedValue", %"class.mini::TypedValue"* %15, i32 0, i32 0
  %27 = call dereferenceable(1) i8* @_ZN8antlrcpp3Any2asIbEERNSt5decayIT_E4typeEv(%"struct.antlrcpp::Any"* %26)
  %28 = load i8, i8* %27, align 1
  %29 = trunc i8 %28 to i1
  %30 = zext i1 %29 to i64
  %31 = select i1 %29, i8* getelementptr inbounds ([5 x i8], [5 x i8]* @.str, i64 0, i64 0), i8* getelementptr inbounds ([6 x i8], [6 x i8]* @.str.1, i64 0, i64 0)
  call void @_ZNSaIcEC1Ev(%"class.std::allocator"* %7) #3
  invoke void @_ZNSt7__cxx1112basic_stringIcSt11char_traitsIcESaIcEEC1EPKcRKS3_(%"class.std::__cxx11::basic_string"* %0, i8* %31, %"class.std::allocator"* dereferenceable(1) %7)
          to label %32 unwind label %33

32:                                               ; preds = %25
  call void @_ZNSaIcED1Ev(%"class.std::allocator"* %7) #3
  br label %68

33:                                               ; preds = %25
  %34 = landingpad { i8*, i32 }
          cleanup
  %35 = extractvalue { i8*, i32 } %34, 0
  store i8* %35, i8** %8, align 8
  %36 = extractvalue { i8*, i32 } %34, 1
  store i32 %36, i32* %9, align 4
  call void @_ZNSaIcED1Ev(%"class.std::allocator"* %7) #3
  br label %69

37:                                               ; preds = %22
  %38 = getelementptr inbounds %"class.mini::TypedValue", %"class.mini::TypedValue"* %15, i32 0, i32 1
  call void @_ZN3ast8VoidType4nameB5cxx11Ev(%"class.std::__cxx11::basic_string"* sret %10)
  %39 = call zeroext i1 @_ZSteqIcEN9__gnu_cxx11__enable_ifIXsr9__is_charIT_EE7__valueEbE6__typeERKNSt7__cxx1112basic_stringIS2_St11char_traitsIS2_ESaIS2_EEESC_(%"class.std::__cxx11::basic_string"* dereferenceable(32) %38, %"class.std::__cxx11::basic_string"* dereferenceable(32) %10) #3
  call void @_ZNSt7__cxx1112basic_stringIcSt11char_traitsIcESaIcEED1Ev(%"class.std::__cxx11::basic_string"* %10) #3
  br i1 %39, label %40, label %46

40:                                               ; preds = %37
  call void @_ZNSaIcEC1Ev(%"class.std::allocator"* %11) #3
  invoke void @_ZNSt7__cxx1112basic_stringIcSt11char_traitsIcESaIcEEC1EPKcRKS3_(%"class.std::__cxx11::basic_string"* %0, i8* getelementptr inbounds ([5 x i8], [5 x i8]* @.str.2, i64 0, i64 0), %"class.std::allocator"* dereferenceable(1) %11)
          to label %41 unwind label %42

41:                                               ; preds = %40
  call void @_ZNSaIcED1Ev(%"class.std::allocator"* %11) #3
  br label %68

42:                                               ; preds = %40
  %43 = landingpad { i8*, i32 }
          cleanup
  %44 = extractvalue { i8*, i32 } %43, 0
  store i8* %44, i8** %8, align 8
  %45 = extractvalue { i8*, i32 } %43, 1
  store i32 %45, i32* %9, align 4
  call void @_ZNSaIcED1Ev(%"class.std::allocator"* %11) #3
  br label %69

46:                                               ; preds = %37
  %47 = call zeroext i1 @_ZN4mini10TypedValue6isNullEv(%"class.mini::TypedValue"* %15)
  br i1 %47, label %48, label %54

48:                                               ; preds = %46
  call void @_ZNSaIcEC1Ev(%"class.std::allocator"* %12) #3
  invoke void @_ZNSt7__cxx1112basic_stringIcSt11char_traitsIcESaIcEEC1EPKcRKS3_(%"class.std::__cxx11::basic_string"* %0, i8* getelementptr inbounds ([5 x i8], [5 x i8]* @.str.3, i64 0, i64 0), %"class.std::allocator"* dereferenceable(1) %12)
          to label %49 unwind label %50

49:                                               ; preds = %48
  call void @_ZNSaIcED1Ev(%"class.std::allocator"* %12) #3
  br label %68

50:                                               ; preds = %48
  %51 = landingpad { i8*, i32 }
          cleanup
  %52 = extractvalue { i8*, i32 } %51, 0
  store i8* %52, i8** %8, align 8
  %53 = extractvalue { i8*, i32 } %51, 1
  store i32 %53, i32* %9, align 4
  call void @_ZNSaIcED1Ev(%"class.std::allocator"* %12) #3
  br label %69

54:                                               ; preds = %46
  call void @_ZNSt7__cxx1119basic_ostringstreamIcSt11char_traitsIcESaIcEEC1ESt13_Ios_Openmode(%"class.std::__cxx11::basic_ostringstream"* %13, i32 16)
  %55 = bitcast %"class.std::__cxx11::basic_ostringstream"* %13 to %"class.std::basic_ostream"*
  %56 = getelementptr inbounds %"class.mini::TypedValue", %"class.mini::TypedValue"* %15, i32 0, i32 0
  %57 = invoke dereferenceable(8) %"class.std::map"** @_ZN8antlrcpp3Any2asIPSt3mapINSt7__cxx1112basic_stringIcSt11char_traitsIcESaIcEEESt10shared_ptrIN4mini10TypedValueEESt4lessIS8_ESaISt4pairIKS8_SC_EEEEERNSt5decayIT_E4typeEv(%"struct.antlrcpp::Any"* %56)
          to label %58 unwind label %64

58:                                               ; preds = %54
  %59 = load %"class.std::map"*, %"class.std::map"** %57, align 8
  %60 = bitcast %"class.std::map"* %59 to i8*
  %61 = invoke dereferenceable(272) %"class.std::basic_ostream"* @_ZNSolsEPKv(%"class.std::basic_ostream"* %55, i8* %60)
          to label %62 unwind label %64

62:                                               ; preds = %58
  invoke void @_ZNKSt7__cxx1119basic_ostringstreamIcSt11char_traitsIcESaIcEE3strEv(%"class.std::__cxx11::basic_string"* sret %0, %"class.std::__cxx11::basic_ostringstream"* %13)
          to label %63 unwind label %64

63:                                               ; preds = %62
  call void @_ZNSt7__cxx1119basic_ostringstreamIcSt11char_traitsIcESaIcEED1Ev(%"class.std::__cxx11::basic_ostringstream"* %13) #3
  br label %68

64:                                               ; preds = %62, %58, %54
  %65 = landingpad { i8*, i32 }
          cleanup
  %66 = extractvalue { i8*, i32 } %65, 0
  store i8* %66, i8** %8, align 8
  %67 = extractvalue { i8*, i32 } %65, 1
  store i32 %67, i32* %9, align 4
  call void @_ZNSt7__cxx1119basic_ostringstreamIcSt11char_traitsIcESaIcEED1Ev(%"class.std::__cxx11::basic_ostringstream"* %13) #3
  br label %69

68:                                               ; preds = %63, %49, %41, %32, %18
  ret void

69:                                               ; preds = %64, %50, %42, %33
  %70 = load i8*, i8** %8, align 8
  %71 = load i32, i32* %9, align 4
  %72 = insertvalue { i8*, i32 } undef, i8* %70, 0
  %73 = insertvalue { i8*, i32 } %72, i32 %71, 1
  resume { i8*, i32 } %73
}

; Function Attrs: noinline nounwind optnone uwtable
define linkonce_odr dso_local zeroext i1 @_ZSteqIcEN9__gnu_cxx11__enable_ifIXsr9__is_charIT_EE7__valueEbE6__typeERKNSt7__cxx1112basic_stringIS2_St11char_traitsIS2_ESaIS2_EEESC_(%"class.std::__cxx11::basic_string"* dereferenceable(32) %0, %"class.std::__cxx11::basic_string"* dereferenceable(32) %1) #5 comdat personality i8* bitcast (i32 (...)* @__gxx_personality_v0 to i8*) {
  %3 = alloca %"class.std::__cxx11::basic_string"*, align 8
  %4 = alloca %"class.std::__cxx11::basic_string"*, align 8
  store %"class.std::__cxx11::basic_string"* %0, %"class.std::__cxx11::basic_string"** %3, align 8
  store %"class.std::__cxx11::basic_string"* %1, %"class.std::__cxx11::basic_string"** %4, align 8
  %5 = load %"class.std::__cxx11::basic_string"*, %"class.std::__cxx11::basic_string"** %3, align 8
  %6 = call i64 @_ZNKSt7__cxx1112basic_stringIcSt11char_traitsIcESaIcEE4sizeEv(%"class.std::__cxx11::basic_string"* %5) #3
  %7 = load %"class.std::__cxx11::basic_string"*, %"class.std::__cxx11::basic_string"** %4, align 8
  %8 = call i64 @_ZNKSt7__cxx1112basic_stringIcSt11char_traitsIcESaIcEE4sizeEv(%"class.std::__cxx11::basic_string"* %7) #3
  %9 = icmp eq i64 %6, %8
  br i1 %9, label %10, label %21

10:                                               ; preds = %2
  %11 = load %"class.std::__cxx11::basic_string"*, %"class.std::__cxx11::basic_string"** %3, align 8
  %12 = call i8* @_ZNKSt7__cxx1112basic_stringIcSt11char_traitsIcESaIcEE4dataEv(%"class.std::__cxx11::basic_string"* %11) #3
  %13 = load %"class.std::__cxx11::basic_string"*, %"class.std::__cxx11::basic_string"** %4, align 8
  %14 = call i8* @_ZNKSt7__cxx1112basic_stringIcSt11char_traitsIcESaIcEE4dataEv(%"class.std::__cxx11::basic_string"* %13) #3
  %15 = load %"class.std::__cxx11::basic_string"*, %"class.std::__cxx11::basic_string"** %3, align 8
  %16 = call i64 @_ZNKSt7__cxx1112basic_stringIcSt11char_traitsIcESaIcEE4sizeEv(%"class.std::__cxx11::basic_string"* %15) #3
  %17 = invoke i32 @_ZNSt11char_traitsIcE7compareEPKcS2_m(i8* %12, i8* %14, i64 %16)
          to label %18 unwind label %23

18:                                               ; preds = %10
  %19 = icmp ne i32 %17, 0
  %20 = xor i1 %19, true
  br label %21

21:                                               ; preds = %18, %2
  %22 = phi i1 [ false, %2 ], [ %20, %18 ]
  ret i1 %22

23:                                               ; preds = %10
  %24 = landingpad { i8*, i32 }
          catch i8* null
  %25 = extractvalue { i8*, i32 } %24, 0
  call void @__clang_call_terminate(i8* %25) #15
  unreachable
}

declare dso_local void @_ZN3ast7IntType4nameB5cxx11Ev(%"class.std::__cxx11::basic_string"* sret) #1

; Function Attrs: nounwind
declare dso_local void @_ZNSt7__cxx1112basic_stringIcSt11char_traitsIcESaIcEED1Ev(%"class.std::__cxx11::basic_string"*) unnamed_addr #2

; Function Attrs: noinline optnone uwtable
define linkonce_odr dso_local void @_ZNSt7__cxx119to_stringEi(%"class.std::__cxx11::basic_string"* noalias sret %0, i32 %1) #4 comdat {
  %3 = alloca i8*, align 8
  %4 = alloca i32, align 4
  %5 = bitcast %"class.std::__cxx11::basic_string"* %0 to i8*
  store i8* %5, i8** %3, align 8
  store i32 %1, i32* %4, align 4
  %6 = load i32, i32* %4, align 4
  call void (%"class.std::__cxx11::basic_string"*, i32 (i8*, i64, i8*, %struct.__va_list_tag*)*, i64, i8*, ...) @_ZN9__gnu_cxx12__to_xstringINSt7__cxx1112basic_stringIcSt11char_traitsIcESaIcEEEcEET_PFiPT0_mPKS8_P13__va_list_tagEmSB_z(%"class.std::__cxx11::basic_string"* sret %0, i32 (i8*, i64, i8*, %struct.__va_list_tag*)* @vsnprintf, i64 16, i8* getelementptr inbounds ([3 x i8], [3 x i8]* @.str.20, i64 0, i64 0), i32 %6)
  ret void
}

; Function Attrs: noinline optnone uwtable
define linkonce_odr dso_local dereferenceable(4) i32* @_ZN8antlrcpp3Any2asIiEERNSt5decayIT_E4typeEv(%"struct.antlrcpp::Any"* %0) #4 comdat align 2 {
  %2 = alloca %"struct.antlrcpp::Any"*, align 8
  %3 = alloca %"struct.antlrcpp::Any::Derived.89"*, align 8
  store %"struct.antlrcpp::Any"* %0, %"struct.antlrcpp::Any"** %2, align 8
  %4 = load %"struct.antlrcpp::Any"*, %"struct.antlrcpp::Any"** %2, align 8
  %5 = call %"struct.antlrcpp::Any::Derived.89"* @_ZNK8antlrcpp3Any10getDerivedIiEEPNS0_7DerivedINSt5decayIT_E4typeEEEb(%"struct.antlrcpp::Any"* %4, i1 zeroext true)
  store %"struct.antlrcpp::Any::Derived.89"* %5, %"struct.antlrcpp::Any::Derived.89"** %3, align 8
  %6 = load %"struct.antlrcpp::Any::Derived.89"*, %"struct.antlrcpp::Any::Derived.89"** %3, align 8
  %7 = getelementptr inbounds %"struct.antlrcpp::Any::Derived.89", %"struct.antlrcpp::Any::Derived.89"* %6, i32 0, i32 1
  ret i32* %7
}

declare dso_local void @_ZN3ast8BoolType4nameB5cxx11Ev(%"class.std::__cxx11::basic_string"* sret) #1

; Function Attrs: noinline optnone uwtable
define linkonce_odr dso_local dereferenceable(1) i8* @_ZN8antlrcpp3Any2asIbEERNSt5decayIT_E4typeEv(%"struct.antlrcpp::Any"* %0) #4 comdat align 2 {
  %2 = alloca %"struct.antlrcpp::Any"*, align 8
  %3 = alloca %"struct.antlrcpp::Any::Derived.90"*, align 8
  store %"struct.antlrcpp::Any"* %0, %"struct.antlrcpp::Any"** %2, align 8
  %4 = load %"struct.antlrcpp::Any"*, %"struct.antlrcpp::Any"** %2, align 8
  %5 = call %"struct.antlrcpp::Any::Derived.90"* @_ZNK8antlrcpp3Any10getDerivedIbEEPNS0_7DerivedINSt5decayIT_E4typeEEEb(%"struct.antlrcpp::Any"* %4, i1 zeroext true)
  store %"struct.antlrcpp::Any::Derived.90"* %5, %"struct.antlrcpp::Any::Derived.90"** %3, align 8
  %6 = load %"struct.antlrcpp::Any::Derived.90"*, %"struct.antlrcpp::Any::Derived.90"** %3, align 8
  %7 = getelementptr inbounds %"struct.antlrcpp::Any::Derived.90", %"struct.antlrcpp::Any::Derived.90"* %6, i32 0, i32 1
  ret i8* %7
}

; Function Attrs: nounwind
declare dso_local void @_ZNSaIcEC1Ev(%"class.std::allocator"*) unnamed_addr #2

declare dso_local void @_ZNSt7__cxx1112basic_stringIcSt11char_traitsIcESaIcEEC1EPKcRKS3_(%"class.std::__cxx11::basic_string"*, i8*, %"class.std::allocator"* dereferenceable(1)) unnamed_addr #1

; Function Attrs: nounwind
declare dso_local void @_ZNSaIcED1Ev(%"class.std::allocator"*) unnamed_addr #2

declare dso_local void @_ZN3ast8VoidType4nameB5cxx11Ev(%"class.std::__cxx11::basic_string"* sret) #1

declare dso_local void @_ZNSt7__cxx1119basic_ostringstreamIcSt11char_traitsIcESaIcEEC1ESt13_Ios_Openmode(%"class.std::__cxx11::basic_ostringstream"*, i32) unnamed_addr #1

declare dso_local dereferenceable(272) %"class.std::basic_ostream"* @_ZNSolsEPKv(%"class.std::basic_ostream"*, i8*) #1

declare dso_local void @_ZNKSt7__cxx1119basic_ostringstreamIcSt11char_traitsIcESaIcEE3strEv(%"class.std::__cxx11::basic_string"* sret, %"class.std::__cxx11::basic_ostringstream"*) #1

; Function Attrs: nounwind
declare dso_local void @_ZNSt7__cxx1119basic_ostringstreamIcSt11char_traitsIcESaIcEED1Ev(%"class.std::__cxx11::basic_ostringstream"*) unnamed_addr #2

; Function Attrs: noinline optnone uwtable
define dso_local zeroext i1 @_ZN4mini15MiniInterpreter6isBoolENSt7__cxx1112basic_stringIcSt11char_traitsIcESaIcEEE(%"class.mini::MiniInterpreter"* %0, %"class.std::__cxx11::basic_string"* %1) #4 align 2 {
  %3 = alloca %"class.mini::MiniInterpreter"*, align 8
  store %"class.mini::MiniInterpreter"* %0, %"class.mini::MiniInterpreter"** %3, align 8
  %4 = load %"class.mini::MiniInterpreter"*, %"class.mini::MiniInterpreter"** %3, align 8
  %5 = call i8* @_ZNKSt9type_info4nameEv(%"class.std::type_info"* bitcast (i8** @_ZTIN3ast14TrueExpressionE to %"class.std::type_info"*)) #3
  %6 = call zeroext i1 @_ZSteqIcSt11char_traitsIcESaIcEEbRKNSt7__cxx1112basic_stringIT_T0_T1_EEPKS5_(%"class.std::__cxx11::basic_string"* dereferenceable(32) %1, i8* %5)
  br i1 %6, label %10, label %7

7:                                                ; preds = %2
  %8 = call i8* @_ZNKSt9type_info4nameEv(%"class.std::type_info"* bitcast (i8** @_ZTIN3ast15FalseExpressionE to %"class.std::type_info"*)) #3
  %9 = call zeroext i1 @_ZSteqIcSt11char_traitsIcESaIcEEbRKNSt7__cxx1112basic_stringIT_T0_T1_EEPKS5_(%"class.std::__cxx11::basic_string"* dereferenceable(32) %1, i8* %8)
  br label %10

10:                                               ; preds = %7, %2
  %11 = phi i1 [ true, %2 ], [ %9, %7 ]
  ret i1 %11
}

; Function Attrs: noinline nounwind optnone uwtable
define linkonce_odr dso_local zeroext i1 @_ZSteqIcSt11char_traitsIcESaIcEEbRKNSt7__cxx1112basic_stringIT_T0_T1_EEPKS5_(%"class.std::__cxx11::basic_string"* dereferenceable(32) %0, i8* %1) #5 comdat {
  %3 = alloca %"class.std::__cxx11::basic_string"*, align 8
  %4 = alloca i8*, align 8
  store %"class.std::__cxx11::basic_string"* %0, %"class.std::__cxx11::basic_string"** %3, align 8
  store i8* %1, i8** %4, align 8
  %5 = load %"class.std::__cxx11::basic_string"*, %"class.std::__cxx11::basic_string"** %3, align 8
  %6 = load i8*, i8** %4, align 8
  %7 = call i32 @_ZNKSt7__cxx1112basic_stringIcSt11char_traitsIcESaIcEE7compareEPKc(%"class.std::__cxx11::basic_string"* %5, i8* %6) #3
  %8 = icmp eq i32 %7, 0
  ret i1 %8
}

; Function Attrs: noinline nounwind optnone uwtable
define linkonce_odr dso_local i8* @_ZNKSt9type_info4nameEv(%"class.std::type_info"* %0) #5 comdat align 2 {
  %2 = alloca %"class.std::type_info"*, align 8
  store %"class.std::type_info"* %0, %"class.std::type_info"** %2, align 8
  %3 = load %"class.std::type_info"*, %"class.std::type_info"** %2, align 8
  %4 = getelementptr inbounds %"class.std::type_info", %"class.std::type_info"* %3, i32 0, i32 1
  %5 = load i8*, i8** %4, align 8
  %6 = getelementptr inbounds i8, i8* %5, i64 0
  %7 = load i8, i8* %6, align 1
  %8 = sext i8 %7 to i32
  %9 = icmp eq i32 %8, 42
  br i1 %9, label %10, label %14

10:                                               ; preds = %1
  %11 = getelementptr inbounds %"class.std::type_info", %"class.std::type_info"* %3, i32 0, i32 1
  %12 = load i8*, i8** %11, align 8
  %13 = getelementptr inbounds i8, i8* %12, i64 1
  br label %17

14:                                               ; preds = %1
  %15 = getelementptr inbounds %"class.std::type_info", %"class.std::type_info"* %3, i32 0, i32 1
  %16 = load i8*, i8** %15, align 8
  br label %17

17:                                               ; preds = %14, %10
  %18 = phi i8* [ %13, %10 ], [ %16, %14 ]
  ret i8* %18
}

; Function Attrs: noinline optnone uwtable
define dso_local zeroext i1 @_ZN4mini15MiniInterpreter12getBoolStateERNS_10TypedValueE(%"class.mini::MiniInterpreter"* %0, %"class.mini::TypedValue"* dereferenceable(48) %1) #4 align 2 personality i8* bitcast (i32 (...)* @__gxx_personality_v0 to i8*) {
  %3 = alloca i1, align 1
  %4 = alloca %"class.mini::MiniInterpreter"*, align 8
  %5 = alloca %"class.mini::TypedValue"*, align 8
  %6 = alloca %"class.std::__cxx11::basic_string", align 8
  %7 = alloca %"class.std::__cxx11::basic_string", align 8
  %8 = alloca i8*
  %9 = alloca i32
  store %"class.mini::MiniInterpreter"* %0, %"class.mini::MiniInterpreter"** %4, align 8
  store %"class.mini::TypedValue"* %1, %"class.mini::TypedValue"** %5, align 8
  %10 = load %"class.mini::MiniInterpreter"*, %"class.mini::MiniInterpreter"** %4, align 8
  %11 = load %"class.mini::TypedValue"*, %"class.mini::TypedValue"** %5, align 8
  %12 = getelementptr inbounds %"class.mini::TypedValue", %"class.mini::TypedValue"* %11, i32 0, i32 1
  call void @_ZN3ast7IntType4nameB5cxx11Ev(%"class.std::__cxx11::basic_string"* sret %6)
  %13 = call zeroext i1 @_ZSteqIcEN9__gnu_cxx11__enable_ifIXsr9__is_charIT_EE7__valueEbE6__typeERKNSt7__cxx1112basic_stringIS2_St11char_traitsIS2_ESaIS2_EEESC_(%"class.std::__cxx11::basic_string"* dereferenceable(32) %12, %"class.std::__cxx11::basic_string"* dereferenceable(32) %6) #3
  call void @_ZNSt7__cxx1112basic_stringIcSt11char_traitsIcESaIcEED1Ev(%"class.std::__cxx11::basic_string"* %6) #3
  br i1 %13, label %14, label %18

14:                                               ; preds = %2
  %15 = load %"class.mini::TypedValue"*, %"class.mini::TypedValue"** %5, align 8
  %16 = call i32 @_ZN4mini10TypedValue3getIiEET_v(%"class.mini::TypedValue"* %15)
  %17 = icmp ne i32 %16, 0
  store i1 %17, i1* %3, align 1
  br label %33

18:                                               ; preds = %2
  %19 = load %"class.mini::TypedValue"*, %"class.mini::TypedValue"** %5, align 8
  %20 = getelementptr inbounds %"class.mini::TypedValue", %"class.mini::TypedValue"* %19, i32 0, i32 1
  call void @_ZN3ast8BoolType4nameB5cxx11Ev(%"class.std::__cxx11::basic_string"* sret %7)
  %21 = call zeroext i1 @_ZSteqIcEN9__gnu_cxx11__enable_ifIXsr9__is_charIT_EE7__valueEbE6__typeERKNSt7__cxx1112basic_stringIS2_St11char_traitsIS2_ESaIS2_EEESC_(%"class.std::__cxx11::basic_string"* dereferenceable(32) %20, %"class.std::__cxx11::basic_string"* dereferenceable(32) %7) #3
  call void @_ZNSt7__cxx1112basic_stringIcSt11char_traitsIcESaIcEED1Ev(%"class.std::__cxx11::basic_string"* %7) #3
  br i1 %21, label %22, label %25

22:                                               ; preds = %18
  %23 = load %"class.mini::TypedValue"*, %"class.mini::TypedValue"** %5, align 8
  %24 = call zeroext i1 @_ZN4mini10TypedValue3getIbEET_v(%"class.mini::TypedValue"* %23)
  store i1 %24, i1* %3, align 1
  br label %33

25:                                               ; preds = %18
  %26 = call i8* @__cxa_allocate_exception(i64 16) #3
  %27 = bitcast i8* %26 to %"class.std::runtime_error"*
  invoke void @_ZNSt13runtime_errorC1EPKc(%"class.std::runtime_error"* %27, i8* getelementptr inbounds ([49 x i8], [49 x i8]* @.str.4, i64 0, i64 0))
          to label %28 unwind label %29

28:                                               ; preds = %25
  call void @__cxa_throw(i8* %26, i8* bitcast (i8** @_ZTISt13runtime_error to i8*), i8* bitcast (void (%"class.std::runtime_error"*)* @_ZNSt13runtime_errorD1Ev to i8*)) #16
  unreachable

29:                                               ; preds = %25
  %30 = landingpad { i8*, i32 }
          cleanup
  %31 = extractvalue { i8*, i32 } %30, 0
  store i8* %31, i8** %8, align 8
  %32 = extractvalue { i8*, i32 } %30, 1
  store i32 %32, i32* %9, align 4
  call void @__cxa_free_exception(i8* %26) #3
  br label %35

33:                                               ; preds = %22, %14
  %34 = load i1, i1* %3, align 1
  ret i1 %34

35:                                               ; preds = %29
  %36 = load i8*, i8** %8, align 8
  %37 = load i32, i32* %9, align 4
  %38 = insertvalue { i8*, i32 } undef, i8* %36, 0
  %39 = insertvalue { i8*, i32 } %38, i32 %37, 1
  resume { i8*, i32 } %39
}

; Function Attrs: noinline optnone uwtable
define linkonce_odr dso_local i32 @_ZN4mini10TypedValue3getIiEET_v(%"class.mini::TypedValue"* %0) #4 comdat align 2 {
  %2 = alloca %"class.mini::TypedValue"*, align 8
  store %"class.mini::TypedValue"* %0, %"class.mini::TypedValue"** %2, align 8
  %3 = load %"class.mini::TypedValue"*, %"class.mini::TypedValue"** %2, align 8
  %4 = getelementptr inbounds %"class.mini::TypedValue", %"class.mini::TypedValue"* %3, i32 0, i32 0
  %5 = call dereferenceable(4) i32* @_ZN8antlrcpp3Any2asIiEERNSt5decayIT_E4typeEv(%"struct.antlrcpp::Any"* %4)
  %6 = load i32, i32* %5, align 4
  ret i32 %6
}

; Function Attrs: noinline optnone uwtable
define linkonce_odr dso_local zeroext i1 @_ZN4mini10TypedValue3getIbEET_v(%"class.mini::TypedValue"* %0) #4 comdat align 2 {
  %2 = alloca %"class.mini::TypedValue"*, align 8
  store %"class.mini::TypedValue"* %0, %"class.mini::TypedValue"** %2, align 8
  %3 = load %"class.mini::TypedValue"*, %"class.mini::TypedValue"** %2, align 8
  %4 = getelementptr inbounds %"class.mini::TypedValue", %"class.mini::TypedValue"* %3, i32 0, i32 0
  %5 = call dereferenceable(1) i8* @_ZN8antlrcpp3Any2asIbEERNSt5decayIT_E4typeEv(%"struct.antlrcpp::Any"* %4)
  %6 = load i8, i8* %5, align 1
  %7 = trunc i8 %6 to i1
  ret i1 %7
}

declare dso_local i8* @__cxa_allocate_exception(i64)

declare dso_local void @_ZNSt13runtime_errorC1EPKc(%"class.std::runtime_error"*, i8*) unnamed_addr #1

declare dso_local void @__cxa_free_exception(i8*)

; Function Attrs: nounwind
declare dso_local void @_ZNSt13runtime_errorD1Ev(%"class.std::runtime_error"*) unnamed_addr #2

declare dso_local void @__cxa_throw(i8*, i8*, i8*)

; Function Attrs: noinline optnone uwtable
define dso_local void @_ZN4mini15MiniInterpreter6lookupENSt7__cxx1112basic_stringIcSt11char_traitsIcESaIcEEE(%"class.std::shared_ptr.47"* noalias sret %0, %"class.mini::MiniInterpreter"* %1, %"class.std::__cxx11::basic_string"* %2) #4 align 2 {
  %4 = alloca i8*, align 8
  %5 = alloca %"class.mini::MiniInterpreter"*, align 8
  %6 = alloca %"class.std::reverse_iterator", align 8
  %7 = alloca %"class.std::reverse_iterator", align 8
  %8 = bitcast %"class.std::shared_ptr.47"* %0 to i8*
  store i8* %8, i8** %4, align 8
  store %"class.mini::MiniInterpreter"* %1, %"class.mini::MiniInterpreter"** %5, align 8
  %9 = load %"class.mini::MiniInterpreter"*, %"class.mini::MiniInterpreter"** %5, align 8
  %10 = getelementptr inbounds %"class.mini::MiniInterpreter", %"class.mini::MiniInterpreter"* %9, i32 0, i32 2
  call void @_ZNSt6vectorISt3mapINSt7__cxx1112basic_stringIcSt11char_traitsIcESaIcEEESt10shared_ptrIN4mini10TypedValueEESt4lessIS6_ESaISt4pairIKS6_SA_EEESaISH_EE6rbeginEv(%"class.std::reverse_iterator"* sret %6, %"class.std::vector"* %10) #3
  br label %11

11:                                               ; preds = %22, %3
  %12 = getelementptr inbounds %"class.mini::MiniInterpreter", %"class.mini::MiniInterpreter"* %9, i32 0, i32 2
  call void @_ZNSt6vectorISt3mapINSt7__cxx1112basic_stringIcSt11char_traitsIcESaIcEEESt10shared_ptrIN4mini10TypedValueEESt4lessIS6_ESaISt4pairIKS6_SA_EEESaISH_EE4rendEv(%"class.std::reverse_iterator"* sret %7, %"class.std::vector"* %12) #3
  %13 = call zeroext i1 @_ZStneIN9__gnu_cxx17__normal_iteratorIPSt3mapINSt7__cxx1112basic_stringIcSt11char_traitsIcESaIcEEESt10shared_ptrIN4mini10TypedValueEESt4lessIS8_ESaISt4pairIKS8_SC_EEESt6vectorISJ_SaISJ_EEEEEbRKSt16reverse_iteratorIT_EST_(%"class.std::reverse_iterator"* dereferenceable(8) %6, %"class.std::reverse_iterator"* dereferenceable(8) %7)
  br i1 %13, label %14, label %24

14:                                               ; preds = %11
  %15 = call %"class.std::map"* @_ZNKSt16reverse_iteratorIN9__gnu_cxx17__normal_iteratorIPSt3mapINSt7__cxx1112basic_stringIcSt11char_traitsIcESaIcEEESt10shared_ptrIN4mini10TypedValueEESt4lessIS8_ESaISt4pairIKS8_SC_EEESt6vectorISJ_SaISJ_EEEEEptEv(%"class.std::reverse_iterator"* %6)
  %16 = call i64 @_ZNKSt3mapINSt7__cxx1112basic_stringIcSt11char_traitsIcESaIcEEESt10shared_ptrIN4mini10TypedValueEESt4lessIS5_ESaISt4pairIKS5_S9_EEE5countERSD_(%"class.std::map"* %15, %"class.std::__cxx11::basic_string"* dereferenceable(32) %2)
  %17 = icmp ne i64 %16, 0
  br i1 %17, label %18, label %21

18:                                               ; preds = %14
  %19 = call %"class.std::map"* @_ZNKSt16reverse_iteratorIN9__gnu_cxx17__normal_iteratorIPSt3mapINSt7__cxx1112basic_stringIcSt11char_traitsIcESaIcEEESt10shared_ptrIN4mini10TypedValueEESt4lessIS8_ESaISt4pairIKS8_SC_EEESt6vectorISJ_SaISJ_EEEEEptEv(%"class.std::reverse_iterator"* %6)
  %20 = call dereferenceable(16) %"class.std::shared_ptr.47"* @_ZNSt3mapINSt7__cxx1112basic_stringIcSt11char_traitsIcESaIcEEESt10shared_ptrIN4mini10TypedValueEESt4lessIS5_ESaISt4pairIKS5_S9_EEE2atERSD_(%"class.std::map"* %19, %"class.std::__cxx11::basic_string"* dereferenceable(32) %2)
  call void @_ZNSt10shared_ptrIN4mini10TypedValueEEC2ERKS2_(%"class.std::shared_ptr.47"* %0, %"class.std::shared_ptr.47"* dereferenceable(16) %20) #3
  br label %32

21:                                               ; preds = %14
  br label %22

22:                                               ; preds = %21
  %23 = call dereferenceable(8) %"class.std::reverse_iterator"* @_ZNSt16reverse_iteratorIN9__gnu_cxx17__normal_iteratorIPSt3mapINSt7__cxx1112basic_stringIcSt11char_traitsIcESaIcEEESt10shared_ptrIN4mini10TypedValueEESt4lessIS8_ESaISt4pairIKS8_SC_EEESt6vectorISJ_SaISJ_EEEEEppEv(%"class.std::reverse_iterator"* %6)
  br label %11

24:                                               ; preds = %11
  %25 = getelementptr inbounds %"class.mini::MiniInterpreter", %"class.mini::MiniInterpreter"* %9, i32 0, i32 1
  %26 = call i64 @_ZNKSt3mapINSt7__cxx1112basic_stringIcSt11char_traitsIcESaIcEEESt10shared_ptrIN4mini10TypedValueEESt4lessIS5_ESaISt4pairIKS5_S9_EEE5countERSD_(%"class.std::map"* %25, %"class.std::__cxx11::basic_string"* dereferenceable(32) %2)
  %27 = icmp ne i64 %26, 0
  br i1 %27, label %28, label %31

28:                                               ; preds = %24
  %29 = getelementptr inbounds %"class.mini::MiniInterpreter", %"class.mini::MiniInterpreter"* %9, i32 0, i32 1
  %30 = call dereferenceable(16) %"class.std::shared_ptr.47"* @_ZNSt3mapINSt7__cxx1112basic_stringIcSt11char_traitsIcESaIcEEESt10shared_ptrIN4mini10TypedValueEESt4lessIS5_ESaISt4pairIKS5_S9_EEE2atERSD_(%"class.std::map"* %29, %"class.std::__cxx11::basic_string"* dereferenceable(32) %2)
  call void @_ZNSt10shared_ptrIN4mini10TypedValueEEC2ERKS2_(%"class.std::shared_ptr.47"* %0, %"class.std::shared_ptr.47"* dereferenceable(16) %30) #3
  br label %32

31:                                               ; preds = %24
  call void @_ZNSt10shared_ptrIN4mini10TypedValueEEC2EDn(%"class.std::shared_ptr.47"* %0, i8* null) #3
  br label %32

32:                                               ; preds = %31, %28, %18
  ret void
}

; Function Attrs: noinline nounwind optnone uwtable
define linkonce_odr dso_local void @_ZNSt6vectorISt3mapINSt7__cxx1112basic_stringIcSt11char_traitsIcESaIcEEESt10shared_ptrIN4mini10TypedValueEESt4lessIS6_ESaISt4pairIKS6_SA_EEESaISH_EE6rbeginEv(%"class.std::reverse_iterator"* noalias sret %0, %"class.std::vector"* %1) #5 comdat align 2 personality i8* bitcast (i32 (...)* @__gxx_personality_v0 to i8*) {
  %3 = alloca i8*, align 8
  %4 = alloca %"class.std::vector"*, align 8
  %5 = alloca %"class.__gnu_cxx::__normal_iterator", align 8
  %6 = bitcast %"class.std::reverse_iterator"* %0 to i8*
  store i8* %6, i8** %3, align 8
  store %"class.std::vector"* %1, %"class.std::vector"** %4, align 8
  %7 = load %"class.std::vector"*, %"class.std::vector"** %4, align 8
  %8 = call %"class.std::map"* @_ZNSt6vectorISt3mapINSt7__cxx1112basic_stringIcSt11char_traitsIcESaIcEEESt10shared_ptrIN4mini10TypedValueEESt4lessIS6_ESaISt4pairIKS6_SA_EEESaISH_EE3endEv(%"class.std::vector"* %7) #3
  %9 = getelementptr inbounds %"class.__gnu_cxx::__normal_iterator", %"class.__gnu_cxx::__normal_iterator"* %5, i32 0, i32 0
  store %"class.std::map"* %8, %"class.std::map"** %9, align 8
  %10 = getelementptr inbounds %"class.__gnu_cxx::__normal_iterator", %"class.__gnu_cxx::__normal_iterator"* %5, i32 0, i32 0
  %11 = load %"class.std::map"*, %"class.std::map"** %10, align 8
  invoke void @_ZNSt16reverse_iteratorIN9__gnu_cxx17__normal_iteratorIPSt3mapINSt7__cxx1112basic_stringIcSt11char_traitsIcESaIcEEESt10shared_ptrIN4mini10TypedValueEESt4lessIS8_ESaISt4pairIKS8_SC_EEESt6vectorISJ_SaISJ_EEEEEC2ESO_(%"class.std::reverse_iterator"* %0, %"class.std::map"* %11)
          to label %12 unwind label %13

12:                                               ; preds = %2
  ret void

13:                                               ; preds = %2
  %14 = landingpad { i8*, i32 }
          catch i8* null
  %15 = extractvalue { i8*, i32 } %14, 0
  call void @__clang_call_terminate(i8* %15) #15
  unreachable
}

; Function Attrs: noinline optnone uwtable
define linkonce_odr dso_local zeroext i1 @_ZStneIN9__gnu_cxx17__normal_iteratorIPSt3mapINSt7__cxx1112basic_stringIcSt11char_traitsIcESaIcEEESt10shared_ptrIN4mini10TypedValueEESt4lessIS8_ESaISt4pairIKS8_SC_EEESt6vectorISJ_SaISJ_EEEEEbRKSt16reverse_iteratorIT_EST_(%"class.std::reverse_iterator"* dereferenceable(8) %0, %"class.std::reverse_iterator"* dereferenceable(8) %1) #4 comdat {
  %3 = alloca %"class.std::reverse_iterator"*, align 8
  %4 = alloca %"class.std::reverse_iterator"*, align 8
  store %"class.std::reverse_iterator"* %0, %"class.std::reverse_iterator"** %3, align 8
  store %"class.std::reverse_iterator"* %1, %"class.std::reverse_iterator"** %4, align 8
  %5 = load %"class.std::reverse_iterator"*, %"class.std::reverse_iterator"** %3, align 8
  %6 = load %"class.std::reverse_iterator"*, %"class.std::reverse_iterator"** %4, align 8
  %7 = call zeroext i1 @_ZSteqIN9__gnu_cxx17__normal_iteratorIPSt3mapINSt7__cxx1112basic_stringIcSt11char_traitsIcESaIcEEESt10shared_ptrIN4mini10TypedValueEESt4lessIS8_ESaISt4pairIKS8_SC_EEESt6vectorISJ_SaISJ_EEEEEbRKSt16reverse_iteratorIT_EST_(%"class.std::reverse_iterator"* dereferenceable(8) %5, %"class.std::reverse_iterator"* dereferenceable(8) %6)
  %8 = xor i1 %7, true
  ret i1 %8
}

; Function Attrs: noinline nounwind optnone uwtable
define linkonce_odr dso_local void @_ZNSt6vectorISt3mapINSt7__cxx1112basic_stringIcSt11char_traitsIcESaIcEEESt10shared_ptrIN4mini10TypedValueEESt4lessIS6_ESaISt4pairIKS6_SA_EEESaISH_EE4rendEv(%"class.std::reverse_iterator"* noalias sret %0, %"class.std::vector"* %1) #5 comdat align 2 personality i8* bitcast (i32 (...)* @__gxx_personality_v0 to i8*) {
  %3 = alloca i8*, align 8
  %4 = alloca %"class.std::vector"*, align 8
  %5 = alloca %"class.__gnu_cxx::__normal_iterator", align 8
  %6 = bitcast %"class.std::reverse_iterator"* %0 to i8*
  store i8* %6, i8** %3, align 8
  store %"class.std::vector"* %1, %"class.std::vector"** %4, align 8
  %7 = load %"class.std::vector"*, %"class.std::vector"** %4, align 8
  %8 = call %"class.std::map"* @_ZNSt6vectorISt3mapINSt7__cxx1112basic_stringIcSt11char_traitsIcESaIcEEESt10shared_ptrIN4mini10TypedValueEESt4lessIS6_ESaISt4pairIKS6_SA_EEESaISH_EE5beginEv(%"class.std::vector"* %7) #3
  %9 = getelementptr inbounds %"class.__gnu_cxx::__normal_iterator", %"class.__gnu_cxx::__normal_iterator"* %5, i32 0, i32 0
  store %"class.std::map"* %8, %"class.std::map"** %9, align 8
  %10 = getelementptr inbounds %"class.__gnu_cxx::__normal_iterator", %"class.__gnu_cxx::__normal_iterator"* %5, i32 0, i32 0
  %11 = load %"class.std::map"*, %"class.std::map"** %10, align 8
  invoke void @_ZNSt16reverse_iteratorIN9__gnu_cxx17__normal_iteratorIPSt3mapINSt7__cxx1112basic_stringIcSt11char_traitsIcESaIcEEESt10shared_ptrIN4mini10TypedValueEESt4lessIS8_ESaISt4pairIKS8_SC_EEESt6vectorISJ_SaISJ_EEEEEC2ESO_(%"class.std::reverse_iterator"* %0, %"class.std::map"* %11)
          to label %12 unwind label %13

12:                                               ; preds = %2
  ret void

13:                                               ; preds = %2
  %14 = landingpad { i8*, i32 }
          catch i8* null
  %15 = extractvalue { i8*, i32 } %14, 0
  call void @__clang_call_terminate(i8* %15) #15
  unreachable
}

; Function Attrs: noinline optnone uwtable
define linkonce_odr dso_local %"class.std::map"* @_ZNKSt16reverse_iteratorIN9__gnu_cxx17__normal_iteratorIPSt3mapINSt7__cxx1112basic_stringIcSt11char_traitsIcESaIcEEESt10shared_ptrIN4mini10TypedValueEESt4lessIS8_ESaISt4pairIKS8_SC_EEESt6vectorISJ_SaISJ_EEEEEptEv(%"class.std::reverse_iterator"* %0) #4 comdat align 2 {
  %2 = alloca %"class.std::reverse_iterator"*, align 8
  store %"class.std::reverse_iterator"* %0, %"class.std::reverse_iterator"** %2, align 8
  %3 = load %"class.std::reverse_iterator"*, %"class.std::reverse_iterator"** %2, align 8
  %4 = call dereferenceable(48) %"class.std::map"* @_ZNKSt16reverse_iteratorIN9__gnu_cxx17__normal_iteratorIPSt3mapINSt7__cxx1112basic_stringIcSt11char_traitsIcESaIcEEESt10shared_ptrIN4mini10TypedValueEESt4lessIS8_ESaISt4pairIKS8_SC_EEESt6vectorISJ_SaISJ_EEEEEdeEv(%"class.std::reverse_iterator"* %3)
  %5 = call %"class.std::map"* @_ZSt11__addressofISt3mapINSt7__cxx1112basic_stringIcSt11char_traitsIcESaIcEEESt10shared_ptrIN4mini10TypedValueEESt4lessIS6_ESaISt4pairIKS6_SA_EEEEPT_RSI_(%"class.std::map"* dereferenceable(48) %4) #3
  ret %"class.std::map"* %5
}

; Function Attrs: noinline optnone uwtable
define linkonce_odr dso_local i64 @_ZNKSt3mapINSt7__cxx1112basic_stringIcSt11char_traitsIcESaIcEEESt10shared_ptrIN4mini10TypedValueEESt4lessIS5_ESaISt4pairIKS5_S9_EEE5countERSD_(%"class.std::map"* %0, %"class.std::__cxx11::basic_string"* dereferenceable(32) %1) #4 comdat align 2 {
  %3 = alloca %"class.std::map"*, align 8
  %4 = alloca %"class.std::__cxx11::basic_string"*, align 8
  %5 = alloca %"struct.std::_Rb_tree_const_iterator", align 8
  %6 = alloca %"struct.std::_Rb_tree_const_iterator", align 8
  store %"class.std::map"* %0, %"class.std::map"** %3, align 8
  store %"class.std::__cxx11::basic_string"* %1, %"class.std::__cxx11::basic_string"** %4, align 8
  %7 = load %"class.std::map"*, %"class.std::map"** %3, align 8
  %8 = getelementptr inbounds %"class.std::map", %"class.std::map"* %7, i32 0, i32 0
  %9 = load %"class.std::__cxx11::basic_string"*, %"class.std::__cxx11::basic_string"** %4, align 8
  %10 = call %"struct.std::_Rb_tree_node_base"* @_ZNKSt8_Rb_treeINSt7__cxx1112basic_stringIcSt11char_traitsIcESaIcEEESt4pairIKS5_St10shared_ptrIN4mini10TypedValueEEESt10_Select1stISC_ESt4lessIS5_ESaISC_EE4findERS7_(%"class.std::_Rb_tree"* %8, %"class.std::__cxx11::basic_string"* dereferenceable(32) %9)
  %11 = getelementptr inbounds %"struct.std::_Rb_tree_const_iterator", %"struct.std::_Rb_tree_const_iterator"* %5, i32 0, i32 0
  store %"struct.std::_Rb_tree_node_base"* %10, %"struct.std::_Rb_tree_node_base"** %11, align 8
  %12 = getelementptr inbounds %"class.std::map", %"class.std::map"* %7, i32 0, i32 0
  %13 = call %"struct.std::_Rb_tree_node_base"* @_ZNKSt8_Rb_treeINSt7__cxx1112basic_stringIcSt11char_traitsIcESaIcEEESt4pairIKS5_St10shared_ptrIN4mini10TypedValueEEESt10_Select1stISC_ESt4lessIS5_ESaISC_EE3endEv(%"class.std::_Rb_tree"* %12) #3
  %14 = getelementptr inbounds %"struct.std::_Rb_tree_const_iterator", %"struct.std::_Rb_tree_const_iterator"* %6, i32 0, i32 0
  store %"struct.std::_Rb_tree_node_base"* %13, %"struct.std::_Rb_tree_node_base"** %14, align 8
  %15 = call zeroext i1 @_ZNKSt23_Rb_tree_const_iteratorISt4pairIKNSt7__cxx1112basic_stringIcSt11char_traitsIcESaIcEEESt10shared_ptrIN4mini10TypedValueEEEEeqERKSD_(%"struct.std::_Rb_tree_const_iterator"* %5, %"struct.std::_Rb_tree_const_iterator"* dereferenceable(8) %6) #3
  %16 = zext i1 %15 to i64
  %17 = select i1 %15, i32 0, i32 1
  %18 = sext i32 %17 to i64
  ret i64 %18
}

; Function Attrs: noinline optnone uwtable
define linkonce_odr dso_local dereferenceable(16) %"class.std::shared_ptr.47"* @_ZNSt3mapINSt7__cxx1112basic_stringIcSt11char_traitsIcESaIcEEESt10shared_ptrIN4mini10TypedValueEESt4lessIS5_ESaISt4pairIKS5_S9_EEE2atERSD_(%"class.std::map"* %0, %"class.std::__cxx11::basic_string"* dereferenceable(32) %1) #4 comdat align 2 {
  %3 = alloca %"class.std::map"*, align 8
  %4 = alloca %"class.std::__cxx11::basic_string"*, align 8
  %5 = alloca %"struct.std::_Rb_tree_iterator", align 8
  %6 = alloca %"struct.std::_Rb_tree_iterator", align 8
  %7 = alloca %"struct.std::less", align 1
  %8 = alloca %"struct.std::less", align 1
  store %"class.std::map"* %0, %"class.std::map"** %3, align 8
  store %"class.std::__cxx11::basic_string"* %1, %"class.std::__cxx11::basic_string"** %4, align 8
  %9 = load %"class.std::map"*, %"class.std::map"** %3, align 8
  %10 = load %"class.std::__cxx11::basic_string"*, %"class.std::__cxx11::basic_string"** %4, align 8
  %11 = call %"struct.std::_Rb_tree_node_base"* @_ZNSt3mapINSt7__cxx1112basic_stringIcSt11char_traitsIcESaIcEEESt10shared_ptrIN4mini10TypedValueEESt4lessIS5_ESaISt4pairIKS5_S9_EEE11lower_boundERSD_(%"class.std::map"* %9, %"class.std::__cxx11::basic_string"* dereferenceable(32) %10)
  %12 = getelementptr inbounds %"struct.std::_Rb_tree_iterator", %"struct.std::_Rb_tree_iterator"* %5, i32 0, i32 0
  store %"struct.std::_Rb_tree_node_base"* %11, %"struct.std::_Rb_tree_node_base"** %12, align 8
  %13 = call %"struct.std::_Rb_tree_node_base"* @_ZNSt3mapINSt7__cxx1112basic_stringIcSt11char_traitsIcESaIcEEESt10shared_ptrIN4mini10TypedValueEESt4lessIS5_ESaISt4pairIKS5_S9_EEE3endEv(%"class.std::map"* %9) #3
  %14 = getelementptr inbounds %"struct.std::_Rb_tree_iterator", %"struct.std::_Rb_tree_iterator"* %6, i32 0, i32 0
  store %"struct.std::_Rb_tree_node_base"* %13, %"struct.std::_Rb_tree_node_base"** %14, align 8
  %15 = call zeroext i1 @_ZNKSt17_Rb_tree_iteratorISt4pairIKNSt7__cxx1112basic_stringIcSt11char_traitsIcESaIcEEESt10shared_ptrIN4mini10TypedValueEEEEeqERKSD_(%"struct.std::_Rb_tree_iterator"* %5, %"struct.std::_Rb_tree_iterator"* dereferenceable(8) %6) #3
  br i1 %15, label %21, label %16

16:                                               ; preds = %2
  call void @_ZNKSt3mapINSt7__cxx1112basic_stringIcSt11char_traitsIcESaIcEEESt10shared_ptrIN4mini10TypedValueEESt4lessIS5_ESaISt4pairIKS5_S9_EEE8key_compEv(%"class.std::map"* %9)
  %17 = load %"class.std::__cxx11::basic_string"*, %"class.std::__cxx11::basic_string"** %4, align 8
  %18 = call dereferenceable(48) %"struct.std::pair.68"* @_ZNKSt17_Rb_tree_iteratorISt4pairIKNSt7__cxx1112basic_stringIcSt11char_traitsIcESaIcEEESt10shared_ptrIN4mini10TypedValueEEEEdeEv(%"struct.std::_Rb_tree_iterator"* %5) #3
  %19 = getelementptr inbounds %"struct.std::pair.68", %"struct.std::pair.68"* %18, i32 0, i32 0
  %20 = call zeroext i1 @_ZNKSt4lessINSt7__cxx1112basic_stringIcSt11char_traitsIcESaIcEEEEclERKS5_S8_(%"struct.std::less"* %7, %"class.std::__cxx11::basic_string"* dereferenceable(32) %17, %"class.std::__cxx11::basic_string"* dereferenceable(32) %19)
  br label %21

21:                                               ; preds = %16, %2
  %22 = phi i1 [ true, %2 ], [ %20, %16 ]
  br i1 %22, label %23, label %24

23:                                               ; preds = %21
  call void @_ZSt20__throw_out_of_rangePKc(i8* getelementptr inbounds ([8 x i8], [8 x i8]* @.str.22, i64 0, i64 0)) #16
  unreachable

24:                                               ; preds = %21
  %25 = call dereferenceable(48) %"struct.std::pair.68"* @_ZNKSt17_Rb_tree_iteratorISt4pairIKNSt7__cxx1112basic_stringIcSt11char_traitsIcESaIcEEESt10shared_ptrIN4mini10TypedValueEEEEdeEv(%"struct.std::_Rb_tree_iterator"* %5) #3
  %26 = getelementptr inbounds %"struct.std::pair.68", %"struct.std::pair.68"* %25, i32 0, i32 1
  ret %"class.std::shared_ptr.47"* %26
}

; Function Attrs: noinline nounwind optnone uwtable
define linkonce_odr dso_local void @_ZNSt10shared_ptrIN4mini10TypedValueEEC2ERKS2_(%"class.std::shared_ptr.47"* %0, %"class.std::shared_ptr.47"* dereferenceable(16) %1) unnamed_addr #5 comdat align 2 {
  %3 = alloca %"class.std::shared_ptr.47"*, align 8
  %4 = alloca %"class.std::shared_ptr.47"*, align 8
  store %"class.std::shared_ptr.47"* %0, %"class.std::shared_ptr.47"** %3, align 8
  store %"class.std::shared_ptr.47"* %1, %"class.std::shared_ptr.47"** %4, align 8
  %5 = load %"class.std::shared_ptr.47"*, %"class.std::shared_ptr.47"** %3, align 8
  %6 = bitcast %"class.std::shared_ptr.47"* %5 to %"class.std::__shared_ptr.48"*
  %7 = load %"class.std::shared_ptr.47"*, %"class.std::shared_ptr.47"** %4, align 8
  %8 = bitcast %"class.std::shared_ptr.47"* %7 to %"class.std::__shared_ptr.48"*
  call void @_ZNSt12__shared_ptrIN4mini10TypedValueELN9__gnu_cxx12_Lock_policyE2EEC2ERKS4_(%"class.std::__shared_ptr.48"* %6, %"class.std::__shared_ptr.48"* dereferenceable(16) %8) #3
  ret void
}

; Function Attrs: noinline nounwind optnone uwtable
define linkonce_odr dso_local dereferenceable(8) %"class.std::reverse_iterator"* @_ZNSt16reverse_iteratorIN9__gnu_cxx17__normal_iteratorIPSt3mapINSt7__cxx1112basic_stringIcSt11char_traitsIcESaIcEEESt10shared_ptrIN4mini10TypedValueEESt4lessIS8_ESaISt4pairIKS8_SC_EEESt6vectorISJ_SaISJ_EEEEEppEv(%"class.std::reverse_iterator"* %0) #5 comdat align 2 {
  %2 = alloca %"class.std::reverse_iterator"*, align 8
  store %"class.std::reverse_iterator"* %0, %"class.std::reverse_iterator"** %2, align 8
  %3 = load %"class.std::reverse_iterator"*, %"class.std::reverse_iterator"** %2, align 8
  %4 = getelementptr inbounds %"class.std::reverse_iterator", %"class.std::reverse_iterator"* %3, i32 0, i32 0
  %5 = call dereferenceable(8) %"class.__gnu_cxx::__normal_iterator"* @_ZN9__gnu_cxx17__normal_iteratorIPSt3mapINSt7__cxx1112basic_stringIcSt11char_traitsIcESaIcEEESt10shared_ptrIN4mini10TypedValueEESt4lessIS7_ESaISt4pairIKS7_SB_EEESt6vectorISI_SaISI_EEEmmEv(%"class.__gnu_cxx::__normal_iterator"* %4) #3
  ret %"class.std::reverse_iterator"* %3
}

; Function Attrs: noinline nounwind optnone uwtable
define linkonce_odr dso_local void @_ZNSt10shared_ptrIN4mini10TypedValueEEC2EDn(%"class.std::shared_ptr.47"* %0, i8* %1) unnamed_addr #5 comdat align 2 {
  %3 = alloca %"class.std::shared_ptr.47"*, align 8
  %4 = alloca i8*, align 8
  store %"class.std::shared_ptr.47"* %0, %"class.std::shared_ptr.47"** %3, align 8
  store i8* %1, i8** %4, align 8
  %5 = load %"class.std::shared_ptr.47"*, %"class.std::shared_ptr.47"** %3, align 8
  call void @_ZNSt10shared_ptrIN4mini10TypedValueEEC2Ev(%"class.std::shared_ptr.47"* %5) #3
  ret void
}

; Function Attrs: noinline optnone uwtable
define dso_local void @_ZN4mini15MiniInterpreter8bindArgsB5cxx11ERSt6vectorISt10shared_ptrIN3ast10ExpressionEESaIS5_EERS1_IS2_INS3_11DeclarationEESaISA_EE(%"class.std::map"* noalias sret %0, %"class.mini::MiniInterpreter"* %1, %"class.std::vector.50"* dereferenceable(24) %2, %"class.std::vector.24"* dereferenceable(24) %3) #4 align 2 personality i8* bitcast (i32 (...)* @__gxx_personality_v0 to i8*) {
  %5 = alloca i8*, align 8
  %6 = alloca %"class.mini::MiniInterpreter"*, align 8
  %7 = alloca %"class.std::vector.50"*, align 8
  %8 = alloca %"class.std::vector.24"*, align 8
  %9 = alloca i1, align 1
  %10 = alloca i8*
  %11 = alloca i32
  %12 = alloca i32, align 4
  %13 = alloca %"class.mini::TypedValue", align 8
  %14 = alloca %"struct.antlrcpp::Any", align 8
  %15 = alloca %"class.std::shared_ptr.47", align 8
  %16 = alloca %"struct.antlrcpp::Any", align 8
  %17 = bitcast %"class.std::map"* %0 to i8*
  store i8* %17, i8** %5, align 8
  store %"class.mini::MiniInterpreter"* %1, %"class.mini::MiniInterpreter"** %6, align 8
  store %"class.std::vector.50"* %2, %"class.std::vector.50"** %7, align 8
  store %"class.std::vector.24"* %3, %"class.std::vector.24"** %8, align 8
  %18 = load %"class.mini::MiniInterpreter"*, %"class.mini::MiniInterpreter"** %6, align 8
  store i1 false, i1* %9, align 1
  call void @_ZNSt3mapINSt7__cxx1112basic_stringIcSt11char_traitsIcESaIcEEESt10shared_ptrIN4mini10TypedValueEESt4lessIS5_ESaISt4pairIKS5_S9_EEEC2Ev(%"class.std::map"* %0) #3
  %19 = load %"class.std::vector.24"*, %"class.std::vector.24"** %8, align 8
  %20 = call i64 @_ZNKSt6vectorISt10shared_ptrIN3ast11DeclarationEESaIS3_EE4sizeEv(%"class.std::vector.24"* %19) #3
  %21 = load %"class.std::vector.50"*, %"class.std::vector.50"** %7, align 8
  %22 = call i64 @_ZNKSt6vectorISt10shared_ptrIN3ast10ExpressionEESaIS3_EE4sizeEv(%"class.std::vector.50"* %21) #3
  %23 = icmp ne i64 %20, %22
  br i1 %23, label %24, label %36

24:                                               ; preds = %4
  %25 = call i8* @__cxa_allocate_exception(i64 16) #3
  %26 = bitcast i8* %25 to %"class.std::runtime_error"*
  invoke void @_ZNSt13runtime_errorC1EPKc(%"class.std::runtime_error"* %26, i8* getelementptr inbounds ([44 x i8], [44 x i8]* @.str.5, i64 0, i64 0))
          to label %27 unwind label %28

27:                                               ; preds = %24
  invoke void @__cxa_throw(i8* %25, i8* bitcast (i8** @_ZTISt13runtime_error to i8*), i8* bitcast (void (%"class.std::runtime_error"*)* @_ZNSt13runtime_errorD1Ev to i8*)) #16
          to label %138 unwind label %32

28:                                               ; preds = %24
  %29 = landingpad { i8*, i32 }
          cleanup
  %30 = extractvalue { i8*, i32 } %29, 0
  store i8* %30, i8** %10, align 8
  %31 = extractvalue { i8*, i32 } %29, 1
  store i32 %31, i32* %11, align 4
  call void @__cxa_free_exception(i8* %25) #3
  br label %132

32:                                               ; preds = %48, %43, %27
  %33 = landingpad { i8*, i32 }
          cleanup
  %34 = extractvalue { i8*, i32 } %33, 0
  store i8* %34, i8** %10, align 8
  %35 = extractvalue { i8*, i32 } %33, 1
  store i32 %35, i32* %11, align 4
  br label %132

36:                                               ; preds = %4
  store i32 0, i32* %12, align 4
  br label %37

37:                                               ; preds = %123, %36
  %38 = load i32, i32* %12, align 4
  %39 = sext i32 %38 to i64
  %40 = load %"class.std::vector.50"*, %"class.std::vector.50"** %7, align 8
  %41 = call i64 @_ZNKSt6vectorISt10shared_ptrIN3ast10ExpressionEESaIS3_EE4sizeEv(%"class.std::vector.50"* %40) #3
  %42 = icmp ult i64 %39, %41
  br i1 %42, label %43, label %128

43:                                               ; preds = %37
  %44 = load %"class.std::vector.50"*, %"class.std::vector.50"** %7, align 8
  %45 = load i32, i32* %12, align 4
  %46 = sext i32 %45 to i64
  %47 = invoke dereferenceable(16) %"class.std::shared_ptr.55"* @_ZNSt6vectorISt10shared_ptrIN3ast10ExpressionEESaIS3_EE2atEm(%"class.std::vector.50"* %44, i64 %46)
          to label %48 unwind label %32

48:                                               ; preds = %43
  %49 = bitcast %"class.std::shared_ptr.55"* %47 to %"class.std::__shared_ptr_access.57"*
  %50 = call %"class.ast::Expression"* @_ZNKSt19__shared_ptr_accessIN3ast10ExpressionELN9__gnu_cxx12_Lock_policyE2ELb0ELb0EEptEv(%"class.std::__shared_ptr_access.57"* %49) #3
  %51 = bitcast %"class.mini::MiniInterpreter"* %18 to %"class.ast::ASTVisitor"*
  %52 = bitcast %"class.ast::Expression"* %50 to void (%"struct.antlrcpp::Any"*, %"class.ast::Expression"*, %"class.ast::ASTVisitor"*)***
  %53 = load void (%"struct.antlrcpp::Any"*, %"class.ast::Expression"*, %"class.ast::ASTVisitor"*)**, void (%"struct.antlrcpp::Any"*, %"class.ast::Expression"*, %"class.ast::ASTVisitor"*)*** %52, align 8
  %54 = getelementptr inbounds void (%"struct.antlrcpp::Any"*, %"class.ast::Expression"*, %"class.ast::ASTVisitor"*)*, void (%"struct.antlrcpp::Any"*, %"class.ast::Expression"*, %"class.ast::ASTVisitor"*)** %53, i64 0
  %55 = load void (%"struct.antlrcpp::Any"*, %"class.ast::Expression"*, %"class.ast::ASTVisitor"*)*, void (%"struct.antlrcpp::Any"*, %"class.ast::Expression"*, %"class.ast::ASTVisitor"*)** %54, align 8
  invoke void %55(%"struct.antlrcpp::Any"* sret %14, %"class.ast::Expression"* %50, %"class.ast::ASTVisitor"* %51)
          to label %56 unwind label %32

56:                                               ; preds = %48
  invoke void @_ZN8antlrcpp3AnycvT_IN4mini10TypedValueEEEv(%"class.mini::TypedValue"* sret %13, %"struct.antlrcpp::Any"* %14)
          to label %57 unwind label %85

57:                                               ; preds = %56
  call void @_ZN8antlrcpp3AnyD1Ev(%"struct.antlrcpp::Any"* %14) #3
  %58 = load %"class.std::vector.24"*, %"class.std::vector.24"** %8, align 8
  %59 = load i32, i32* %12, align 4
  %60 = sext i32 %59 to i64
  %61 = invoke dereferenceable(16) %"class.std::shared_ptr.29"* @_ZNSt6vectorISt10shared_ptrIN3ast11DeclarationEESaIS3_EE2atEm(%"class.std::vector.24"* %58, i64 %60)
          to label %62 unwind label %89

62:                                               ; preds = %57
  %63 = bitcast %"class.std::shared_ptr.29"* %61 to %"class.std::__shared_ptr_access.31"*
  %64 = call %"class.ast::Declaration"* @_ZNKSt19__shared_ptr_accessIN3ast11DeclarationELN9__gnu_cxx12_Lock_policyE2ELb0ELb0EEptEv(%"class.std::__shared_ptr_access.31"* %63) #3
  %65 = bitcast %"class.mini::MiniInterpreter"* %18 to %"class.ast::ASTVisitor"*
  invoke void @_ZN3ast11Declaration6acceptEPNS_10ASTVisitorE(%"struct.antlrcpp::Any"* sret %16, %"class.ast::Declaration"* %64, %"class.ast::ASTVisitor"* %65)
          to label %66 unwind label %89

66:                                               ; preds = %62
  invoke void @_ZN8antlrcpp3AnycvT_ISt10shared_ptrIN4mini10TypedValueEEEEv(%"class.std::shared_ptr.47"* sret %15, %"struct.antlrcpp::Any"* %16)
          to label %67 unwind label %93

67:                                               ; preds = %66
  call void @_ZN8antlrcpp3AnyD1Ev(%"struct.antlrcpp::Any"* %16) #3
  %68 = getelementptr inbounds %"class.mini::TypedValue", %"class.mini::TypedValue"* %13, i32 0, i32 1
  %69 = bitcast %"class.std::shared_ptr.47"* %15 to %"class.std::__shared_ptr_access.49"*
  %70 = call %"class.mini::TypedValue"* @_ZNKSt19__shared_ptr_accessIN4mini10TypedValueELN9__gnu_cxx12_Lock_policyE2ELb0ELb0EEptEv(%"class.std::__shared_ptr_access.49"* %69) #3
  %71 = getelementptr inbounds %"class.mini::TypedValue", %"class.mini::TypedValue"* %70, i32 0, i32 1
  %72 = call zeroext i1 @_ZStneIcSt11char_traitsIcESaIcEEbRKNSt7__cxx1112basic_stringIT_T0_T1_EESA_(%"class.std::__cxx11::basic_string"* dereferenceable(32) %68, %"class.std::__cxx11::basic_string"* dereferenceable(32) %71) #3
  br i1 %72, label %73, label %105

73:                                               ; preds = %67
  %74 = invoke zeroext i1 @_ZN4mini10TypedValue8isStructEv(%"class.mini::TypedValue"* %13)
          to label %75 unwind label %97

75:                                               ; preds = %73
  br i1 %74, label %76, label %81

76:                                               ; preds = %75
  %77 = bitcast %"class.std::shared_ptr.47"* %15 to %"class.std::__shared_ptr_access.49"*
  %78 = call %"class.mini::TypedValue"* @_ZNKSt19__shared_ptr_accessIN4mini10TypedValueELN9__gnu_cxx12_Lock_policyE2ELb0ELb0EEptEv(%"class.std::__shared_ptr_access.49"* %77) #3
  %79 = invoke zeroext i1 @_ZN4mini10TypedValue8isStructEv(%"class.mini::TypedValue"* %78)
          to label %80 unwind label %97

80:                                               ; preds = %76
  br i1 %79, label %105, label %81

81:                                               ; preds = %80, %75
  %82 = call i8* @__cxa_allocate_exception(i64 16) #3
  %83 = bitcast i8* %82 to %"class.std::runtime_error"*
  invoke void @_ZNSt13runtime_errorC1EPKc(%"class.std::runtime_error"* %83, i8* getelementptr inbounds ([37 x i8], [37 x i8]* @.str.6, i64 0, i64 0))
          to label %84 unwind label %101

84:                                               ; preds = %81
  invoke void @__cxa_throw(i8* %82, i8* bitcast (i8** @_ZTISt13runtime_error to i8*), i8* bitcast (void (%"class.std::runtime_error"*)* @_ZNSt13runtime_errorD1Ev to i8*)) #16
          to label %138 unwind label %97

85:                                               ; preds = %56
  %86 = landingpad { i8*, i32 }
          cleanup
  %87 = extractvalue { i8*, i32 } %86, 0
  store i8* %87, i8** %10, align 8
  %88 = extractvalue { i8*, i32 } %86, 1
  store i32 %88, i32* %11, align 4
  call void @_ZN8antlrcpp3AnyD1Ev(%"struct.antlrcpp::Any"* %14) #3
  br label %132

89:                                               ; preds = %62, %57
  %90 = landingpad { i8*, i32 }
          cleanup
  %91 = extractvalue { i8*, i32 } %90, 0
  store i8* %91, i8** %10, align 8
  %92 = extractvalue { i8*, i32 } %90, 1
  store i32 %92, i32* %11, align 4
  br label %127

93:                                               ; preds = %66
  %94 = landingpad { i8*, i32 }
          cleanup
  %95 = extractvalue { i8*, i32 } %94, 0
  store i8* %95, i8** %10, align 8
  %96 = extractvalue { i8*, i32 } %94, 1
  store i32 %96, i32* %11, align 4
  call void @_ZN8antlrcpp3AnyD1Ev(%"struct.antlrcpp::Any"* %16) #3
  br label %127

97:                                               ; preds = %116, %111, %105, %84, %76, %73
  %98 = landingpad { i8*, i32 }
          cleanup
  %99 = extractvalue { i8*, i32 } %98, 0
  store i8* %99, i8** %10, align 8
  %100 = extractvalue { i8*, i32 } %98, 1
  store i32 %100, i32* %11, align 4
  br label %126

101:                                              ; preds = %81
  %102 = landingpad { i8*, i32 }
          cleanup
  %103 = extractvalue { i8*, i32 } %102, 0
  store i8* %103, i8** %10, align 8
  %104 = extractvalue { i8*, i32 } %102, 1
  store i32 %104, i32* %11, align 4
  call void @__cxa_free_exception(i8* %82) #3
  br label %126

105:                                              ; preds = %80, %67
  %106 = getelementptr inbounds %"class.mini::TypedValue", %"class.mini::TypedValue"* %13, i32 0, i32 0
  %107 = bitcast %"class.std::shared_ptr.47"* %15 to %"class.std::__shared_ptr_access.49"*
  %108 = call %"class.mini::TypedValue"* @_ZNKSt19__shared_ptr_accessIN4mini10TypedValueELN9__gnu_cxx12_Lock_policyE2ELb0ELb0EEptEv(%"class.std::__shared_ptr_access.49"* %107) #3
  %109 = getelementptr inbounds %"class.mini::TypedValue", %"class.mini::TypedValue"* %108, i32 0, i32 0
  %110 = invoke dereferenceable(16) %"struct.antlrcpp::Any"* @_ZN8antlrcpp3AnyaSERKS0_(%"struct.antlrcpp::Any"* %109, %"struct.antlrcpp::Any"* dereferenceable(16) %106)
          to label %111 unwind label %97

111:                                              ; preds = %105
  %112 = load %"class.std::vector.24"*, %"class.std::vector.24"** %8, align 8
  %113 = load i32, i32* %12, align 4
  %114 = sext i32 %113 to i64
  %115 = invoke dereferenceable(16) %"class.std::shared_ptr.29"* @_ZNSt6vectorISt10shared_ptrIN3ast11DeclarationEESaIS3_EE2atEm(%"class.std::vector.24"* %112, i64 %114)
          to label %116 unwind label %97

116:                                              ; preds = %111
  %117 = bitcast %"class.std::shared_ptr.29"* %115 to %"class.std::__shared_ptr_access.31"*
  %118 = call %"class.ast::Declaration"* @_ZNKSt19__shared_ptr_accessIN3ast11DeclarationELN9__gnu_cxx12_Lock_policyE2ELb0ELb0EEptEv(%"class.std::__shared_ptr_access.31"* %117) #3
  %119 = getelementptr inbounds %"class.ast::Declaration", %"class.ast::Declaration"* %118, i32 0, i32 2
  %120 = invoke dereferenceable(16) %"class.std::shared_ptr.47"* @_ZNSt3mapINSt7__cxx1112basic_stringIcSt11char_traitsIcESaIcEEESt10shared_ptrIN4mini10TypedValueEESt4lessIS5_ESaISt4pairIKS5_S9_EEEixERSD_(%"class.std::map"* %0, %"class.std::__cxx11::basic_string"* dereferenceable(32) %119)
          to label %121 unwind label %97

121:                                              ; preds = %116
  %122 = call dereferenceable(16) %"class.std::shared_ptr.47"* @_ZNSt10shared_ptrIN4mini10TypedValueEEaSERKS2_(%"class.std::shared_ptr.47"* %120, %"class.std::shared_ptr.47"* dereferenceable(16) %15) #3
  call void @_ZNSt10shared_ptrIN4mini10TypedValueEED2Ev(%"class.std::shared_ptr.47"* %15) #3
  call void @_ZN4mini10TypedValueD2Ev(%"class.mini::TypedValue"* %13) #3
  br label %123

123:                                              ; preds = %121
  %124 = load i32, i32* %12, align 4
  %125 = add nsw i32 %124, 1
  store i32 %125, i32* %12, align 4
  br label %37

126:                                              ; preds = %101, %97
  call void @_ZNSt10shared_ptrIN4mini10TypedValueEED2Ev(%"class.std::shared_ptr.47"* %15) #3
  br label %127

127:                                              ; preds = %126, %93, %89
  call void @_ZN4mini10TypedValueD2Ev(%"class.mini::TypedValue"* %13) #3
  br label %132

128:                                              ; preds = %37
  store i1 true, i1* %9, align 1
  %129 = load i1, i1* %9, align 1
  br i1 %129, label %131, label %130

130:                                              ; preds = %128
  call void @_ZNSt3mapINSt7__cxx1112basic_stringIcSt11char_traitsIcESaIcEEESt10shared_ptrIN4mini10TypedValueEESt4lessIS5_ESaISt4pairIKS5_S9_EEED2Ev(%"class.std::map"* %0) #3
  br label %131

131:                                              ; preds = %130, %128
  ret void

132:                                              ; preds = %127, %85, %32, %28
  call void @_ZNSt3mapINSt7__cxx1112basic_stringIcSt11char_traitsIcESaIcEEESt10shared_ptrIN4mini10TypedValueEESt4lessIS5_ESaISt4pairIKS5_S9_EEED2Ev(%"class.std::map"* %0) #3
  br label %133

133:                                              ; preds = %132
  %134 = load i8*, i8** %10, align 8
  %135 = load i32, i32* %11, align 4
  %136 = insertvalue { i8*, i32 } undef, i8* %134, 0
  %137 = insertvalue { i8*, i32 } %136, i32 %135, 1
  resume { i8*, i32 } %137

138:                                              ; preds = %84, %27
  unreachable
}

; Function Attrs: noinline nounwind optnone uwtable
define linkonce_odr dso_local void @_ZNSt3mapINSt7__cxx1112basic_stringIcSt11char_traitsIcESaIcEEESt10shared_ptrIN4mini10TypedValueEESt4lessIS5_ESaISt4pairIKS5_S9_EEEC2Ev(%"class.std::map"* %0) unnamed_addr #5 comdat align 2 {
  %2 = alloca %"class.std::map"*, align 8
  store %"class.std::map"* %0, %"class.std::map"** %2, align 8
  %3 = load %"class.std::map"*, %"class.std::map"** %2, align 8
  %4 = getelementptr inbounds %"class.std::map", %"class.std::map"* %3, i32 0, i32 0
  call void @_ZNSt8_Rb_treeINSt7__cxx1112basic_stringIcSt11char_traitsIcESaIcEEESt4pairIKS5_St10shared_ptrIN4mini10TypedValueEEESt10_Select1stISC_ESt4lessIS5_ESaISC_EEC2Ev(%"class.std::_Rb_tree"* %4) #3
  ret void
}

; Function Attrs: noinline nounwind optnone uwtable
define linkonce_odr dso_local i64 @_ZNKSt6vectorISt10shared_ptrIN3ast11DeclarationEESaIS3_EE4sizeEv(%"class.std::vector.24"* %0) #5 comdat align 2 {
  %2 = alloca %"class.std::vector.24"*, align 8
  store %"class.std::vector.24"* %0, %"class.std::vector.24"** %2, align 8
  %3 = load %"class.std::vector.24"*, %"class.std::vector.24"** %2, align 8
  %4 = bitcast %"class.std::vector.24"* %3 to %"struct.std::_Vector_base.25"*
  %5 = getelementptr inbounds %"struct.std::_Vector_base.25", %"struct.std::_Vector_base.25"* %4, i32 0, i32 0
  %6 = getelementptr inbounds %"struct.std::_Vector_base<std::shared_ptr<ast::Declaration>, std::allocator<std::shared_ptr<ast::Declaration> > >::_Vector_impl", %"struct.std::_Vector_base<std::shared_ptr<ast::Declaration>, std::allocator<std::shared_ptr<ast::Declaration> > >::_Vector_impl"* %5, i32 0, i32 1
  %7 = load %"class.std::shared_ptr.29"*, %"class.std::shared_ptr.29"** %6, align 8
  %8 = bitcast %"class.std::vector.24"* %3 to %"struct.std::_Vector_base.25"*
  %9 = getelementptr inbounds %"struct.std::_Vector_base.25", %"struct.std::_Vector_base.25"* %8, i32 0, i32 0
  %10 = getelementptr inbounds %"struct.std::_Vector_base<std::shared_ptr<ast::Declaration>, std::allocator<std::shared_ptr<ast::Declaration> > >::_Vector_impl", %"struct.std::_Vector_base<std::shared_ptr<ast::Declaration>, std::allocator<std::shared_ptr<ast::Declaration> > >::_Vector_impl"* %9, i32 0, i32 0
  %11 = load %"class.std::shared_ptr.29"*, %"class.std::shared_ptr.29"** %10, align 8
  %12 = ptrtoint %"class.std::shared_ptr.29"* %7 to i64
  %13 = ptrtoint %"class.std::shared_ptr.29"* %11 to i64
  %14 = sub i64 %12, %13
  %15 = sdiv exact i64 %14, 16
  ret i64 %15
}

; Function Attrs: noinline nounwind optnone uwtable
define linkonce_odr dso_local i64 @_ZNKSt6vectorISt10shared_ptrIN3ast10ExpressionEESaIS3_EE4sizeEv(%"class.std::vector.50"* %0) #5 comdat align 2 {
  %2 = alloca %"class.std::vector.50"*, align 8
  store %"class.std::vector.50"* %0, %"class.std::vector.50"** %2, align 8
  %3 = load %"class.std::vector.50"*, %"class.std::vector.50"** %2, align 8
  %4 = bitcast %"class.std::vector.50"* %3 to %"struct.std::_Vector_base.51"*
  %5 = getelementptr inbounds %"struct.std::_Vector_base.51", %"struct.std::_Vector_base.51"* %4, i32 0, i32 0
  %6 = getelementptr inbounds %"struct.std::_Vector_base<std::shared_ptr<ast::Expression>, std::allocator<std::shared_ptr<ast::Expression> > >::_Vector_impl", %"struct.std::_Vector_base<std::shared_ptr<ast::Expression>, std::allocator<std::shared_ptr<ast::Expression> > >::_Vector_impl"* %5, i32 0, i32 1
  %7 = load %"class.std::shared_ptr.55"*, %"class.std::shared_ptr.55"** %6, align 8
  %8 = bitcast %"class.std::vector.50"* %3 to %"struct.std::_Vector_base.51"*
  %9 = getelementptr inbounds %"struct.std::_Vector_base.51", %"struct.std::_Vector_base.51"* %8, i32 0, i32 0
  %10 = getelementptr inbounds %"struct.std::_Vector_base<std::shared_ptr<ast::Expression>, std::allocator<std::shared_ptr<ast::Expression> > >::_Vector_impl", %"struct.std::_Vector_base<std::shared_ptr<ast::Expression>, std::allocator<std::shared_ptr<ast::Expression> > >::_Vector_impl"* %9, i32 0, i32 0
  %11 = load %"class.std::shared_ptr.55"*, %"class.std::shared_ptr.55"** %10, align 8
  %12 = ptrtoint %"class.std::shared_ptr.55"* %7 to i64
  %13 = ptrtoint %"class.std::shared_ptr.55"* %11 to i64
  %14 = sub i64 %12, %13
  %15 = sdiv exact i64 %14, 16
  ret i64 %15
}

; Function Attrs: noinline optnone uwtable
define linkonce_odr dso_local dereferenceable(16) %"class.std::shared_ptr.55"* @_ZNSt6vectorISt10shared_ptrIN3ast10ExpressionEESaIS3_EE2atEm(%"class.std::vector.50"* %0, i64 %1) #4 comdat align 2 {
  %3 = alloca %"class.std::vector.50"*, align 8
  %4 = alloca i64, align 8
  store %"class.std::vector.50"* %0, %"class.std::vector.50"** %3, align 8
  store i64 %1, i64* %4, align 8
  %5 = load %"class.std::vector.50"*, %"class.std::vector.50"** %3, align 8
  %6 = load i64, i64* %4, align 8
  call void @_ZNKSt6vectorISt10shared_ptrIN3ast10ExpressionEESaIS3_EE14_M_range_checkEm(%"class.std::vector.50"* %5, i64 %6)
  %7 = load i64, i64* %4, align 8
  %8 = call dereferenceable(16) %"class.std::shared_ptr.55"* @_ZNSt6vectorISt10shared_ptrIN3ast10ExpressionEESaIS3_EEixEm(%"class.std::vector.50"* %5, i64 %7) #3
  ret %"class.std::shared_ptr.55"* %8
}

; Function Attrs: noinline nounwind optnone uwtable
define linkonce_odr dso_local %"class.ast::Expression"* @_ZNKSt19__shared_ptr_accessIN3ast10ExpressionELN9__gnu_cxx12_Lock_policyE2ELb0ELb0EEptEv(%"class.std::__shared_ptr_access.57"* %0) #5 comdat align 2 {
  %2 = alloca %"class.std::__shared_ptr_access.57"*, align 8
  store %"class.std::__shared_ptr_access.57"* %0, %"class.std::__shared_ptr_access.57"** %2, align 8
  %3 = load %"class.std::__shared_ptr_access.57"*, %"class.std::__shared_ptr_access.57"** %2, align 8
  %4 = call %"class.ast::Expression"* @_ZNKSt19__shared_ptr_accessIN3ast10ExpressionELN9__gnu_cxx12_Lock_policyE2ELb0ELb0EE6_M_getEv(%"class.std::__shared_ptr_access.57"* %3) #3
  ret %"class.ast::Expression"* %4
}

; Function Attrs: noinline optnone uwtable
define linkonce_odr dso_local void @_ZN8antlrcpp3AnycvT_IN4mini10TypedValueEEEv(%"class.mini::TypedValue"* noalias sret %0, %"struct.antlrcpp::Any"* %1) #4 comdat align 2 {
  %3 = alloca i8*, align 8
  %4 = alloca %"struct.antlrcpp::Any"*, align 8
  %5 = bitcast %"class.mini::TypedValue"* %0 to i8*
  store i8* %5, i8** %3, align 8
  store %"struct.antlrcpp::Any"* %1, %"struct.antlrcpp::Any"** %4, align 8
  %6 = load %"struct.antlrcpp::Any"*, %"struct.antlrcpp::Any"** %4, align 8
  %7 = call dereferenceable(48) %"class.mini::TypedValue"* @_ZN8antlrcpp3Any2asIN4mini10TypedValueEEERNSt5decayIT_E4typeEv(%"struct.antlrcpp::Any"* %6)
  call void @_ZN4mini10TypedValueC2ERKS0_(%"class.mini::TypedValue"* %0, %"class.mini::TypedValue"* dereferenceable(48) %7)
  ret void
}

; Function Attrs: noinline optnone uwtable
define linkonce_odr dso_local dereferenceable(16) %"class.std::shared_ptr.29"* @_ZNSt6vectorISt10shared_ptrIN3ast11DeclarationEESaIS3_EE2atEm(%"class.std::vector.24"* %0, i64 %1) #4 comdat align 2 {
  %3 = alloca %"class.std::vector.24"*, align 8
  %4 = alloca i64, align 8
  store %"class.std::vector.24"* %0, %"class.std::vector.24"** %3, align 8
  store i64 %1, i64* %4, align 8
  %5 = load %"class.std::vector.24"*, %"class.std::vector.24"** %3, align 8
  %6 = load i64, i64* %4, align 8
  call void @_ZNKSt6vectorISt10shared_ptrIN3ast11DeclarationEESaIS3_EE14_M_range_checkEm(%"class.std::vector.24"* %5, i64 %6)
  %7 = load i64, i64* %4, align 8
  %8 = call dereferenceable(16) %"class.std::shared_ptr.29"* @_ZNSt6vectorISt10shared_ptrIN3ast11DeclarationEESaIS3_EEixEm(%"class.std::vector.24"* %5, i64 %7) #3
  ret %"class.std::shared_ptr.29"* %8
}

; Function Attrs: noinline nounwind optnone uwtable
define linkonce_odr dso_local %"class.ast::Declaration"* @_ZNKSt19__shared_ptr_accessIN3ast11DeclarationELN9__gnu_cxx12_Lock_policyE2ELb0ELb0EEptEv(%"class.std::__shared_ptr_access.31"* %0) #5 comdat align 2 {
  %2 = alloca %"class.std::__shared_ptr_access.31"*, align 8
  store %"class.std::__shared_ptr_access.31"* %0, %"class.std::__shared_ptr_access.31"** %2, align 8
  %3 = load %"class.std::__shared_ptr_access.31"*, %"class.std::__shared_ptr_access.31"** %2, align 8
  %4 = call %"class.ast::Declaration"* @_ZNKSt19__shared_ptr_accessIN3ast11DeclarationELN9__gnu_cxx12_Lock_policyE2ELb0ELb0EE6_M_getEv(%"class.std::__shared_ptr_access.31"* %3) #3
  ret %"class.ast::Declaration"* %4
}

declare dso_local void @_ZN3ast11Declaration6acceptEPNS_10ASTVisitorE(%"struct.antlrcpp::Any"* sret, %"class.ast::Declaration"*, %"class.ast::ASTVisitor"*) #1

; Function Attrs: noinline optnone uwtable
define linkonce_odr dso_local void @_ZN8antlrcpp3AnycvT_ISt10shared_ptrIN4mini10TypedValueEEEEv(%"class.std::shared_ptr.47"* noalias sret %0, %"struct.antlrcpp::Any"* %1) #4 comdat align 2 {
  %3 = alloca i8*, align 8
  %4 = alloca %"struct.antlrcpp::Any"*, align 8
  %5 = bitcast %"class.std::shared_ptr.47"* %0 to i8*
  store i8* %5, i8** %3, align 8
  store %"struct.antlrcpp::Any"* %1, %"struct.antlrcpp::Any"** %4, align 8
  %6 = load %"struct.antlrcpp::Any"*, %"struct.antlrcpp::Any"** %4, align 8
  %7 = call dereferenceable(16) %"class.std::shared_ptr.47"* @_ZN8antlrcpp3Any2asISt10shared_ptrIN4mini10TypedValueEEEERNSt5decayIT_E4typeEv(%"struct.antlrcpp::Any"* %6)
  call void @_ZNSt10shared_ptrIN4mini10TypedValueEEC2ERKS2_(%"class.std::shared_ptr.47"* %0, %"class.std::shared_ptr.47"* dereferenceable(16) %7) #3
  ret void
}

; Function Attrs: noinline nounwind optnone uwtable
define linkonce_odr dso_local zeroext i1 @_ZStneIcSt11char_traitsIcESaIcEEbRKNSt7__cxx1112basic_stringIT_T0_T1_EESA_(%"class.std::__cxx11::basic_string"* dereferenceable(32) %0, %"class.std::__cxx11::basic_string"* dereferenceable(32) %1) #5 comdat {
  %3 = alloca %"class.std::__cxx11::basic_string"*, align 8
  %4 = alloca %"class.std::__cxx11::basic_string"*, align 8
  store %"class.std::__cxx11::basic_string"* %0, %"class.std::__cxx11::basic_string"** %3, align 8
  store %"class.std::__cxx11::basic_string"* %1, %"class.std::__cxx11::basic_string"** %4, align 8
  %5 = load %"class.std::__cxx11::basic_string"*, %"class.std::__cxx11::basic_string"** %3, align 8
  %6 = load %"class.std::__cxx11::basic_string"*, %"class.std::__cxx11::basic_string"** %4, align 8
  %7 = call zeroext i1 @_ZSteqIcEN9__gnu_cxx11__enable_ifIXsr9__is_charIT_EE7__valueEbE6__typeERKNSt7__cxx1112basic_stringIS2_St11char_traitsIS2_ESaIS2_EEESC_(%"class.std::__cxx11::basic_string"* dereferenceable(32) %5, %"class.std::__cxx11::basic_string"* dereferenceable(32) %6) #3
  %8 = xor i1 %7, true
  ret i1 %8
}

; Function Attrs: noinline nounwind optnone uwtable
define linkonce_odr dso_local %"class.mini::TypedValue"* @_ZNKSt19__shared_ptr_accessIN4mini10TypedValueELN9__gnu_cxx12_Lock_policyE2ELb0ELb0EEptEv(%"class.std::__shared_ptr_access.49"* %0) #5 comdat align 2 {
  %2 = alloca %"class.std::__shared_ptr_access.49"*, align 8
  store %"class.std::__shared_ptr_access.49"* %0, %"class.std::__shared_ptr_access.49"** %2, align 8
  %3 = load %"class.std::__shared_ptr_access.49"*, %"class.std::__shared_ptr_access.49"** %2, align 8
  %4 = call %"class.mini::TypedValue"* @_ZNKSt19__shared_ptr_accessIN4mini10TypedValueELN9__gnu_cxx12_Lock_policyE2ELb0ELb0EE6_M_getEv(%"class.std::__shared_ptr_access.49"* %3) #3
  ret %"class.mini::TypedValue"* %4
}

; Function Attrs: noinline optnone uwtable
define linkonce_odr dso_local dereferenceable(16) %"struct.antlrcpp::Any"* @_ZN8antlrcpp3AnyaSERKS0_(%"struct.antlrcpp::Any"* %0, %"struct.antlrcpp::Any"* dereferenceable(16) %1) #4 comdat align 2 {
  %3 = alloca %"struct.antlrcpp::Any"*, align 8
  %4 = alloca %"struct.antlrcpp::Any"*, align 8
  %5 = alloca %"struct.antlrcpp::Any"*, align 8
  %6 = alloca %"struct.antlrcpp::Any::Base"*, align 8
  store %"struct.antlrcpp::Any"* %0, %"struct.antlrcpp::Any"** %4, align 8
  store %"struct.antlrcpp::Any"* %1, %"struct.antlrcpp::Any"** %5, align 8
  %7 = load %"struct.antlrcpp::Any"*, %"struct.antlrcpp::Any"** %4, align 8
  %8 = getelementptr inbounds %"struct.antlrcpp::Any", %"struct.antlrcpp::Any"* %7, i32 0, i32 1
  %9 = load %"struct.antlrcpp::Any::Base"*, %"struct.antlrcpp::Any::Base"** %8, align 8
  %10 = load %"struct.antlrcpp::Any"*, %"struct.antlrcpp::Any"** %5, align 8
  %11 = getelementptr inbounds %"struct.antlrcpp::Any", %"struct.antlrcpp::Any"* %10, i32 0, i32 1
  %12 = load %"struct.antlrcpp::Any::Base"*, %"struct.antlrcpp::Any::Base"** %11, align 8
  %13 = icmp eq %"struct.antlrcpp::Any::Base"* %9, %12
  br i1 %13, label %14, label %15

14:                                               ; preds = %2
  store %"struct.antlrcpp::Any"* %7, %"struct.antlrcpp::Any"** %3, align 8
  br label %33

15:                                               ; preds = %2
  %16 = getelementptr inbounds %"struct.antlrcpp::Any", %"struct.antlrcpp::Any"* %7, i32 0, i32 1
  %17 = load %"struct.antlrcpp::Any::Base"*, %"struct.antlrcpp::Any::Base"** %16, align 8
  store %"struct.antlrcpp::Any::Base"* %17, %"struct.antlrcpp::Any::Base"** %6, align 8
  %18 = load %"struct.antlrcpp::Any"*, %"struct.antlrcpp::Any"** %5, align 8
  %19 = call %"struct.antlrcpp::Any::Base"* @_ZNK8antlrcpp3Any5cloneEv(%"struct.antlrcpp::Any"* %18)
  %20 = getelementptr inbounds %"struct.antlrcpp::Any", %"struct.antlrcpp::Any"* %7, i32 0, i32 1
  store %"struct.antlrcpp::Any::Base"* %19, %"struct.antlrcpp::Any::Base"** %20, align 8
  %21 = load %"struct.antlrcpp::Any::Base"*, %"struct.antlrcpp::Any::Base"** %6, align 8
  %22 = icmp ne %"struct.antlrcpp::Any::Base"* %21, null
  br i1 %22, label %23, label %32

23:                                               ; preds = %15
  %24 = load %"struct.antlrcpp::Any::Base"*, %"struct.antlrcpp::Any::Base"** %6, align 8
  %25 = icmp eq %"struct.antlrcpp::Any::Base"* %24, null
  br i1 %25, label %31, label %26

26:                                               ; preds = %23
  %27 = bitcast %"struct.antlrcpp::Any::Base"* %24 to void (%"struct.antlrcpp::Any::Base"*)***
  %28 = load void (%"struct.antlrcpp::Any::Base"*)**, void (%"struct.antlrcpp::Any::Base"*)*** %27, align 8
  %29 = getelementptr inbounds void (%"struct.antlrcpp::Any::Base"*)*, void (%"struct.antlrcpp::Any::Base"*)** %28, i64 1
  %30 = load void (%"struct.antlrcpp::Any::Base"*)*, void (%"struct.antlrcpp::Any::Base"*)** %29, align 8
  call void %30(%"struct.antlrcpp::Any::Base"* %24) #3
  br label %31

31:                                               ; preds = %26, %23
  br label %32

32:                                               ; preds = %31, %15
  store %"struct.antlrcpp::Any"* %7, %"struct.antlrcpp::Any"** %3, align 8
  br label %33

33:                                               ; preds = %32, %14
  %34 = load %"struct.antlrcpp::Any"*, %"struct.antlrcpp::Any"** %3, align 8
  ret %"struct.antlrcpp::Any"* %34
}

; Function Attrs: noinline optnone uwtable
define linkonce_odr dso_local dereferenceable(16) %"class.std::shared_ptr.47"* @_ZNSt3mapINSt7__cxx1112basic_stringIcSt11char_traitsIcESaIcEEESt10shared_ptrIN4mini10TypedValueEESt4lessIS5_ESaISt4pairIKS5_S9_EEEixERSD_(%"class.std::map"* %0, %"class.std::__cxx11::basic_string"* dereferenceable(32) %1) #4 comdat align 2 {
  %3 = alloca %"class.std::map"*, align 8
  %4 = alloca %"class.std::__cxx11::basic_string"*, align 8
  %5 = alloca %"struct.std::_Rb_tree_iterator", align 8
  %6 = alloca %"struct.std::_Rb_tree_iterator", align 8
  %7 = alloca %"struct.std::less", align 1
  %8 = alloca %"struct.std::less", align 1
  %9 = alloca %"struct.std::_Rb_tree_iterator", align 8
  %10 = alloca %"struct.std::_Rb_tree_const_iterator", align 8
  %11 = alloca %"class.std::tuple", align 8
  %12 = alloca %"class.std::tuple.93", align 1
  store %"class.std::map"* %0, %"class.std::map"** %3, align 8
  store %"class.std::__cxx11::basic_string"* %1, %"class.std::__cxx11::basic_string"** %4, align 8
  %13 = load %"class.std::map"*, %"class.std::map"** %3, align 8
  %14 = load %"class.std::__cxx11::basic_string"*, %"class.std::__cxx11::basic_string"** %4, align 8
  %15 = call %"struct.std::_Rb_tree_node_base"* @_ZNSt3mapINSt7__cxx1112basic_stringIcSt11char_traitsIcESaIcEEESt10shared_ptrIN4mini10TypedValueEESt4lessIS5_ESaISt4pairIKS5_S9_EEE11lower_boundERSD_(%"class.std::map"* %13, %"class.std::__cxx11::basic_string"* dereferenceable(32) %14)
  %16 = getelementptr inbounds %"struct.std::_Rb_tree_iterator", %"struct.std::_Rb_tree_iterator"* %5, i32 0, i32 0
  store %"struct.std::_Rb_tree_node_base"* %15, %"struct.std::_Rb_tree_node_base"** %16, align 8
  %17 = call %"struct.std::_Rb_tree_node_base"* @_ZNSt3mapINSt7__cxx1112basic_stringIcSt11char_traitsIcESaIcEEESt10shared_ptrIN4mini10TypedValueEESt4lessIS5_ESaISt4pairIKS5_S9_EEE3endEv(%"class.std::map"* %13) #3
  %18 = getelementptr inbounds %"struct.std::_Rb_tree_iterator", %"struct.std::_Rb_tree_iterator"* %6, i32 0, i32 0
  store %"struct.std::_Rb_tree_node_base"* %17, %"struct.std::_Rb_tree_node_base"** %18, align 8
  %19 = call zeroext i1 @_ZNKSt17_Rb_tree_iteratorISt4pairIKNSt7__cxx1112basic_stringIcSt11char_traitsIcESaIcEEESt10shared_ptrIN4mini10TypedValueEEEEeqERKSD_(%"struct.std::_Rb_tree_iterator"* %5, %"struct.std::_Rb_tree_iterator"* dereferenceable(8) %6) #3
  br i1 %19, label %25, label %20

20:                                               ; preds = %2
  call void @_ZNKSt3mapINSt7__cxx1112basic_stringIcSt11char_traitsIcESaIcEEESt10shared_ptrIN4mini10TypedValueEESt4lessIS5_ESaISt4pairIKS5_S9_EEE8key_compEv(%"class.std::map"* %13)
  %21 = load %"class.std::__cxx11::basic_string"*, %"class.std::__cxx11::basic_string"** %4, align 8
  %22 = call dereferenceable(48) %"struct.std::pair.68"* @_ZNKSt17_Rb_tree_iteratorISt4pairIKNSt7__cxx1112basic_stringIcSt11char_traitsIcESaIcEEESt10shared_ptrIN4mini10TypedValueEEEEdeEv(%"struct.std::_Rb_tree_iterator"* %5) #3
  %23 = getelementptr inbounds %"struct.std::pair.68", %"struct.std::pair.68"* %22, i32 0, i32 0
  %24 = call zeroext i1 @_ZNKSt4lessINSt7__cxx1112basic_stringIcSt11char_traitsIcESaIcEEEEclERKS5_S8_(%"struct.std::less"* %7, %"class.std::__cxx11::basic_string"* dereferenceable(32) %21, %"class.std::__cxx11::basic_string"* dereferenceable(32) %23)
  br label %25

25:                                               ; preds = %20, %2
  %26 = phi i1 [ true, %2 ], [ %24, %20 ]
  br i1 %26, label %27, label %36

27:                                               ; preds = %25
  %28 = getelementptr inbounds %"class.std::map", %"class.std::map"* %13, i32 0, i32 0
  call void @_ZNSt23_Rb_tree_const_iteratorISt4pairIKNSt7__cxx1112basic_stringIcSt11char_traitsIcESaIcEEESt10shared_ptrIN4mini10TypedValueEEEEC2ERKSt17_Rb_tree_iteratorISC_E(%"struct.std::_Rb_tree_const_iterator"* %10, %"struct.std::_Rb_tree_iterator"* dereferenceable(8) %5) #3
  %29 = load %"class.std::__cxx11::basic_string"*, %"class.std::__cxx11::basic_string"** %4, align 8
  call void @_ZNSt5tupleIJRKNSt7__cxx1112basic_stringIcSt11char_traitsIcESaIcEEEEEC2IvLb1EEES7_(%"class.std::tuple"* %11, %"class.std::__cxx11::basic_string"* dereferenceable(32) %29)
  %30 = getelementptr inbounds %"struct.std::_Rb_tree_const_iterator", %"struct.std::_Rb_tree_const_iterator"* %10, i32 0, i32 0
  %31 = load %"struct.std::_Rb_tree_node_base"*, %"struct.std::_Rb_tree_node_base"** %30, align 8
  %32 = call %"struct.std::_Rb_tree_node_base"* @_ZNSt8_Rb_treeINSt7__cxx1112basic_stringIcSt11char_traitsIcESaIcEEESt4pairIKS5_St10shared_ptrIN4mini10TypedValueEEESt10_Select1stISC_ESt4lessIS5_ESaISC_EE22_M_emplace_hint_uniqueIJRKSt21piecewise_construct_tSt5tupleIJRS7_EESN_IJEEEEESt17_Rb_tree_iteratorISC_ESt23_Rb_tree_const_iteratorISC_EDpOT_(%"class.std::_Rb_tree"* %28, %"struct.std::_Rb_tree_node_base"* %31, %"struct.std::piecewise_construct_t"* dereferenceable(1) @_ZStL19piecewise_construct, %"class.std::tuple"* dereferenceable(8) %11, %"class.std::tuple.93"* dereferenceable(1) %12)
  %33 = getelementptr inbounds %"struct.std::_Rb_tree_iterator", %"struct.std::_Rb_tree_iterator"* %9, i32 0, i32 0
  store %"struct.std::_Rb_tree_node_base"* %32, %"struct.std::_Rb_tree_node_base"** %33, align 8
  %34 = bitcast %"struct.std::_Rb_tree_iterator"* %5 to i8*
  %35 = bitcast %"struct.std::_Rb_tree_iterator"* %9 to i8*
  call void @llvm.memcpy.p0i8.p0i8.i64(i8* align 8 %34, i8* align 8 %35, i64 8, i1 false)
  br label %36

36:                                               ; preds = %27, %25
  %37 = call dereferenceable(48) %"struct.std::pair.68"* @_ZNKSt17_Rb_tree_iteratorISt4pairIKNSt7__cxx1112basic_stringIcSt11char_traitsIcESaIcEEESt10shared_ptrIN4mini10TypedValueEEEEdeEv(%"struct.std::_Rb_tree_iterator"* %5) #3
  %38 = getelementptr inbounds %"struct.std::pair.68", %"struct.std::pair.68"* %37, i32 0, i32 1
  ret %"class.std::shared_ptr.47"* %38
}

; Function Attrs: noinline nounwind optnone uwtable
define linkonce_odr dso_local dereferenceable(16) %"class.std::shared_ptr.47"* @_ZNSt10shared_ptrIN4mini10TypedValueEEaSERKS2_(%"class.std::shared_ptr.47"* %0, %"class.std::shared_ptr.47"* dereferenceable(16) %1) #5 comdat align 2 {
  %3 = alloca %"class.std::shared_ptr.47"*, align 8
  %4 = alloca %"class.std::shared_ptr.47"*, align 8
  store %"class.std::shared_ptr.47"* %0, %"class.std::shared_ptr.47"** %3, align 8
  store %"class.std::shared_ptr.47"* %1, %"class.std::shared_ptr.47"** %4, align 8
  %5 = load %"class.std::shared_ptr.47"*, %"class.std::shared_ptr.47"** %3, align 8
  %6 = bitcast %"class.std::shared_ptr.47"* %5 to %"class.std::__shared_ptr.48"*
  %7 = load %"class.std::shared_ptr.47"*, %"class.std::shared_ptr.47"** %4, align 8
  %8 = bitcast %"class.std::shared_ptr.47"* %7 to %"class.std::__shared_ptr.48"*
  %9 = call dereferenceable(16) %"class.std::__shared_ptr.48"* @_ZNSt12__shared_ptrIN4mini10TypedValueELN9__gnu_cxx12_Lock_policyE2EEaSERKS4_(%"class.std::__shared_ptr.48"* %6, %"class.std::__shared_ptr.48"* dereferenceable(16) %8) #3
  ret %"class.std::shared_ptr.47"* %5
}

; Function Attrs: noinline nounwind optnone uwtable
define linkonce_odr dso_local void @_ZNSt10shared_ptrIN4mini10TypedValueEED2Ev(%"class.std::shared_ptr.47"* %0) unnamed_addr #5 comdat align 2 {
  %2 = alloca %"class.std::shared_ptr.47"*, align 8
  store %"class.std::shared_ptr.47"* %0, %"class.std::shared_ptr.47"** %2, align 8
  %3 = load %"class.std::shared_ptr.47"*, %"class.std::shared_ptr.47"** %2, align 8
  %4 = bitcast %"class.std::shared_ptr.47"* %3 to %"class.std::__shared_ptr.48"*
  call void @_ZNSt12__shared_ptrIN4mini10TypedValueELN9__gnu_cxx12_Lock_policyE2EED2Ev(%"class.std::__shared_ptr.48"* %4) #3
  ret void
}

; Function Attrs: noinline nounwind optnone uwtable
define linkonce_odr dso_local void @_ZN4mini10TypedValueD2Ev(%"class.mini::TypedValue"* %0) unnamed_addr #5 comdat align 2 {
  %2 = alloca %"class.mini::TypedValue"*, align 8
  store %"class.mini::TypedValue"* %0, %"class.mini::TypedValue"** %2, align 8
  %3 = load %"class.mini::TypedValue"*, %"class.mini::TypedValue"** %2, align 8
  %4 = getelementptr inbounds %"class.mini::TypedValue", %"class.mini::TypedValue"* %3, i32 0, i32 1
  call void @_ZNSt7__cxx1112basic_stringIcSt11char_traitsIcESaIcEED1Ev(%"class.std::__cxx11::basic_string"* %4) #3
  %5 = getelementptr inbounds %"class.mini::TypedValue", %"class.mini::TypedValue"* %3, i32 0, i32 0
  call void @_ZN8antlrcpp3AnyD1Ev(%"struct.antlrcpp::Any"* %5) #3
  ret void
}

; Function Attrs: noinline nounwind optnone uwtable
define linkonce_odr dso_local void @_ZNSt3mapINSt7__cxx1112basic_stringIcSt11char_traitsIcESaIcEEESt10shared_ptrIN4mini10TypedValueEESt4lessIS5_ESaISt4pairIKS5_S9_EEED2Ev(%"class.std::map"* %0) unnamed_addr #5 comdat align 2 {
  %2 = alloca %"class.std::map"*, align 8
  store %"class.std::map"* %0, %"class.std::map"** %2, align 8
  %3 = load %"class.std::map"*, %"class.std::map"** %2, align 8
  %4 = getelementptr inbounds %"class.std::map", %"class.std::map"* %3, i32 0, i32 0
  call void @_ZNSt8_Rb_treeINSt7__cxx1112basic_stringIcSt11char_traitsIcESaIcEEESt4pairIKS5_St10shared_ptrIN4mini10TypedValueEEESt10_Select1stISC_ESt4lessIS5_ESaISC_EED2Ev(%"class.std::_Rb_tree"* %4) #3
  ret void
}

; Function Attrs: noinline nounwind optnone uwtable
define dso_local void @_ZN4mini15MiniInterpreterC2ESt10shared_ptrIN3ast7ProgramEE(%"class.mini::MiniInterpreter"* %0, %"class.std::shared_ptr"* %1) unnamed_addr #5 align 2 {
  %3 = alloca %"class.mini::MiniInterpreter"*, align 8
  store %"class.mini::MiniInterpreter"* %0, %"class.mini::MiniInterpreter"** %3, align 8
  %4 = load %"class.mini::MiniInterpreter"*, %"class.mini::MiniInterpreter"** %3, align 8
  %5 = bitcast %"class.mini::MiniInterpreter"* %4 to %"class.ast::ASTVisitor"*
  call void @_ZN3ast10ASTVisitorC2Ev(%"class.ast::ASTVisitor"* %5) #3
  %6 = bitcast %"class.mini::MiniInterpreter"* %4 to i32 (...)***
  store i32 (...)** bitcast (i8** getelementptr inbounds ({ [33 x i8*] }, { [33 x i8*] }* @_ZTVN4mini15MiniInterpreterE, i32 0, inrange i32 0, i32 2) to i32 (...)**), i32 (...)*** %6, align 8
  %7 = getelementptr inbounds %"class.mini::MiniInterpreter", %"class.mini::MiniInterpreter"* %4, i32 0, i32 1
  call void @_ZNSt3mapINSt7__cxx1112basic_stringIcSt11char_traitsIcESaIcEEESt10shared_ptrIN4mini10TypedValueEESt4lessIS5_ESaISt4pairIKS5_S9_EEEC2Ev(%"class.std::map"* %7) #3
  %8 = getelementptr inbounds %"class.mini::MiniInterpreter", %"class.mini::MiniInterpreter"* %4, i32 0, i32 2
  call void @_ZNSt6vectorISt3mapINSt7__cxx1112basic_stringIcSt11char_traitsIcESaIcEEESt10shared_ptrIN4mini10TypedValueEESt4lessIS6_ESaISt4pairIKS6_SA_EEESaISH_EEC2Ev(%"class.std::vector"* %8) #3
  %9 = getelementptr inbounds %"class.mini::MiniInterpreter", %"class.mini::MiniInterpreter"* %4, i32 0, i32 3
  call void @_ZNSt3mapINSt7__cxx1112basic_stringIcSt11char_traitsIcESaIcEEESt10shared_ptrIN3ast8FunctionEESt4lessIS5_ESaISt4pairIKS5_S9_EEEC2Ev(%"class.std::map.6"* %9) #3
  %10 = getelementptr inbounds %"class.mini::MiniInterpreter", %"class.mini::MiniInterpreter"* %4, i32 0, i32 4
  call void @_ZNSt3mapINSt7__cxx1112basic_stringIcSt11char_traitsIcESaIcEEES_IS5_St10shared_ptrIN4mini10TypedValueEESt4lessIS5_ESaISt4pairIKS5_S9_EEESB_SaISC_ISD_SG_EEEC2Ev(%"class.std::map.11"* %10) #3
  %11 = getelementptr inbounds %"class.mini::MiniInterpreter", %"class.mini::MiniInterpreter"* %4, i32 0, i32 5
  call void @_ZNSt10shared_ptrIN3ast7ProgramEEC2ERKS2_(%"class.std::shared_ptr"* %11, %"class.std::shared_ptr"* dereferenceable(16) %1) #3
  ret void
}

; Function Attrs: noinline nounwind optnone uwtable
define linkonce_odr dso_local void @_ZN3ast10ASTVisitorC2Ev(%"class.ast::ASTVisitor"* %0) unnamed_addr #5 comdat align 2 {
  %2 = alloca %"class.ast::ASTVisitor"*, align 8
  store %"class.ast::ASTVisitor"* %0, %"class.ast::ASTVisitor"** %2, align 8
  %3 = load %"class.ast::ASTVisitor"*, %"class.ast::ASTVisitor"** %2, align 8
  %4 = bitcast %"class.ast::ASTVisitor"* %3 to i32 (...)***
  store i32 (...)** bitcast (i8** getelementptr inbounds ({ [33 x i8*] }, { [33 x i8*] }* @_ZTVN3ast10ASTVisitorE, i32 0, inrange i32 0, i32 2) to i32 (...)**), i32 (...)*** %4, align 8
  ret void
}

; Function Attrs: noinline nounwind optnone uwtable
define linkonce_odr dso_local void @_ZNSt6vectorISt3mapINSt7__cxx1112basic_stringIcSt11char_traitsIcESaIcEEESt10shared_ptrIN4mini10TypedValueEESt4lessIS6_ESaISt4pairIKS6_SA_EEESaISH_EEC2Ev(%"class.std::vector"* %0) unnamed_addr #5 comdat align 2 personality i8* bitcast (i32 (...)* @__gxx_personality_v0 to i8*) {
  %2 = alloca %"class.std::vector"*, align 8
  store %"class.std::vector"* %0, %"class.std::vector"** %2, align 8
  %3 = load %"class.std::vector"*, %"class.std::vector"** %2, align 8
  %4 = bitcast %"class.std::vector"* %3 to %"struct.std::_Vector_base"*
  invoke void @_ZNSt12_Vector_baseISt3mapINSt7__cxx1112basic_stringIcSt11char_traitsIcESaIcEEESt10shared_ptrIN4mini10TypedValueEESt4lessIS6_ESaISt4pairIKS6_SA_EEESaISH_EEC2Ev(%"struct.std::_Vector_base"* %4)
          to label %5 unwind label %6

5:                                                ; preds = %1
  ret void

6:                                                ; preds = %1
  %7 = landingpad { i8*, i32 }
          catch i8* null
  %8 = extractvalue { i8*, i32 } %7, 0
  call void @__clang_call_terminate(i8* %8) #15
  unreachable
}

; Function Attrs: noinline nounwind optnone uwtable
define linkonce_odr dso_local void @_ZNSt3mapINSt7__cxx1112basic_stringIcSt11char_traitsIcESaIcEEESt10shared_ptrIN3ast8FunctionEESt4lessIS5_ESaISt4pairIKS5_S9_EEEC2Ev(%"class.std::map.6"* %0) unnamed_addr #5 comdat align 2 {
  %2 = alloca %"class.std::map.6"*, align 8
  store %"class.std::map.6"* %0, %"class.std::map.6"** %2, align 8
  %3 = load %"class.std::map.6"*, %"class.std::map.6"** %2, align 8
  %4 = getelementptr inbounds %"class.std::map.6", %"class.std::map.6"* %3, i32 0, i32 0
  call void @_ZNSt8_Rb_treeINSt7__cxx1112basic_stringIcSt11char_traitsIcESaIcEEESt4pairIKS5_St10shared_ptrIN3ast8FunctionEEESt10_Select1stISC_ESt4lessIS5_ESaISC_EEC2Ev(%"class.std::_Rb_tree.7"* %4) #3
  ret void
}

; Function Attrs: noinline nounwind optnone uwtable
define linkonce_odr dso_local void @_ZNSt3mapINSt7__cxx1112basic_stringIcSt11char_traitsIcESaIcEEES_IS5_St10shared_ptrIN4mini10TypedValueEESt4lessIS5_ESaISt4pairIKS5_S9_EEESB_SaISC_ISD_SG_EEEC2Ev(%"class.std::map.11"* %0) unnamed_addr #5 comdat align 2 {
  %2 = alloca %"class.std::map.11"*, align 8
  store %"class.std::map.11"* %0, %"class.std::map.11"** %2, align 8
  %3 = load %"class.std::map.11"*, %"class.std::map.11"** %2, align 8
  %4 = getelementptr inbounds %"class.std::map.11", %"class.std::map.11"* %3, i32 0, i32 0
  call void @_ZNSt8_Rb_treeINSt7__cxx1112basic_stringIcSt11char_traitsIcESaIcEEESt4pairIKS5_St3mapIS5_St10shared_ptrIN4mini10TypedValueEESt4lessIS5_ESaIS6_IS7_SC_EEEESt10_Select1stISI_ESE_SaISI_EEC2Ev(%"class.std::_Rb_tree.12"* %4) #3
  ret void
}

; Function Attrs: noinline nounwind optnone uwtable
define linkonce_odr dso_local void @_ZNSt10shared_ptrIN3ast7ProgramEEC2ERKS2_(%"class.std::shared_ptr"* %0, %"class.std::shared_ptr"* dereferenceable(16) %1) unnamed_addr #5 comdat align 2 {
  %3 = alloca %"class.std::shared_ptr"*, align 8
  %4 = alloca %"class.std::shared_ptr"*, align 8
  store %"class.std::shared_ptr"* %0, %"class.std::shared_ptr"** %3, align 8
  store %"class.std::shared_ptr"* %1, %"class.std::shared_ptr"** %4, align 8
  %5 = load %"class.std::shared_ptr"*, %"class.std::shared_ptr"** %3, align 8
  %6 = bitcast %"class.std::shared_ptr"* %5 to %"class.std::__shared_ptr"*
  %7 = load %"class.std::shared_ptr"*, %"class.std::shared_ptr"** %4, align 8
  %8 = bitcast %"class.std::shared_ptr"* %7 to %"class.std::__shared_ptr"*
  call void @_ZNSt12__shared_ptrIN3ast7ProgramELN9__gnu_cxx12_Lock_policyE2EEC2ERKS4_(%"class.std::__shared_ptr"* %6, %"class.std::__shared_ptr"* dereferenceable(16) %8) #3
  ret void
}

; Function Attrs: noinline optnone uwtable
define dso_local void @_ZN4mini15MiniInterpreter5visitEPN3ast19AssignmentStatementE(%"struct.antlrcpp::Any"* noalias sret %0, %"class.mini::MiniInterpreter"* %1, %"class.ast::AssignmentStatement"* %2) unnamed_addr #4 align 2 personality i8* bitcast (i32 (...)* @__gxx_personality_v0 to i8*) {
  %4 = alloca i8*, align 8
  %5 = alloca %"class.mini::MiniInterpreter"*, align 8
  %6 = alloca %"class.ast::AssignmentStatement"*, align 8
  %7 = alloca %"class.std::shared_ptr.47", align 8
  %8 = alloca %"struct.antlrcpp::Any", align 8
  %9 = alloca i8*
  %10 = alloca i32
  %11 = alloca i8*, align 8
  %12 = alloca i32, align 4
  %13 = alloca %"class.mini::TypedValue", align 8
  %14 = alloca %"struct.antlrcpp::Any", align 8
  %15 = alloca i8*, align 8
  %16 = bitcast %"struct.antlrcpp::Any"* %0 to i8*
  store i8* %16, i8** %4, align 8
  store %"class.mini::MiniInterpreter"* %1, %"class.mini::MiniInterpreter"** %5, align 8
  store %"class.ast::AssignmentStatement"* %2, %"class.ast::AssignmentStatement"** %6, align 8
  %17 = load %"class.mini::MiniInterpreter"*, %"class.mini::MiniInterpreter"** %5, align 8
  %18 = load %"class.ast::AssignmentStatement"*, %"class.ast::AssignmentStatement"** %6, align 8
  %19 = getelementptr inbounds %"class.ast::AssignmentStatement", %"class.ast::AssignmentStatement"* %18, i32 0, i32 1
  %20 = bitcast %"class.std::shared_ptr.58"* %19 to %"class.std::__shared_ptr_access.60"*
  %21 = call %"class.ast::Lvalue"* @_ZNKSt19__shared_ptr_accessIN3ast6LvalueELN9__gnu_cxx12_Lock_policyE2ELb0ELb0EEptEv(%"class.std::__shared_ptr_access.60"* %20) #3
  %22 = bitcast %"class.mini::MiniInterpreter"* %17 to %"class.ast::ASTVisitor"*
  %23 = bitcast %"class.ast::Lvalue"* %21 to void (%"struct.antlrcpp::Any"*, %"class.ast::Lvalue"*, %"class.ast::ASTVisitor"*)***
  %24 = load void (%"struct.antlrcpp::Any"*, %"class.ast::Lvalue"*, %"class.ast::ASTVisitor"*)**, void (%"struct.antlrcpp::Any"*, %"class.ast::Lvalue"*, %"class.ast::ASTVisitor"*)*** %23, align 8
  %25 = getelementptr inbounds void (%"struct.antlrcpp::Any"*, %"class.ast::Lvalue"*, %"class.ast::ASTVisitor"*)*, void (%"struct.antlrcpp::Any"*, %"class.ast::Lvalue"*, %"class.ast::ASTVisitor"*)** %24, i64 1
  %26 = load void (%"struct.antlrcpp::Any"*, %"class.ast::Lvalue"*, %"class.ast::ASTVisitor"*)*, void (%"struct.antlrcpp::Any"*, %"class.ast::Lvalue"*, %"class.ast::ASTVisitor"*)** %25, align 8
  call void %26(%"struct.antlrcpp::Any"* sret %8, %"class.ast::Lvalue"* %21, %"class.ast::ASTVisitor"* %22)
  invoke void @_ZN8antlrcpp3AnycvT_ISt10shared_ptrIN4mini10TypedValueEEEEv(%"class.std::shared_ptr.47"* sret %7, %"struct.antlrcpp::Any"* %8)
          to label %27 unwind label %33

27:                                               ; preds = %3
  call void @_ZN8antlrcpp3AnyD1Ev(%"struct.antlrcpp::Any"* %8) #3
  %28 = bitcast %"class.std::shared_ptr.47"* %7 to %"class.std::__shared_ptr.48"*
  %29 = invoke zeroext i1 @_ZNKSt12__shared_ptrIN4mini10TypedValueELN9__gnu_cxx12_Lock_policyE2EEcvbEv(%"class.std::__shared_ptr.48"* %28)
          to label %30 unwind label %37

30:                                               ; preds = %27
  br i1 %29, label %41, label %31

31:                                               ; preds = %30
  store i8* null, i8** %11, align 8
  invoke void @_ZN8antlrcpp3AnyC2IDnEEOT_(%"struct.antlrcpp::Any"* %0, i8** dereferenceable(8) %11)
          to label %32 unwind label %37

32:                                               ; preds = %31
  store i32 1, i32* %12, align 4
  br label %84

33:                                               ; preds = %3
  %34 = landingpad { i8*, i32 }
          cleanup
  %35 = extractvalue { i8*, i32 } %34, 0
  store i8* %35, i8** %9, align 8
  %36 = extractvalue { i8*, i32 } %34, 1
  store i32 %36, i32* %10, align 4
  call void @_ZN8antlrcpp3AnyD1Ev(%"struct.antlrcpp::Any"* %8) #3
  br label %86

37:                                               ; preds = %41, %31, %27
  %38 = landingpad { i8*, i32 }
          cleanup
  %39 = extractvalue { i8*, i32 } %38, 0
  store i8* %39, i8** %9, align 8
  %40 = extractvalue { i8*, i32 } %38, 1
  store i32 %40, i32* %10, align 4
  br label %85

41:                                               ; preds = %30
  %42 = load %"class.ast::AssignmentStatement"*, %"class.ast::AssignmentStatement"** %6, align 8
  %43 = getelementptr inbounds %"class.ast::AssignmentStatement", %"class.ast::AssignmentStatement"* %42, i32 0, i32 2
  %44 = bitcast %"class.std::shared_ptr.55"* %43 to %"class.std::__shared_ptr_access.57"*
  %45 = call %"class.ast::Expression"* @_ZNKSt19__shared_ptr_accessIN3ast10ExpressionELN9__gnu_cxx12_Lock_policyE2ELb0ELb0EEptEv(%"class.std::__shared_ptr_access.57"* %44) #3
  %46 = bitcast %"class.mini::MiniInterpreter"* %17 to %"class.ast::ASTVisitor"*
  %47 = bitcast %"class.ast::Expression"* %45 to void (%"struct.antlrcpp::Any"*, %"class.ast::Expression"*, %"class.ast::ASTVisitor"*)***
  %48 = load void (%"struct.antlrcpp::Any"*, %"class.ast::Expression"*, %"class.ast::ASTVisitor"*)**, void (%"struct.antlrcpp::Any"*, %"class.ast::Expression"*, %"class.ast::ASTVisitor"*)*** %47, align 8
  %49 = getelementptr inbounds void (%"struct.antlrcpp::Any"*, %"class.ast::Expression"*, %"class.ast::ASTVisitor"*)*, void (%"struct.antlrcpp::Any"*, %"class.ast::Expression"*, %"class.ast::ASTVisitor"*)** %48, i64 0
  %50 = load void (%"struct.antlrcpp::Any"*, %"class.ast::Expression"*, %"class.ast::ASTVisitor"*)*, void (%"struct.antlrcpp::Any"*, %"class.ast::Expression"*, %"class.ast::ASTVisitor"*)** %49, align 8
  invoke void %50(%"struct.antlrcpp::Any"* sret %14, %"class.ast::Expression"* %45, %"class.ast::ASTVisitor"* %46)
          to label %51 unwind label %37

51:                                               ; preds = %41
  invoke void @_ZN8antlrcpp3AnycvT_IN4mini10TypedValueEEEv(%"class.mini::TypedValue"* sret %13, %"struct.antlrcpp::Any"* %14)
          to label %52 unwind label %73

52:                                               ; preds = %51
  call void @_ZN8antlrcpp3AnyD1Ev(%"struct.antlrcpp::Any"* %14) #3
  %53 = bitcast %"class.std::shared_ptr.47"* %7 to %"class.std::__shared_ptr_access.49"*
  %54 = call %"class.mini::TypedValue"* @_ZNKSt19__shared_ptr_accessIN4mini10TypedValueELN9__gnu_cxx12_Lock_policyE2ELb0ELb0EEptEv(%"class.std::__shared_ptr_access.49"* %53) #3
  %55 = getelementptr inbounds %"class.mini::TypedValue", %"class.mini::TypedValue"* %54, i32 0, i32 1
  %56 = getelementptr inbounds %"class.mini::TypedValue", %"class.mini::TypedValue"* %13, i32 0, i32 1
  %57 = call zeroext i1 @_ZSteqIcEN9__gnu_cxx11__enable_ifIXsr9__is_charIT_EE7__valueEbE6__typeERKNSt7__cxx1112basic_stringIS2_St11char_traitsIS2_ESaIS2_EEESC_(%"class.std::__cxx11::basic_string"* dereferenceable(32) %55, %"class.std::__cxx11::basic_string"* dereferenceable(32) %56) #3
  br i1 %57, label %66, label %58

58:                                               ; preds = %52
  %59 = bitcast %"class.std::shared_ptr.47"* %7 to %"class.std::__shared_ptr_access.49"*
  %60 = call %"class.mini::TypedValue"* @_ZNKSt19__shared_ptr_accessIN4mini10TypedValueELN9__gnu_cxx12_Lock_policyE2ELb0ELb0EEptEv(%"class.std::__shared_ptr_access.49"* %59) #3
  %61 = invoke zeroext i1 @_ZN4mini10TypedValue8isStructEv(%"class.mini::TypedValue"* %60)
          to label %62 unwind label %77

62:                                               ; preds = %58
  br i1 %61, label %63, label %81

63:                                               ; preds = %62
  %64 = invoke zeroext i1 @_ZN4mini10TypedValue8isStructEv(%"class.mini::TypedValue"* %13)
          to label %65 unwind label %77

65:                                               ; preds = %63
  br i1 %64, label %66, label %81

66:                                               ; preds = %65, %52
  %67 = getelementptr inbounds %"class.mini::TypedValue", %"class.mini::TypedValue"* %13, i32 0, i32 0
  %68 = bitcast %"class.std::shared_ptr.47"* %7 to %"class.std::__shared_ptr_access.49"*
  %69 = call %"class.mini::TypedValue"* @_ZNKSt19__shared_ptr_accessIN4mini10TypedValueELN9__gnu_cxx12_Lock_policyE2ELb0ELb0EEptEv(%"class.std::__shared_ptr_access.49"* %68) #3
  %70 = getelementptr inbounds %"class.mini::TypedValue", %"class.mini::TypedValue"* %69, i32 0, i32 0
  %71 = invoke dereferenceable(16) %"struct.antlrcpp::Any"* @_ZN8antlrcpp3AnyaSERKS0_(%"struct.antlrcpp::Any"* %70, %"struct.antlrcpp::Any"* dereferenceable(16) %67)
          to label %72 unwind label %77

72:                                               ; preds = %66
  br label %82

73:                                               ; preds = %51
  %74 = landingpad { i8*, i32 }
          cleanup
  %75 = extractvalue { i8*, i32 } %74, 0
  store i8* %75, i8** %9, align 8
  %76 = extractvalue { i8*, i32 } %74, 1
  store i32 %76, i32* %10, align 4
  call void @_ZN8antlrcpp3AnyD1Ev(%"struct.antlrcpp::Any"* %14) #3
  br label %85

77:                                               ; preds = %82, %66, %63, %58
  %78 = landingpad { i8*, i32 }
          cleanup
  %79 = extractvalue { i8*, i32 } %78, 0
  store i8* %79, i8** %9, align 8
  %80 = extractvalue { i8*, i32 } %78, 1
  store i32 %80, i32* %10, align 4
  call void @_ZN4mini10TypedValueD2Ev(%"class.mini::TypedValue"* %13) #3
  br label %85

81:                                               ; preds = %65, %62
  br label %82

82:                                               ; preds = %81, %72
  store i8* null, i8** %15, align 8
  invoke void @_ZN8antlrcpp3AnyC2IDnEEOT_(%"struct.antlrcpp::Any"* %0, i8** dereferenceable(8) %15)
          to label %83 unwind label %77

83:                                               ; preds = %82
  store i32 1, i32* %12, align 4
  call void @_ZN4mini10TypedValueD2Ev(%"class.mini::TypedValue"* %13) #3
  br label %84

84:                                               ; preds = %83, %32
  call void @_ZNSt10shared_ptrIN4mini10TypedValueEED2Ev(%"class.std::shared_ptr.47"* %7) #3
  ret void

85:                                               ; preds = %77, %73, %37
  call void @_ZNSt10shared_ptrIN4mini10TypedValueEED2Ev(%"class.std::shared_ptr.47"* %7) #3
  br label %86

86:                                               ; preds = %85, %33
  %87 = load i8*, i8** %9, align 8
  %88 = load i32, i32* %10, align 4
  %89 = insertvalue { i8*, i32 } undef, i8* %87, 0
  %90 = insertvalue { i8*, i32 } %89, i32 %88, 1
  resume { i8*, i32 } %90
}

; Function Attrs: noinline nounwind optnone uwtable
define linkonce_odr dso_local %"class.ast::Lvalue"* @_ZNKSt19__shared_ptr_accessIN3ast6LvalueELN9__gnu_cxx12_Lock_policyE2ELb0ELb0EEptEv(%"class.std::__shared_ptr_access.60"* %0) #5 comdat align 2 {
  %2 = alloca %"class.std::__shared_ptr_access.60"*, align 8
  store %"class.std::__shared_ptr_access.60"* %0, %"class.std::__shared_ptr_access.60"** %2, align 8
  %3 = load %"class.std::__shared_ptr_access.60"*, %"class.std::__shared_ptr_access.60"** %2, align 8
  %4 = call %"class.ast::Lvalue"* @_ZNKSt19__shared_ptr_accessIN3ast6LvalueELN9__gnu_cxx12_Lock_policyE2ELb0ELb0EE6_M_getEv(%"class.std::__shared_ptr_access.60"* %3) #3
  ret %"class.ast::Lvalue"* %4
}

; Function Attrs: noinline nounwind optnone uwtable
define linkonce_odr dso_local zeroext i1 @_ZNKSt12__shared_ptrIN4mini10TypedValueELN9__gnu_cxx12_Lock_policyE2EEcvbEv(%"class.std::__shared_ptr.48"* %0) #5 comdat align 2 {
  %2 = alloca %"class.std::__shared_ptr.48"*, align 8
  store %"class.std::__shared_ptr.48"* %0, %"class.std::__shared_ptr.48"** %2, align 8
  %3 = load %"class.std::__shared_ptr.48"*, %"class.std::__shared_ptr.48"** %2, align 8
  %4 = getelementptr inbounds %"class.std::__shared_ptr.48", %"class.std::__shared_ptr.48"* %3, i32 0, i32 0
  %5 = load %"class.mini::TypedValue"*, %"class.mini::TypedValue"** %4, align 8
  %6 = icmp eq %"class.mini::TypedValue"* %5, null
  %7 = zext i1 %6 to i64
  %8 = select i1 %6, i1 false, i1 true
  ret i1 %8
}

; Function Attrs: noinline nounwind optnone uwtable
define linkonce_odr dso_local void @_ZN8antlrcpp3AnyC2IDnEEOT_(%"struct.antlrcpp::Any"* %0, i8** dereferenceable(8) %1) unnamed_addr #5 comdat align 2 {
  %3 = alloca %"struct.antlrcpp::Any"*, align 8
  %4 = alloca i8**, align 8
  store %"struct.antlrcpp::Any"* %0, %"struct.antlrcpp::Any"** %3, align 8
  store i8** %1, i8*** %4, align 8
  %5 = load %"struct.antlrcpp::Any"*, %"struct.antlrcpp::Any"** %3, align 8
  %6 = bitcast %"struct.antlrcpp::Any"* %5 to i32 (...)***
  store i32 (...)** bitcast (i8** getelementptr inbounds ({ [5 x i8*] }, { [5 x i8*] }* @_ZTVN8antlrcpp3AnyE, i32 0, inrange i32 0, i32 2) to i32 (...)**), i32 (...)*** %6, align 8
  %7 = getelementptr inbounds %"struct.antlrcpp::Any", %"struct.antlrcpp::Any"* %5, i32 0, i32 1
  store %"struct.antlrcpp::Any::Base"* null, %"struct.antlrcpp::Any::Base"** %7, align 8
  ret void
}

; Function Attrs: noinline optnone uwtable
define dso_local void @_ZN4mini15MiniInterpreter5visitEPN3ast16BinaryExpressionE(%"struct.antlrcpp::Any"* noalias sret %0, %"class.mini::MiniInterpreter"* %1, %"class.ast::BinaryExpression"* %2) unnamed_addr #4 align 2 personality i8* bitcast (i32 (...)* @__gxx_personality_v0 to i8*) {
  %4 = alloca i8*, align 8
  %5 = alloca %"class.mini::MiniInterpreter"*, align 8
  %6 = alloca %"class.ast::BinaryExpression"*, align 8
  %7 = alloca %"class.mini::TypedValue", align 8
  %8 = alloca %"struct.antlrcpp::Any", align 8
  %9 = alloca i8*
  %10 = alloca i32
  %11 = alloca %"class.mini::TypedValue", align 8
  %12 = alloca %"struct.antlrcpp::Any", align 8
  %13 = alloca %"class.mini::TypedValue", align 8
  %14 = alloca %"class.std::__cxx11::basic_string", align 8
  %15 = alloca %"struct.antlrcpp::Any", align 8
  %16 = alloca i8, align 1
  %17 = alloca i32, align 4
  %18 = alloca %"class.mini::TypedValue", align 8
  %19 = alloca %"class.std::__cxx11::basic_string", align 8
  %20 = alloca %"struct.antlrcpp::Any", align 8
  %21 = alloca i8, align 1
  %22 = alloca %"class.std::__cxx11::basic_string", align 8
  %23 = alloca %"class.mini::TypedValue", align 8
  %24 = alloca %"class.std::__cxx11::basic_string", align 8
  %25 = alloca %"struct.antlrcpp::Any", align 8
  %26 = alloca i8, align 1
  %27 = alloca %"class.std::__cxx11::basic_string", align 8
  %28 = alloca %"class.mini::TypedValue", align 8
  %29 = alloca %"class.std::__cxx11::basic_string", align 8
  %30 = alloca %"struct.antlrcpp::Any", align 8
  %31 = alloca i8, align 1
  %32 = alloca %"class.mini::TypedValue", align 8
  %33 = alloca %"class.std::__cxx11::basic_string", align 8
  %34 = alloca %"struct.antlrcpp::Any", align 8
  %35 = alloca i8, align 1
  %36 = alloca %"class.mini::TypedValue", align 8
  %37 = alloca %"class.std::__cxx11::basic_string", align 8
  %38 = alloca %"struct.antlrcpp::Any", align 8
  %39 = alloca i8, align 1
  %40 = alloca %"class.std::__cxx11::basic_string", align 8
  %41 = alloca %"class.std::__cxx11::basic_string", align 8
  %42 = alloca i1, align 1
  %43 = alloca i32, align 4
  %44 = alloca i32, align 4
  %45 = alloca %"class.mini::TypedValue", align 8
  %46 = alloca %"class.std::__cxx11::basic_string", align 8
  %47 = alloca %"struct.antlrcpp::Any", align 8
  %48 = alloca i32, align 4
  %49 = alloca %"class.mini::TypedValue", align 8
  %50 = alloca %"class.std::__cxx11::basic_string", align 8
  %51 = alloca %"struct.antlrcpp::Any", align 8
  %52 = alloca i32, align 4
  %53 = alloca %"class.mini::TypedValue", align 8
  %54 = alloca %"class.std::__cxx11::basic_string", align 8
  %55 = alloca %"struct.antlrcpp::Any", align 8
  %56 = alloca i32, align 4
  %57 = alloca %"class.mini::TypedValue", align 8
  %58 = alloca %"class.std::__cxx11::basic_string", align 8
  %59 = alloca %"struct.antlrcpp::Any", align 8
  %60 = alloca i32, align 4
  %61 = alloca %"class.mini::TypedValue", align 8
  %62 = alloca %"class.std::__cxx11::basic_string", align 8
  %63 = alloca %"struct.antlrcpp::Any", align 8
  %64 = alloca i8, align 1
  %65 = alloca %"class.mini::TypedValue", align 8
  %66 = alloca %"class.std::__cxx11::basic_string", align 8
  %67 = alloca %"struct.antlrcpp::Any", align 8
  %68 = alloca i8, align 1
  %69 = alloca %"class.mini::TypedValue", align 8
  %70 = alloca %"class.std::__cxx11::basic_string", align 8
  %71 = alloca %"struct.antlrcpp::Any", align 8
  %72 = alloca i8, align 1
  %73 = alloca %"class.mini::TypedValue", align 8
  %74 = alloca %"class.std::__cxx11::basic_string", align 8
  %75 = alloca %"struct.antlrcpp::Any", align 8
  %76 = alloca i8, align 1
  %77 = alloca %"class.std::__cxx11::basic_string", align 8
  %78 = alloca %"class.std::__cxx11::basic_string", align 8
  %79 = alloca i1, align 1
  %80 = alloca i8, align 1
  %81 = alloca i8, align 1
  %82 = alloca %"class.mini::TypedValue", align 8
  %83 = alloca %"class.std::__cxx11::basic_string", align 8
  %84 = alloca %"struct.antlrcpp::Any", align 8
  %85 = alloca i8, align 1
  %86 = alloca %"class.mini::TypedValue", align 8
  %87 = alloca %"class.std::__cxx11::basic_string", align 8
  %88 = alloca %"struct.antlrcpp::Any", align 8
  %89 = alloca i8, align 1
  %90 = alloca i8*, align 8
  %91 = bitcast %"struct.antlrcpp::Any"* %0 to i8*
  store i8* %91, i8** %4, align 8
  store %"class.mini::MiniInterpreter"* %1, %"class.mini::MiniInterpreter"** %5, align 8
  store %"class.ast::BinaryExpression"* %2, %"class.ast::BinaryExpression"** %6, align 8
  %92 = load %"class.mini::MiniInterpreter"*, %"class.mini::MiniInterpreter"** %5, align 8
  %93 = load %"class.ast::BinaryExpression"*, %"class.ast::BinaryExpression"** %6, align 8
  %94 = getelementptr inbounds %"class.ast::BinaryExpression", %"class.ast::BinaryExpression"* %93, i32 0, i32 2
  %95 = bitcast %"class.std::shared_ptr.55"* %94 to %"class.std::__shared_ptr_access.57"*
  %96 = call %"class.ast::Expression"* @_ZNKSt19__shared_ptr_accessIN3ast10ExpressionELN9__gnu_cxx12_Lock_policyE2ELb0ELb0EEptEv(%"class.std::__shared_ptr_access.57"* %95) #3
  %97 = bitcast %"class.mini::MiniInterpreter"* %92 to %"class.ast::ASTVisitor"*
  %98 = bitcast %"class.ast::Expression"* %96 to void (%"struct.antlrcpp::Any"*, %"class.ast::Expression"*, %"class.ast::ASTVisitor"*)***
  %99 = load void (%"struct.antlrcpp::Any"*, %"class.ast::Expression"*, %"class.ast::ASTVisitor"*)**, void (%"struct.antlrcpp::Any"*, %"class.ast::Expression"*, %"class.ast::ASTVisitor"*)*** %98, align 8
  %100 = getelementptr inbounds void (%"struct.antlrcpp::Any"*, %"class.ast::Expression"*, %"class.ast::ASTVisitor"*)*, void (%"struct.antlrcpp::Any"*, %"class.ast::Expression"*, %"class.ast::ASTVisitor"*)** %99, i64 0
  %101 = load void (%"struct.antlrcpp::Any"*, %"class.ast::Expression"*, %"class.ast::ASTVisitor"*)*, void (%"struct.antlrcpp::Any"*, %"class.ast::Expression"*, %"class.ast::ASTVisitor"*)** %100, align 8
  call void %101(%"struct.antlrcpp::Any"* sret %8, %"class.ast::Expression"* %96, %"class.ast::ASTVisitor"* %97)
  invoke void @_ZN8antlrcpp3AnycvT_IN4mini10TypedValueEEEv(%"class.mini::TypedValue"* sret %7, %"struct.antlrcpp::Any"* %8)
          to label %102 unwind label %135

102:                                              ; preds = %3
  call void @_ZN8antlrcpp3AnyD1Ev(%"struct.antlrcpp::Any"* %8) #3
  %103 = load %"class.ast::BinaryExpression"*, %"class.ast::BinaryExpression"** %6, align 8
  %104 = getelementptr inbounds %"class.ast::BinaryExpression", %"class.ast::BinaryExpression"* %103, i32 0, i32 3
  %105 = bitcast %"class.std::shared_ptr.55"* %104 to %"class.std::__shared_ptr_access.57"*
  %106 = call %"class.ast::Expression"* @_ZNKSt19__shared_ptr_accessIN3ast10ExpressionELN9__gnu_cxx12_Lock_policyE2ELb0ELb0EEptEv(%"class.std::__shared_ptr_access.57"* %105) #3
  %107 = bitcast %"class.mini::MiniInterpreter"* %92 to %"class.ast::ASTVisitor"*
  %108 = bitcast %"class.ast::Expression"* %106 to void (%"struct.antlrcpp::Any"*, %"class.ast::Expression"*, %"class.ast::ASTVisitor"*)***
  %109 = load void (%"struct.antlrcpp::Any"*, %"class.ast::Expression"*, %"class.ast::ASTVisitor"*)**, void (%"struct.antlrcpp::Any"*, %"class.ast::Expression"*, %"class.ast::ASTVisitor"*)*** %108, align 8
  %110 = getelementptr inbounds void (%"struct.antlrcpp::Any"*, %"class.ast::Expression"*, %"class.ast::ASTVisitor"*)*, void (%"struct.antlrcpp::Any"*, %"class.ast::Expression"*, %"class.ast::ASTVisitor"*)** %109, i64 0
  %111 = load void (%"struct.antlrcpp::Any"*, %"class.ast::Expression"*, %"class.ast::ASTVisitor"*)*, void (%"struct.antlrcpp::Any"*, %"class.ast::Expression"*, %"class.ast::ASTVisitor"*)** %110, align 8
  invoke void %111(%"struct.antlrcpp::Any"* sret %12, %"class.ast::Expression"* %106, %"class.ast::ASTVisitor"* %107)
          to label %112 unwind label %139

112:                                              ; preds = %102
  invoke void @_ZN8antlrcpp3AnycvT_IN4mini10TypedValueEEEv(%"class.mini::TypedValue"* sret %11, %"struct.antlrcpp::Any"* %12)
          to label %113 unwind label %143

113:                                              ; preds = %112
  call void @_ZN8antlrcpp3AnyD1Ev(%"struct.antlrcpp::Any"* %12) #3
  %114 = load %"class.ast::BinaryExpression"*, %"class.ast::BinaryExpression"** %6, align 8
  %115 = getelementptr inbounds %"class.ast::BinaryExpression", %"class.ast::BinaryExpression"* %114, i32 0, i32 1
  %116 = load i32, i32* %115, align 4
  %117 = icmp eq i32 %116, 8
  br i1 %117, label %118, label %267

118:                                              ; preds = %113
  %119 = invoke zeroext i1 @_ZN4mini10TypedValue8isStructEv(%"class.mini::TypedValue"* %7)
          to label %120 unwind label %147

120:                                              ; preds = %118
  br i1 %119, label %121, label %165

121:                                              ; preds = %120
  %122 = invoke zeroext i1 @_ZN4mini10TypedValue8isStructEv(%"class.mini::TypedValue"* %11)
          to label %123 unwind label %147

123:                                              ; preds = %121
  br i1 %122, label %124, label %165

124:                                              ; preds = %123
  invoke void @_ZN3ast8BoolType4nameB5cxx11Ev(%"class.std::__cxx11::basic_string"* sret %14)
          to label %125 unwind label %147

125:                                              ; preds = %124
  %126 = invoke %"class.std::map"* @_ZN4mini10TypedValue3getIPSt3mapINSt7__cxx1112basic_stringIcSt11char_traitsIcESaIcEEESt10shared_ptrIS0_ESt4lessIS8_ESaISt4pairIKS8_SA_EEEEET_v(%"class.mini::TypedValue"* %7)
          to label %127 unwind label %151

127:                                              ; preds = %125
  %128 = invoke %"class.std::map"* @_ZN4mini10TypedValue3getIPSt3mapINSt7__cxx1112basic_stringIcSt11char_traitsIcESaIcEEESt10shared_ptrIS0_ESt4lessIS8_ESaISt4pairIKS8_SA_EEEEET_v(%"class.mini::TypedValue"* %11)
          to label %129 unwind label %151

129:                                              ; preds = %127
  %130 = icmp eq %"class.std::map"* %126, %128
  %131 = zext i1 %130 to i8
  store i8 %131, i8* %16, align 1
  invoke void @_ZN8antlrcpp3AnyC2IbEEOT_(%"struct.antlrcpp::Any"* %15, i8* dereferenceable(1) %16)
          to label %132 unwind label %151

132:                                              ; preds = %129
  invoke void @_ZN4mini10TypedValueC1ENSt7__cxx1112basic_stringIcSt11char_traitsIcESaIcEEEN8antlrcpp3AnyE(%"class.mini::TypedValue"* %13, %"class.std::__cxx11::basic_string"* %14, %"struct.antlrcpp::Any"* %15)
          to label %133 unwind label %155

133:                                              ; preds = %132
  invoke void @_ZN8antlrcpp3AnyC2IN4mini10TypedValueEEEOT_(%"struct.antlrcpp::Any"* %0, %"class.mini::TypedValue"* dereferenceable(48) %13)
          to label %134 unwind label %159

134:                                              ; preds = %133
  call void @_ZN4mini10TypedValueD2Ev(%"class.mini::TypedValue"* %13) #3
  call void @_ZN8antlrcpp3AnyD1Ev(%"struct.antlrcpp::Any"* %15) #3
  call void @_ZNSt7__cxx1112basic_stringIcSt11char_traitsIcESaIcEED1Ev(%"class.std::__cxx11::basic_string"* %14) #3
  store i32 1, i32* %17, align 4
  br label %590

135:                                              ; preds = %3
  %136 = landingpad { i8*, i32 }
          cleanup
  %137 = extractvalue { i8*, i32 } %136, 0
  store i8* %137, i8** %9, align 8
  %138 = extractvalue { i8*, i32 } %136, 1
  store i32 %138, i32* %10, align 4
  call void @_ZN8antlrcpp3AnyD1Ev(%"struct.antlrcpp::Any"* %8) #3
  br label %593

139:                                              ; preds = %102
  %140 = landingpad { i8*, i32 }
          cleanup
  %141 = extractvalue { i8*, i32 } %140, 0
  store i8* %141, i8** %9, align 8
  %142 = extractvalue { i8*, i32 } %140, 1
  store i32 %142, i32* %10, align 4
  br label %592

143:                                              ; preds = %112
  %144 = landingpad { i8*, i32 }
          cleanup
  %145 = extractvalue { i8*, i32 } %144, 0
  store i8* %145, i8** %9, align 8
  %146 = extractvalue { i8*, i32 } %144, 1
  store i32 %146, i32* %10, align 4
  call void @_ZN8antlrcpp3AnyD1Ev(%"struct.antlrcpp::Any"* %12) #3
  br label %592

147:                                              ; preds = %588, %558, %531, %519, %517, %504, %479, %456, %433, %410, %388, %366, %344, %322, %312, %310, %297, %276, %248, %221, %217, %192, %188, %169, %124, %121, %118
  %148 = landingpad { i8*, i32 }
          cleanup
  %149 = extractvalue { i8*, i32 } %148, 0
  store i8* %149, i8** %9, align 8
  %150 = extractvalue { i8*, i32 } %148, 1
  store i32 %150, i32* %10, align 4
  br label %591

151:                                              ; preds = %129, %127, %125
  %152 = landingpad { i8*, i32 }
          cleanup
  %153 = extractvalue { i8*, i32 } %152, 0
  store i8* %153, i8** %9, align 8
  %154 = extractvalue { i8*, i32 } %152, 1
  store i32 %154, i32* %10, align 4
  br label %164

155:                                              ; preds = %132
  %156 = landingpad { i8*, i32 }
          cleanup
  %157 = extractvalue { i8*, i32 } %156, 0
  store i8* %157, i8** %9, align 8
  %158 = extractvalue { i8*, i32 } %156, 1
  store i32 %158, i32* %10, align 4
  br label %163

159:                                              ; preds = %133
  %160 = landingpad { i8*, i32 }
          cleanup
  %161 = extractvalue { i8*, i32 } %160, 0
  store i8* %161, i8** %9, align 8
  %162 = extractvalue { i8*, i32 } %160, 1
  store i32 %162, i32* %10, align 4
  call void @_ZN4mini10TypedValueD2Ev(%"class.mini::TypedValue"* %13) #3
  br label %163

163:                                              ; preds = %159, %155
  call void @_ZN8antlrcpp3AnyD1Ev(%"struct.antlrcpp::Any"* %15) #3
  br label %164

164:                                              ; preds = %163, %151
  call void @_ZNSt7__cxx1112basic_stringIcSt11char_traitsIcESaIcEED1Ev(%"class.std::__cxx11::basic_string"* %14) #3
  br label %591

165:                                              ; preds = %123, %120
  %166 = getelementptr inbounds %"class.mini::TypedValue", %"class.mini::TypedValue"* %7, i32 0, i32 1
  %167 = getelementptr inbounds %"class.mini::TypedValue", %"class.mini::TypedValue"* %11, i32 0, i32 1
  %168 = call zeroext i1 @_ZStneIcSt11char_traitsIcESaIcEEbRKNSt7__cxx1112basic_stringIT_T0_T1_EESA_(%"class.std::__cxx11::basic_string"* dereferenceable(32) %166, %"class.std::__cxx11::basic_string"* dereferenceable(32) %167) #3
  br i1 %168, label %169, label %188

169:                                              ; preds = %165
  invoke void @_ZN3ast8BoolType4nameB5cxx11Ev(%"class.std::__cxx11::basic_string"* sret %19)
          to label %170 unwind label %147

170:                                              ; preds = %169
  store i8 0, i8* %21, align 1
  invoke void @_ZN8antlrcpp3AnyC2IbEEOT_(%"struct.antlrcpp::Any"* %20, i8* dereferenceable(1) %21)
          to label %171 unwind label %174

171:                                              ; preds = %170
  invoke void @_ZN4mini10TypedValueC1ENSt7__cxx1112basic_stringIcSt11char_traitsIcESaIcEEEN8antlrcpp3AnyE(%"class.mini::TypedValue"* %18, %"class.std::__cxx11::basic_string"* %19, %"struct.antlrcpp::Any"* %20)
          to label %172 unwind label %178

172:                                              ; preds = %171
  invoke void @_ZN8antlrcpp3AnyC2IN4mini10TypedValueEEEOT_(%"struct.antlrcpp::Any"* %0, %"class.mini::TypedValue"* dereferenceable(48) %18)
          to label %173 unwind label %182

173:                                              ; preds = %172
  call void @_ZN4mini10TypedValueD2Ev(%"class.mini::TypedValue"* %18) #3
  call void @_ZN8antlrcpp3AnyD1Ev(%"struct.antlrcpp::Any"* %20) #3
  call void @_ZNSt7__cxx1112basic_stringIcSt11char_traitsIcESaIcEED1Ev(%"class.std::__cxx11::basic_string"* %19) #3
  store i32 1, i32* %17, align 4
  br label %590

174:                                              ; preds = %170
  %175 = landingpad { i8*, i32 }
          cleanup
  %176 = extractvalue { i8*, i32 } %175, 0
  store i8* %176, i8** %9, align 8
  %177 = extractvalue { i8*, i32 } %175, 1
  store i32 %177, i32* %10, align 4
  br label %187

178:                                              ; preds = %171
  %179 = landingpad { i8*, i32 }
          cleanup
  %180 = extractvalue { i8*, i32 } %179, 0
  store i8* %180, i8** %9, align 8
  %181 = extractvalue { i8*, i32 } %179, 1
  store i32 %181, i32* %10, align 4
  br label %186

182:                                              ; preds = %172
  %183 = landingpad { i8*, i32 }
          cleanup
  %184 = extractvalue { i8*, i32 } %183, 0
  store i8* %184, i8** %9, align 8
  %185 = extractvalue { i8*, i32 } %183, 1
  store i32 %185, i32* %10, align 4
  call void @_ZN4mini10TypedValueD2Ev(%"class.mini::TypedValue"* %18) #3
  br label %186

186:                                              ; preds = %182, %178
  call void @_ZN8antlrcpp3AnyD1Ev(%"struct.antlrcpp::Any"* %20) #3
  br label %187

187:                                              ; preds = %186, %174
  call void @_ZNSt7__cxx1112basic_stringIcSt11char_traitsIcESaIcEED1Ev(%"class.std::__cxx11::basic_string"* %19) #3
  br label %591

188:                                              ; preds = %165
  %189 = getelementptr inbounds %"class.mini::TypedValue", %"class.mini::TypedValue"* %7, i32 0, i32 1
  invoke void @_ZN3ast7IntType4nameB5cxx11Ev(%"class.std::__cxx11::basic_string"* sret %22)
          to label %190 unwind label %147

190:                                              ; preds = %188
  %191 = call zeroext i1 @_ZSteqIcEN9__gnu_cxx11__enable_ifIXsr9__is_charIT_EE7__valueEbE6__typeERKNSt7__cxx1112basic_stringIS2_St11char_traitsIS2_ESaIS2_EEESC_(%"class.std::__cxx11::basic_string"* dereferenceable(32) %189, %"class.std::__cxx11::basic_string"* dereferenceable(32) %22) #3
  call void @_ZNSt7__cxx1112basic_stringIcSt11char_traitsIcESaIcEED1Ev(%"class.std::__cxx11::basic_string"* %22) #3
  br i1 %191, label %192, label %217

192:                                              ; preds = %190
  invoke void @_ZN3ast8BoolType4nameB5cxx11Ev(%"class.std::__cxx11::basic_string"* sret %24)
          to label %193 unwind label %147

193:                                              ; preds = %192
  %194 = invoke i32 @_ZN4mini10TypedValue3getIiEET_v(%"class.mini::TypedValue"* %7)
          to label %195 unwind label %203

195:                                              ; preds = %193
  %196 = invoke i32 @_ZN4mini10TypedValue3getIiEET_v(%"class.mini::TypedValue"* %11)
          to label %197 unwind label %203

197:                                              ; preds = %195
  %198 = icmp eq i32 %194, %196
  %199 = zext i1 %198 to i8
  store i8 %199, i8* %26, align 1
  invoke void @_ZN8antlrcpp3AnyC2IbEEOT_(%"struct.antlrcpp::Any"* %25, i8* dereferenceable(1) %26)
          to label %200 unwind label %203

200:                                              ; preds = %197
  invoke void @_ZN4mini10TypedValueC1ENSt7__cxx1112basic_stringIcSt11char_traitsIcESaIcEEEN8antlrcpp3AnyE(%"class.mini::TypedValue"* %23, %"class.std::__cxx11::basic_string"* %24, %"struct.antlrcpp::Any"* %25)
          to label %201 unwind label %207

201:                                              ; preds = %200
  invoke void @_ZN8antlrcpp3AnyC2IN4mini10TypedValueEEEOT_(%"struct.antlrcpp::Any"* %0, %"class.mini::TypedValue"* dereferenceable(48) %23)
          to label %202 unwind label %211

202:                                              ; preds = %201
  call void @_ZN4mini10TypedValueD2Ev(%"class.mini::TypedValue"* %23) #3
  call void @_ZN8antlrcpp3AnyD1Ev(%"struct.antlrcpp::Any"* %25) #3
  call void @_ZNSt7__cxx1112basic_stringIcSt11char_traitsIcESaIcEED1Ev(%"class.std::__cxx11::basic_string"* %24) #3
  store i32 1, i32* %17, align 4
  br label %590

203:                                              ; preds = %197, %195, %193
  %204 = landingpad { i8*, i32 }
          cleanup
  %205 = extractvalue { i8*, i32 } %204, 0
  store i8* %205, i8** %9, align 8
  %206 = extractvalue { i8*, i32 } %204, 1
  store i32 %206, i32* %10, align 4
  br label %216

207:                                              ; preds = %200
  %208 = landingpad { i8*, i32 }
          cleanup
  %209 = extractvalue { i8*, i32 } %208, 0
  store i8* %209, i8** %9, align 8
  %210 = extractvalue { i8*, i32 } %208, 1
  store i32 %210, i32* %10, align 4
  br label %215

211:                                              ; preds = %201
  %212 = landingpad { i8*, i32 }
          cleanup
  %213 = extractvalue { i8*, i32 } %212, 0
  store i8* %213, i8** %9, align 8
  %214 = extractvalue { i8*, i32 } %212, 1
  store i32 %214, i32* %10, align 4
  call void @_ZN4mini10TypedValueD2Ev(%"class.mini::TypedValue"* %23) #3
  br label %215

215:                                              ; preds = %211, %207
  call void @_ZN8antlrcpp3AnyD1Ev(%"struct.antlrcpp::Any"* %25) #3
  br label %216

216:                                              ; preds = %215, %203
  call void @_ZNSt7__cxx1112basic_stringIcSt11char_traitsIcESaIcEED1Ev(%"class.std::__cxx11::basic_string"* %24) #3
  br label %591

217:                                              ; preds = %190
  %218 = getelementptr inbounds %"class.mini::TypedValue", %"class.mini::TypedValue"* %7, i32 0, i32 1
  invoke void @_ZN3ast8BoolType4nameB5cxx11Ev(%"class.std::__cxx11::basic_string"* sret %27)
          to label %219 unwind label %147

219:                                              ; preds = %217
  %220 = call zeroext i1 @_ZSteqIcEN9__gnu_cxx11__enable_ifIXsr9__is_charIT_EE7__valueEbE6__typeERKNSt7__cxx1112basic_stringIS2_St11char_traitsIS2_ESaIS2_EEESC_(%"class.std::__cxx11::basic_string"* dereferenceable(32) %218, %"class.std::__cxx11::basic_string"* dereferenceable(32) %27) #3
  call void @_ZNSt7__cxx1112basic_stringIcSt11char_traitsIcESaIcEED1Ev(%"class.std::__cxx11::basic_string"* %27) #3
  br i1 %220, label %221, label %248

221:                                              ; preds = %219
  invoke void @_ZN3ast8BoolType4nameB5cxx11Ev(%"class.std::__cxx11::basic_string"* sret %29)
          to label %222 unwind label %147

222:                                              ; preds = %221
  %223 = invoke zeroext i1 @_ZN4mini10TypedValue3getIbEET_v(%"class.mini::TypedValue"* %7)
          to label %224 unwind label %234

224:                                              ; preds = %222
  %225 = zext i1 %223 to i32
  %226 = invoke zeroext i1 @_ZN4mini10TypedValue3getIbEET_v(%"class.mini::TypedValue"* %11)
          to label %227 unwind label %234

227:                                              ; preds = %224
  %228 = zext i1 %226 to i32
  %229 = icmp eq i32 %225, %228
  %230 = zext i1 %229 to i8
  store i8 %230, i8* %31, align 1
  invoke void @_ZN8antlrcpp3AnyC2IbEEOT_(%"struct.antlrcpp::Any"* %30, i8* dereferenceable(1) %31)
          to label %231 unwind label %234

231:                                              ; preds = %227
  invoke void @_ZN4mini10TypedValueC1ENSt7__cxx1112basic_stringIcSt11char_traitsIcESaIcEEEN8antlrcpp3AnyE(%"class.mini::TypedValue"* %28, %"class.std::__cxx11::basic_string"* %29, %"struct.antlrcpp::Any"* %30)
          to label %232 unwind label %238

232:                                              ; preds = %231
  invoke void @_ZN8antlrcpp3AnyC2IN4mini10TypedValueEEEOT_(%"struct.antlrcpp::Any"* %0, %"class.mini::TypedValue"* dereferenceable(48) %28)
          to label %233 unwind label %242

233:                                              ; preds = %232
  call void @_ZN4mini10TypedValueD2Ev(%"class.mini::TypedValue"* %28) #3
  call void @_ZN8antlrcpp3AnyD1Ev(%"struct.antlrcpp::Any"* %30) #3
  call void @_ZNSt7__cxx1112basic_stringIcSt11char_traitsIcESaIcEED1Ev(%"class.std::__cxx11::basic_string"* %29) #3
  store i32 1, i32* %17, align 4
  br label %590

234:                                              ; preds = %227, %224, %222
  %235 = landingpad { i8*, i32 }
          cleanup
  %236 = extractvalue { i8*, i32 } %235, 0
  store i8* %236, i8** %9, align 8
  %237 = extractvalue { i8*, i32 } %235, 1
  store i32 %237, i32* %10, align 4
  br label %247

238:                                              ; preds = %231
  %239 = landingpad { i8*, i32 }
          cleanup
  %240 = extractvalue { i8*, i32 } %239, 0
  store i8* %240, i8** %9, align 8
  %241 = extractvalue { i8*, i32 } %239, 1
  store i32 %241, i32* %10, align 4
  br label %246

242:                                              ; preds = %232
  %243 = landingpad { i8*, i32 }
          cleanup
  %244 = extractvalue { i8*, i32 } %243, 0
  store i8* %244, i8** %9, align 8
  %245 = extractvalue { i8*, i32 } %243, 1
  store i32 %245, i32* %10, align 4
  call void @_ZN4mini10TypedValueD2Ev(%"class.mini::TypedValue"* %28) #3
  br label %246

246:                                              ; preds = %242, %238
  call void @_ZN8antlrcpp3AnyD1Ev(%"struct.antlrcpp::Any"* %30) #3
  br label %247

247:                                              ; preds = %246, %234
  call void @_ZNSt7__cxx1112basic_stringIcSt11char_traitsIcESaIcEED1Ev(%"class.std::__cxx11::basic_string"* %29) #3
  br label %591

248:                                              ; preds = %219
  invoke void @_ZN3ast8BoolType4nameB5cxx11Ev(%"class.std::__cxx11::basic_string"* sret %33)
          to label %249 unwind label %147

249:                                              ; preds = %248
  store i8 0, i8* %35, align 1
  invoke void @_ZN8antlrcpp3AnyC2IbEEOT_(%"struct.antlrcpp::Any"* %34, i8* dereferenceable(1) %35)
          to label %250 unwind label %253

250:                                              ; preds = %249
  invoke void @_ZN4mini10TypedValueC1ENSt7__cxx1112basic_stringIcSt11char_traitsIcESaIcEEEN8antlrcpp3AnyE(%"class.mini::TypedValue"* %32, %"class.std::__cxx11::basic_string"* %33, %"struct.antlrcpp::Any"* %34)
          to label %251 unwind label %257

251:                                              ; preds = %250
  invoke void @_ZN8antlrcpp3AnyC2IN4mini10TypedValueEEEOT_(%"struct.antlrcpp::Any"* %0, %"class.mini::TypedValue"* dereferenceable(48) %32)
          to label %252 unwind label %261

252:                                              ; preds = %251
  call void @_ZN4mini10TypedValueD2Ev(%"class.mini::TypedValue"* %32) #3
  call void @_ZN8antlrcpp3AnyD1Ev(%"struct.antlrcpp::Any"* %34) #3
  call void @_ZNSt7__cxx1112basic_stringIcSt11char_traitsIcESaIcEED1Ev(%"class.std::__cxx11::basic_string"* %33) #3
  store i32 1, i32* %17, align 4
  br label %590

253:                                              ; preds = %249
  %254 = landingpad { i8*, i32 }
          cleanup
  %255 = extractvalue { i8*, i32 } %254, 0
  store i8* %255, i8** %9, align 8
  %256 = extractvalue { i8*, i32 } %254, 1
  store i32 %256, i32* %10, align 4
  br label %266

257:                                              ; preds = %250
  %258 = landingpad { i8*, i32 }
          cleanup
  %259 = extractvalue { i8*, i32 } %258, 0
  store i8* %259, i8** %9, align 8
  %260 = extractvalue { i8*, i32 } %258, 1
  store i32 %260, i32* %10, align 4
  br label %265

261:                                              ; preds = %251
  %262 = landingpad { i8*, i32 }
          cleanup
  %263 = extractvalue { i8*, i32 } %262, 0
  store i8* %263, i8** %9, align 8
  %264 = extractvalue { i8*, i32 } %262, 1
  store i32 %264, i32* %10, align 4
  call void @_ZN4mini10TypedValueD2Ev(%"class.mini::TypedValue"* %32) #3
  br label %265

265:                                              ; preds = %261, %257
  call void @_ZN8antlrcpp3AnyD1Ev(%"struct.antlrcpp::Any"* %34) #3
  br label %266

266:                                              ; preds = %265, %253
  call void @_ZNSt7__cxx1112basic_stringIcSt11char_traitsIcESaIcEED1Ev(%"class.std::__cxx11::basic_string"* %33) #3
  br label %591

267:                                              ; preds = %113
  %268 = load %"class.ast::BinaryExpression"*, %"class.ast::BinaryExpression"** %6, align 8
  %269 = getelementptr inbounds %"class.ast::BinaryExpression", %"class.ast::BinaryExpression"* %268, i32 0, i32 1
  %270 = load i32, i32* %269, align 4
  %271 = icmp eq i32 %270, 9
  br i1 %271, label %272, label %296

272:                                              ; preds = %267
  %273 = getelementptr inbounds %"class.mini::TypedValue", %"class.mini::TypedValue"* %7, i32 0, i32 1
  %274 = getelementptr inbounds %"class.mini::TypedValue", %"class.mini::TypedValue"* %11, i32 0, i32 1
  %275 = call zeroext i1 @_ZStneIcSt11char_traitsIcESaIcEEbRKNSt7__cxx1112basic_stringIT_T0_T1_EESA_(%"class.std::__cxx11::basic_string"* dereferenceable(32) %273, %"class.std::__cxx11::basic_string"* dereferenceable(32) %274) #3
  br i1 %275, label %276, label %295

276:                                              ; preds = %272
  invoke void @_ZN3ast8BoolType4nameB5cxx11Ev(%"class.std::__cxx11::basic_string"* sret %37)
          to label %277 unwind label %147

277:                                              ; preds = %276
  store i8 1, i8* %39, align 1
  invoke void @_ZN8antlrcpp3AnyC2IbEEOT_(%"struct.antlrcpp::Any"* %38, i8* dereferenceable(1) %39)
          to label %278 unwind label %281

278:                                              ; preds = %277
  invoke void @_ZN4mini10TypedValueC1ENSt7__cxx1112basic_stringIcSt11char_traitsIcESaIcEEEN8antlrcpp3AnyE(%"class.mini::TypedValue"* %36, %"class.std::__cxx11::basic_string"* %37, %"struct.antlrcpp::Any"* %38)
          to label %279 unwind label %285

279:                                              ; preds = %278
  invoke void @_ZN8antlrcpp3AnyC2IN4mini10TypedValueEEEOT_(%"struct.antlrcpp::Any"* %0, %"class.mini::TypedValue"* dereferenceable(48) %36)
          to label %280 unwind label %289

280:                                              ; preds = %279
  call void @_ZN4mini10TypedValueD2Ev(%"class.mini::TypedValue"* %36) #3
  call void @_ZN8antlrcpp3AnyD1Ev(%"struct.antlrcpp::Any"* %38) #3
  call void @_ZNSt7__cxx1112basic_stringIcSt11char_traitsIcESaIcEED1Ev(%"class.std::__cxx11::basic_string"* %37) #3
  store i32 1, i32* %17, align 4
  br label %590

281:                                              ; preds = %277
  %282 = landingpad { i8*, i32 }
          cleanup
  %283 = extractvalue { i8*, i32 } %282, 0
  store i8* %283, i8** %9, align 8
  %284 = extractvalue { i8*, i32 } %282, 1
  store i32 %284, i32* %10, align 4
  br label %294

285:                                              ; preds = %278
  %286 = landingpad { i8*, i32 }
          cleanup
  %287 = extractvalue { i8*, i32 } %286, 0
  store i8* %287, i8** %9, align 8
  %288 = extractvalue { i8*, i32 } %286, 1
  store i32 %288, i32* %10, align 4
  br label %293

289:                                              ; preds = %279
  %290 = landingpad { i8*, i32 }
          cleanup
  %291 = extractvalue { i8*, i32 } %290, 0
  store i8* %291, i8** %9, align 8
  %292 = extractvalue { i8*, i32 } %290, 1
  store i32 %292, i32* %10, align 4
  call void @_ZN4mini10TypedValueD2Ev(%"class.mini::TypedValue"* %36) #3
  br label %293

293:                                              ; preds = %289, %285
  call void @_ZN8antlrcpp3AnyD1Ev(%"struct.antlrcpp::Any"* %38) #3
  br label %294

294:                                              ; preds = %293, %281
  call void @_ZNSt7__cxx1112basic_stringIcSt11char_traitsIcESaIcEED1Ev(%"class.std::__cxx11::basic_string"* %37) #3
  br label %591

295:                                              ; preds = %272
  br label %296

296:                                              ; preds = %295, %267
  br label %297

297:                                              ; preds = %296
  %298 = getelementptr inbounds %"class.mini::TypedValue", %"class.mini::TypedValue"* %7, i32 0, i32 1
  store i1 false, i1* %42, align 1
  invoke void @_ZN3ast7IntType4nameB5cxx11Ev(%"class.std::__cxx11::basic_string"* sret %40)
          to label %299 unwind label %147

299:                                              ; preds = %297
  %300 = call zeroext i1 @_ZSteqIcEN9__gnu_cxx11__enable_ifIXsr9__is_charIT_EE7__valueEbE6__typeERKNSt7__cxx1112basic_stringIS2_St11char_traitsIS2_ESaIS2_EEESC_(%"class.std::__cxx11::basic_string"* dereferenceable(32) %298, %"class.std::__cxx11::basic_string"* dereferenceable(32) %40) #3
  br i1 %300, label %301, label %305

301:                                              ; preds = %299
  %302 = getelementptr inbounds %"class.mini::TypedValue", %"class.mini::TypedValue"* %11, i32 0, i32 1
  invoke void @_ZN3ast7IntType4nameB5cxx11Ev(%"class.std::__cxx11::basic_string"* sret %41)
          to label %303 unwind label %318

303:                                              ; preds = %301
  store i1 true, i1* %42, align 1
  %304 = call zeroext i1 @_ZSteqIcEN9__gnu_cxx11__enable_ifIXsr9__is_charIT_EE7__valueEbE6__typeERKNSt7__cxx1112basic_stringIS2_St11char_traitsIS2_ESaIS2_EEESC_(%"class.std::__cxx11::basic_string"* dereferenceable(32) %302, %"class.std::__cxx11::basic_string"* dereferenceable(32) %41) #3
  br label %305

305:                                              ; preds = %303, %299
  %306 = phi i1 [ false, %299 ], [ %304, %303 ]
  %307 = load i1, i1* %42, align 1
  br i1 %307, label %308, label %309

308:                                              ; preds = %305
  call void @_ZNSt7__cxx1112basic_stringIcSt11char_traitsIcESaIcEED1Ev(%"class.std::__cxx11::basic_string"* %41) #3
  br label %309

309:                                              ; preds = %308, %305
  call void @_ZNSt7__cxx1112basic_stringIcSt11char_traitsIcESaIcEED1Ev(%"class.std::__cxx11::basic_string"* %40) #3
  br i1 %306, label %310, label %504

310:                                              ; preds = %309
  %311 = invoke i32 @_ZN4mini10TypedValue3getIiEET_v(%"class.mini::TypedValue"* %7)
          to label %312 unwind label %147

312:                                              ; preds = %310
  store i32 %311, i32* %43, align 4
  %313 = invoke i32 @_ZN4mini10TypedValue3getIiEET_v(%"class.mini::TypedValue"* %11)
          to label %314 unwind label %147

314:                                              ; preds = %312
  store i32 %313, i32* %44, align 4
  %315 = load %"class.ast::BinaryExpression"*, %"class.ast::BinaryExpression"** %6, align 8
  %316 = getelementptr inbounds %"class.ast::BinaryExpression", %"class.ast::BinaryExpression"* %315, i32 0, i32 1
  %317 = load i32, i32* %316, align 4
  switch i32 %317, label %502 [
    i32 0, label %322
    i32 1, label %344
    i32 2, label %366
    i32 3, label %388
    i32 4, label %410
    i32 5, label %433
    i32 6, label %456
    i32 7, label %479
  ]

318:                                              ; preds = %301
  %319 = landingpad { i8*, i32 }
          cleanup
  %320 = extractvalue { i8*, i32 } %319, 0
  store i8* %320, i8** %9, align 8
  %321 = extractvalue { i8*, i32 } %319, 1
  store i32 %321, i32* %10, align 4
  call void @_ZNSt7__cxx1112basic_stringIcSt11char_traitsIcESaIcEED1Ev(%"class.std::__cxx11::basic_string"* %40) #3
  br label %591

322:                                              ; preds = %314
  invoke void @_ZN3ast7IntType4nameB5cxx11Ev(%"class.std::__cxx11::basic_string"* sret %46)
          to label %323 unwind label %147

323:                                              ; preds = %322
  %324 = load i32, i32* %43, align 4
  %325 = load i32, i32* %44, align 4
  %326 = mul nsw i32 %324, %325
  store i32 %326, i32* %48, align 4
  invoke void @_ZN8antlrcpp3AnyC2IiEEOT_(%"struct.antlrcpp::Any"* %47, i32* dereferenceable(4) %48)
          to label %327 unwind label %330

327:                                              ; preds = %323
  invoke void @_ZN4mini10TypedValueC1ENSt7__cxx1112basic_stringIcSt11char_traitsIcESaIcEEEN8antlrcpp3AnyE(%"class.mini::TypedValue"* %45, %"class.std::__cxx11::basic_string"* %46, %"struct.antlrcpp::Any"* %47)
          to label %328 unwind label %334

328:                                              ; preds = %327
  invoke void @_ZN8antlrcpp3AnyC2IN4mini10TypedValueEEEOT_(%"struct.antlrcpp::Any"* %0, %"class.mini::TypedValue"* dereferenceable(48) %45)
          to label %329 unwind label %338

329:                                              ; preds = %328
  call void @_ZN4mini10TypedValueD2Ev(%"class.mini::TypedValue"* %45) #3
  call void @_ZN8antlrcpp3AnyD1Ev(%"struct.antlrcpp::Any"* %47) #3
  call void @_ZNSt7__cxx1112basic_stringIcSt11char_traitsIcESaIcEED1Ev(%"class.std::__cxx11::basic_string"* %46) #3
  store i32 1, i32* %17, align 4
  br label %590

330:                                              ; preds = %323
  %331 = landingpad { i8*, i32 }
          cleanup
  %332 = extractvalue { i8*, i32 } %331, 0
  store i8* %332, i8** %9, align 8
  %333 = extractvalue { i8*, i32 } %331, 1
  store i32 %333, i32* %10, align 4
  br label %343

334:                                              ; preds = %327
  %335 = landingpad { i8*, i32 }
          cleanup
  %336 = extractvalue { i8*, i32 } %335, 0
  store i8* %336, i8** %9, align 8
  %337 = extractvalue { i8*, i32 } %335, 1
  store i32 %337, i32* %10, align 4
  br label %342

338:                                              ; preds = %328
  %339 = landingpad { i8*, i32 }
          cleanup
  %340 = extractvalue { i8*, i32 } %339, 0
  store i8* %340, i8** %9, align 8
  %341 = extractvalue { i8*, i32 } %339, 1
  store i32 %341, i32* %10, align 4
  call void @_ZN4mini10TypedValueD2Ev(%"class.mini::TypedValue"* %45) #3
  br label %342

342:                                              ; preds = %338, %334
  call void @_ZN8antlrcpp3AnyD1Ev(%"struct.antlrcpp::Any"* %47) #3
  br label %343

343:                                              ; preds = %342, %330
  call void @_ZNSt7__cxx1112basic_stringIcSt11char_traitsIcESaIcEED1Ev(%"class.std::__cxx11::basic_string"* %46) #3
  br label %591

344:                                              ; preds = %314
  invoke void @_ZN3ast7IntType4nameB5cxx11Ev(%"class.std::__cxx11::basic_string"* sret %50)
          to label %345 unwind label %147

345:                                              ; preds = %344
  %346 = load i32, i32* %43, align 4
  %347 = load i32, i32* %44, align 4
  %348 = sdiv i32 %346, %347
  store i32 %348, i32* %52, align 4
  invoke void @_ZN8antlrcpp3AnyC2IiEEOT_(%"struct.antlrcpp::Any"* %51, i32* dereferenceable(4) %52)
          to label %349 unwind label %352

349:                                              ; preds = %345
  invoke void @_ZN4mini10TypedValueC1ENSt7__cxx1112basic_stringIcSt11char_traitsIcESaIcEEEN8antlrcpp3AnyE(%"class.mini::TypedValue"* %49, %"class.std::__cxx11::basic_string"* %50, %"struct.antlrcpp::Any"* %51)
          to label %350 unwind label %356

350:                                              ; preds = %349
  invoke void @_ZN8antlrcpp3AnyC2IN4mini10TypedValueEEEOT_(%"struct.antlrcpp::Any"* %0, %"class.mini::TypedValue"* dereferenceable(48) %49)
          to label %351 unwind label %360

351:                                              ; preds = %350
  call void @_ZN4mini10TypedValueD2Ev(%"class.mini::TypedValue"* %49) #3
  call void @_ZN8antlrcpp3AnyD1Ev(%"struct.antlrcpp::Any"* %51) #3
  call void @_ZNSt7__cxx1112basic_stringIcSt11char_traitsIcESaIcEED1Ev(%"class.std::__cxx11::basic_string"* %50) #3
  store i32 1, i32* %17, align 4
  br label %590

352:                                              ; preds = %345
  %353 = landingpad { i8*, i32 }
          cleanup
  %354 = extractvalue { i8*, i32 } %353, 0
  store i8* %354, i8** %9, align 8
  %355 = extractvalue { i8*, i32 } %353, 1
  store i32 %355, i32* %10, align 4
  br label %365

356:                                              ; preds = %349
  %357 = landingpad { i8*, i32 }
          cleanup
  %358 = extractvalue { i8*, i32 } %357, 0
  store i8* %358, i8** %9, align 8
  %359 = extractvalue { i8*, i32 } %357, 1
  store i32 %359, i32* %10, align 4
  br label %364

360:                                              ; preds = %350
  %361 = landingpad { i8*, i32 }
          cleanup
  %362 = extractvalue { i8*, i32 } %361, 0
  store i8* %362, i8** %9, align 8
  %363 = extractvalue { i8*, i32 } %361, 1
  store i32 %363, i32* %10, align 4
  call void @_ZN4mini10TypedValueD2Ev(%"class.mini::TypedValue"* %49) #3
  br label %364

364:                                              ; preds = %360, %356
  call void @_ZN8antlrcpp3AnyD1Ev(%"struct.antlrcpp::Any"* %51) #3
  br label %365

365:                                              ; preds = %364, %352
  call void @_ZNSt7__cxx1112basic_stringIcSt11char_traitsIcESaIcEED1Ev(%"class.std::__cxx11::basic_string"* %50) #3
  br label %591

366:                                              ; preds = %314
  invoke void @_ZN3ast7IntType4nameB5cxx11Ev(%"class.std::__cxx11::basic_string"* sret %54)
          to label %367 unwind label %147

367:                                              ; preds = %366
  %368 = load i32, i32* %43, align 4
  %369 = load i32, i32* %44, align 4
  %370 = add nsw i32 %368, %369
  store i32 %370, i32* %56, align 4
  invoke void @_ZN8antlrcpp3AnyC2IiEEOT_(%"struct.antlrcpp::Any"* %55, i32* dereferenceable(4) %56)
          to label %371 unwind label %374

371:                                              ; preds = %367
  invoke void @_ZN4mini10TypedValueC1ENSt7__cxx1112basic_stringIcSt11char_traitsIcESaIcEEEN8antlrcpp3AnyE(%"class.mini::TypedValue"* %53, %"class.std::__cxx11::basic_string"* %54, %"struct.antlrcpp::Any"* %55)
          to label %372 unwind label %378

372:                                              ; preds = %371
  invoke void @_ZN8antlrcpp3AnyC2IN4mini10TypedValueEEEOT_(%"struct.antlrcpp::Any"* %0, %"class.mini::TypedValue"* dereferenceable(48) %53)
          to label %373 unwind label %382

373:                                              ; preds = %372
  call void @_ZN4mini10TypedValueD2Ev(%"class.mini::TypedValue"* %53) #3
  call void @_ZN8antlrcpp3AnyD1Ev(%"struct.antlrcpp::Any"* %55) #3
  call void @_ZNSt7__cxx1112basic_stringIcSt11char_traitsIcESaIcEED1Ev(%"class.std::__cxx11::basic_string"* %54) #3
  store i32 1, i32* %17, align 4
  br label %590

374:                                              ; preds = %367
  %375 = landingpad { i8*, i32 }
          cleanup
  %376 = extractvalue { i8*, i32 } %375, 0
  store i8* %376, i8** %9, align 8
  %377 = extractvalue { i8*, i32 } %375, 1
  store i32 %377, i32* %10, align 4
  br label %387

378:                                              ; preds = %371
  %379 = landingpad { i8*, i32 }
          cleanup
  %380 = extractvalue { i8*, i32 } %379, 0
  store i8* %380, i8** %9, align 8
  %381 = extractvalue { i8*, i32 } %379, 1
  store i32 %381, i32* %10, align 4
  br label %386

382:                                              ; preds = %372
  %383 = landingpad { i8*, i32 }
          cleanup
  %384 = extractvalue { i8*, i32 } %383, 0
  store i8* %384, i8** %9, align 8
  %385 = extractvalue { i8*, i32 } %383, 1
  store i32 %385, i32* %10, align 4
  call void @_ZN4mini10TypedValueD2Ev(%"class.mini::TypedValue"* %53) #3
  br label %386

386:                                              ; preds = %382, %378
  call void @_ZN8antlrcpp3AnyD1Ev(%"struct.antlrcpp::Any"* %55) #3
  br label %387

387:                                              ; preds = %386, %374
  call void @_ZNSt7__cxx1112basic_stringIcSt11char_traitsIcESaIcEED1Ev(%"class.std::__cxx11::basic_string"* %54) #3
  br label %591

388:                                              ; preds = %314
  invoke void @_ZN3ast7IntType4nameB5cxx11Ev(%"class.std::__cxx11::basic_string"* sret %58)
          to label %389 unwind label %147

389:                                              ; preds = %388
  %390 = load i32, i32* %43, align 4
  %391 = load i32, i32* %44, align 4
  %392 = sub nsw i32 %390, %391
  store i32 %392, i32* %60, align 4
  invoke void @_ZN8antlrcpp3AnyC2IiEEOT_(%"struct.antlrcpp::Any"* %59, i32* dereferenceable(4) %60)
          to label %393 unwind label %396

393:                                              ; preds = %389
  invoke void @_ZN4mini10TypedValueC1ENSt7__cxx1112basic_stringIcSt11char_traitsIcESaIcEEEN8antlrcpp3AnyE(%"class.mini::TypedValue"* %57, %"class.std::__cxx11::basic_string"* %58, %"struct.antlrcpp::Any"* %59)
          to label %394 unwind label %400

394:                                              ; preds = %393
  invoke void @_ZN8antlrcpp3AnyC2IN4mini10TypedValueEEEOT_(%"struct.antlrcpp::Any"* %0, %"class.mini::TypedValue"* dereferenceable(48) %57)
          to label %395 unwind label %404

395:                                              ; preds = %394
  call void @_ZN4mini10TypedValueD2Ev(%"class.mini::TypedValue"* %57) #3
  call void @_ZN8antlrcpp3AnyD1Ev(%"struct.antlrcpp::Any"* %59) #3
  call void @_ZNSt7__cxx1112basic_stringIcSt11char_traitsIcESaIcEED1Ev(%"class.std::__cxx11::basic_string"* %58) #3
  store i32 1, i32* %17, align 4
  br label %590

396:                                              ; preds = %389
  %397 = landingpad { i8*, i32 }
          cleanup
  %398 = extractvalue { i8*, i32 } %397, 0
  store i8* %398, i8** %9, align 8
  %399 = extractvalue { i8*, i32 } %397, 1
  store i32 %399, i32* %10, align 4
  br label %409

400:                                              ; preds = %393
  %401 = landingpad { i8*, i32 }
          cleanup
  %402 = extractvalue { i8*, i32 } %401, 0
  store i8* %402, i8** %9, align 8
  %403 = extractvalue { i8*, i32 } %401, 1
  store i32 %403, i32* %10, align 4
  br label %408

404:                                              ; preds = %394
  %405 = landingpad { i8*, i32 }
          cleanup
  %406 = extractvalue { i8*, i32 } %405, 0
  store i8* %406, i8** %9, align 8
  %407 = extractvalue { i8*, i32 } %405, 1
  store i32 %407, i32* %10, align 4
  call void @_ZN4mini10TypedValueD2Ev(%"class.mini::TypedValue"* %57) #3
  br label %408

408:                                              ; preds = %404, %400
  call void @_ZN8antlrcpp3AnyD1Ev(%"struct.antlrcpp::Any"* %59) #3
  br label %409

409:                                              ; preds = %408, %396
  call void @_ZNSt7__cxx1112basic_stringIcSt11char_traitsIcESaIcEED1Ev(%"class.std::__cxx11::basic_string"* %58) #3
  br label %591

410:                                              ; preds = %314
  invoke void @_ZN3ast8BoolType4nameB5cxx11Ev(%"class.std::__cxx11::basic_string"* sret %62)
          to label %411 unwind label %147

411:                                              ; preds = %410
  %412 = load i32, i32* %43, align 4
  %413 = load i32, i32* %44, align 4
  %414 = icmp slt i32 %412, %413
  %415 = zext i1 %414 to i8
  store i8 %415, i8* %64, align 1
  invoke void @_ZN8antlrcpp3AnyC2IbEEOT_(%"struct.antlrcpp::Any"* %63, i8* dereferenceable(1) %64)
          to label %416 unwind label %419

416:                                              ; preds = %411
  invoke void @_ZN4mini10TypedValueC1ENSt7__cxx1112basic_stringIcSt11char_traitsIcESaIcEEEN8antlrcpp3AnyE(%"class.mini::TypedValue"* %61, %"class.std::__cxx11::basic_string"* %62, %"struct.antlrcpp::Any"* %63)
          to label %417 unwind label %423

417:                                              ; preds = %416
  invoke void @_ZN8antlrcpp3AnyC2IN4mini10TypedValueEEEOT_(%"struct.antlrcpp::Any"* %0, %"class.mini::TypedValue"* dereferenceable(48) %61)
          to label %418 unwind label %427

418:                                              ; preds = %417
  call void @_ZN4mini10TypedValueD2Ev(%"class.mini::TypedValue"* %61) #3
  call void @_ZN8antlrcpp3AnyD1Ev(%"struct.antlrcpp::Any"* %63) #3
  call void @_ZNSt7__cxx1112basic_stringIcSt11char_traitsIcESaIcEED1Ev(%"class.std::__cxx11::basic_string"* %62) #3
  store i32 1, i32* %17, align 4
  br label %590

419:                                              ; preds = %411
  %420 = landingpad { i8*, i32 }
          cleanup
  %421 = extractvalue { i8*, i32 } %420, 0
  store i8* %421, i8** %9, align 8
  %422 = extractvalue { i8*, i32 } %420, 1
  store i32 %422, i32* %10, align 4
  br label %432

423:                                              ; preds = %416
  %424 = landingpad { i8*, i32 }
          cleanup
  %425 = extractvalue { i8*, i32 } %424, 0
  store i8* %425, i8** %9, align 8
  %426 = extractvalue { i8*, i32 } %424, 1
  store i32 %426, i32* %10, align 4
  br label %431

427:                                              ; preds = %417
  %428 = landingpad { i8*, i32 }
          cleanup
  %429 = extractvalue { i8*, i32 } %428, 0
  store i8* %429, i8** %9, align 8
  %430 = extractvalue { i8*, i32 } %428, 1
  store i32 %430, i32* %10, align 4
  call void @_ZN4mini10TypedValueD2Ev(%"class.mini::TypedValue"* %61) #3
  br label %431

431:                                              ; preds = %427, %423
  call void @_ZN8antlrcpp3AnyD1Ev(%"struct.antlrcpp::Any"* %63) #3
  br label %432

432:                                              ; preds = %431, %419
  call void @_ZNSt7__cxx1112basic_stringIcSt11char_traitsIcESaIcEED1Ev(%"class.std::__cxx11::basic_string"* %62) #3
  br label %591

433:                                              ; preds = %314
  invoke void @_ZN3ast8BoolType4nameB5cxx11Ev(%"class.std::__cxx11::basic_string"* sret %66)
          to label %434 unwind label %147

434:                                              ; preds = %433
  %435 = load i32, i32* %43, align 4
  %436 = load i32, i32* %44, align 4
  %437 = icmp sle i32 %435, %436
  %438 = zext i1 %437 to i8
  store i8 %438, i8* %68, align 1
  invoke void @_ZN8antlrcpp3AnyC2IbEEOT_(%"struct.antlrcpp::Any"* %67, i8* dereferenceable(1) %68)
          to label %439 unwind label %442

439:                                              ; preds = %434
  invoke void @_ZN4mini10TypedValueC1ENSt7__cxx1112basic_stringIcSt11char_traitsIcESaIcEEEN8antlrcpp3AnyE(%"class.mini::TypedValue"* %65, %"class.std::__cxx11::basic_string"* %66, %"struct.antlrcpp::Any"* %67)
          to label %440 unwind label %446

440:                                              ; preds = %439
  invoke void @_ZN8antlrcpp3AnyC2IN4mini10TypedValueEEEOT_(%"struct.antlrcpp::Any"* %0, %"class.mini::TypedValue"* dereferenceable(48) %65)
          to label %441 unwind label %450

441:                                              ; preds = %440
  call void @_ZN4mini10TypedValueD2Ev(%"class.mini::TypedValue"* %65) #3
  call void @_ZN8antlrcpp3AnyD1Ev(%"struct.antlrcpp::Any"* %67) #3
  call void @_ZNSt7__cxx1112basic_stringIcSt11char_traitsIcESaIcEED1Ev(%"class.std::__cxx11::basic_string"* %66) #3
  store i32 1, i32* %17, align 4
  br label %590

442:                                              ; preds = %434
  %443 = landingpad { i8*, i32 }
          cleanup
  %444 = extractvalue { i8*, i32 } %443, 0
  store i8* %444, i8** %9, align 8
  %445 = extractvalue { i8*, i32 } %443, 1
  store i32 %445, i32* %10, align 4
  br label %455

446:                                              ; preds = %439
  %447 = landingpad { i8*, i32 }
          cleanup
  %448 = extractvalue { i8*, i32 } %447, 0
  store i8* %448, i8** %9, align 8
  %449 = extractvalue { i8*, i32 } %447, 1
  store i32 %449, i32* %10, align 4
  br label %454

450:                                              ; preds = %440
  %451 = landingpad { i8*, i32 }
          cleanup
  %452 = extractvalue { i8*, i32 } %451, 0
  store i8* %452, i8** %9, align 8
  %453 = extractvalue { i8*, i32 } %451, 1
  store i32 %453, i32* %10, align 4
  call void @_ZN4mini10TypedValueD2Ev(%"class.mini::TypedValue"* %65) #3
  br label %454

454:                                              ; preds = %450, %446
  call void @_ZN8antlrcpp3AnyD1Ev(%"struct.antlrcpp::Any"* %67) #3
  br label %455

455:                                              ; preds = %454, %442
  call void @_ZNSt7__cxx1112basic_stringIcSt11char_traitsIcESaIcEED1Ev(%"class.std::__cxx11::basic_string"* %66) #3
  br label %591

456:                                              ; preds = %314
  invoke void @_ZN3ast8BoolType4nameB5cxx11Ev(%"class.std::__cxx11::basic_string"* sret %70)
          to label %457 unwind label %147

457:                                              ; preds = %456
  %458 = load i32, i32* %43, align 4
  %459 = load i32, i32* %44, align 4
  %460 = icmp sgt i32 %458, %459
  %461 = zext i1 %460 to i8
  store i8 %461, i8* %72, align 1
  invoke void @_ZN8antlrcpp3AnyC2IbEEOT_(%"struct.antlrcpp::Any"* %71, i8* dereferenceable(1) %72)
          to label %462 unwind label %465

462:                                              ; preds = %457
  invoke void @_ZN4mini10TypedValueC1ENSt7__cxx1112basic_stringIcSt11char_traitsIcESaIcEEEN8antlrcpp3AnyE(%"class.mini::TypedValue"* %69, %"class.std::__cxx11::basic_string"* %70, %"struct.antlrcpp::Any"* %71)
          to label %463 unwind label %469

463:                                              ; preds = %462
  invoke void @_ZN8antlrcpp3AnyC2IN4mini10TypedValueEEEOT_(%"struct.antlrcpp::Any"* %0, %"class.mini::TypedValue"* dereferenceable(48) %69)
          to label %464 unwind label %473

464:                                              ; preds = %463
  call void @_ZN4mini10TypedValueD2Ev(%"class.mini::TypedValue"* %69) #3
  call void @_ZN8antlrcpp3AnyD1Ev(%"struct.antlrcpp::Any"* %71) #3
  call void @_ZNSt7__cxx1112basic_stringIcSt11char_traitsIcESaIcEED1Ev(%"class.std::__cxx11::basic_string"* %70) #3
  store i32 1, i32* %17, align 4
  br label %590

465:                                              ; preds = %457
  %466 = landingpad { i8*, i32 }
          cleanup
  %467 = extractvalue { i8*, i32 } %466, 0
  store i8* %467, i8** %9, align 8
  %468 = extractvalue { i8*, i32 } %466, 1
  store i32 %468, i32* %10, align 4
  br label %478

469:                                              ; preds = %462
  %470 = landingpad { i8*, i32 }
          cleanup
  %471 = extractvalue { i8*, i32 } %470, 0
  store i8* %471, i8** %9, align 8
  %472 = extractvalue { i8*, i32 } %470, 1
  store i32 %472, i32* %10, align 4
  br label %477

473:                                              ; preds = %463
  %474 = landingpad { i8*, i32 }
          cleanup
  %475 = extractvalue { i8*, i32 } %474, 0
  store i8* %475, i8** %9, align 8
  %476 = extractvalue { i8*, i32 } %474, 1
  store i32 %476, i32* %10, align 4
  call void @_ZN4mini10TypedValueD2Ev(%"class.mini::TypedValue"* %69) #3
  br label %477

477:                                              ; preds = %473, %469
  call void @_ZN8antlrcpp3AnyD1Ev(%"struct.antlrcpp::Any"* %71) #3
  br label %478

478:                                              ; preds = %477, %465
  call void @_ZNSt7__cxx1112basic_stringIcSt11char_traitsIcESaIcEED1Ev(%"class.std::__cxx11::basic_string"* %70) #3
  br label %591

479:                                              ; preds = %314
  invoke void @_ZN3ast8BoolType4nameB5cxx11Ev(%"class.std::__cxx11::basic_string"* sret %74)
          to label %480 unwind label %147

480:                                              ; preds = %479
  %481 = load i32, i32* %43, align 4
  %482 = load i32, i32* %44, align 4
  %483 = icmp sge i32 %481, %482
  %484 = zext i1 %483 to i8
  store i8 %484, i8* %76, align 1
  invoke void @_ZN8antlrcpp3AnyC2IbEEOT_(%"struct.antlrcpp::Any"* %75, i8* dereferenceable(1) %76)
          to label %485 unwind label %488

485:                                              ; preds = %480
  invoke void @_ZN4mini10TypedValueC1ENSt7__cxx1112basic_stringIcSt11char_traitsIcESaIcEEEN8antlrcpp3AnyE(%"class.mini::TypedValue"* %73, %"class.std::__cxx11::basic_string"* %74, %"struct.antlrcpp::Any"* %75)
          to label %486 unwind label %492

486:                                              ; preds = %485
  invoke void @_ZN8antlrcpp3AnyC2IN4mini10TypedValueEEEOT_(%"struct.antlrcpp::Any"* %0, %"class.mini::TypedValue"* dereferenceable(48) %73)
          to label %487 unwind label %496

487:                                              ; preds = %486
  call void @_ZN4mini10TypedValueD2Ev(%"class.mini::TypedValue"* %73) #3
  call void @_ZN8antlrcpp3AnyD1Ev(%"struct.antlrcpp::Any"* %75) #3
  call void @_ZNSt7__cxx1112basic_stringIcSt11char_traitsIcESaIcEED1Ev(%"class.std::__cxx11::basic_string"* %74) #3
  store i32 1, i32* %17, align 4
  br label %590

488:                                              ; preds = %480
  %489 = landingpad { i8*, i32 }
          cleanup
  %490 = extractvalue { i8*, i32 } %489, 0
  store i8* %490, i8** %9, align 8
  %491 = extractvalue { i8*, i32 } %489, 1
  store i32 %491, i32* %10, align 4
  br label %501

492:                                              ; preds = %485
  %493 = landingpad { i8*, i32 }
          cleanup
  %494 = extractvalue { i8*, i32 } %493, 0
  store i8* %494, i8** %9, align 8
  %495 = extractvalue { i8*, i32 } %493, 1
  store i32 %495, i32* %10, align 4
  br label %500

496:                                              ; preds = %486
  %497 = landingpad { i8*, i32 }
          cleanup
  %498 = extractvalue { i8*, i32 } %497, 0
  store i8* %498, i8** %9, align 8
  %499 = extractvalue { i8*, i32 } %497, 1
  store i32 %499, i32* %10, align 4
  call void @_ZN4mini10TypedValueD2Ev(%"class.mini::TypedValue"* %73) #3
  br label %500

500:                                              ; preds = %496, %492
  call void @_ZN8antlrcpp3AnyD1Ev(%"struct.antlrcpp::Any"* %75) #3
  br label %501

501:                                              ; preds = %500, %488
  call void @_ZNSt7__cxx1112basic_stringIcSt11char_traitsIcESaIcEED1Ev(%"class.std::__cxx11::basic_string"* %74) #3
  br label %591

502:                                              ; preds = %314
  br label %503

503:                                              ; preds = %502
  br label %588

504:                                              ; preds = %309
  %505 = getelementptr inbounds %"class.mini::TypedValue", %"class.mini::TypedValue"* %7, i32 0, i32 1
  store i1 false, i1* %79, align 1
  invoke void @_ZN3ast8BoolType4nameB5cxx11Ev(%"class.std::__cxx11::basic_string"* sret %77)
          to label %506 unwind label %147

506:                                              ; preds = %504
  %507 = call zeroext i1 @_ZSteqIcEN9__gnu_cxx11__enable_ifIXsr9__is_charIT_EE7__valueEbE6__typeERKNSt7__cxx1112basic_stringIS2_St11char_traitsIS2_ESaIS2_EEESC_(%"class.std::__cxx11::basic_string"* dereferenceable(32) %505, %"class.std::__cxx11::basic_string"* dereferenceable(32) %77) #3
  br i1 %507, label %508, label %512

508:                                              ; preds = %506
  %509 = getelementptr inbounds %"class.mini::TypedValue", %"class.mini::TypedValue"* %11, i32 0, i32 1
  invoke void @_ZN3ast8BoolType4nameB5cxx11Ev(%"class.std::__cxx11::basic_string"* sret %78)
          to label %510 unwind label %527

510:                                              ; preds = %508
  store i1 true, i1* %79, align 1
  %511 = call zeroext i1 @_ZSteqIcEN9__gnu_cxx11__enable_ifIXsr9__is_charIT_EE7__valueEbE6__typeERKNSt7__cxx1112basic_stringIS2_St11char_traitsIS2_ESaIS2_EEESC_(%"class.std::__cxx11::basic_string"* dereferenceable(32) %509, %"class.std::__cxx11::basic_string"* dereferenceable(32) %78) #3
  br label %512

512:                                              ; preds = %510, %506
  %513 = phi i1 [ false, %506 ], [ %511, %510 ]
  %514 = load i1, i1* %79, align 1
  br i1 %514, label %515, label %516

515:                                              ; preds = %512
  call void @_ZNSt7__cxx1112basic_stringIcSt11char_traitsIcESaIcEED1Ev(%"class.std::__cxx11::basic_string"* %78) #3
  br label %516

516:                                              ; preds = %515, %512
  call void @_ZNSt7__cxx1112basic_stringIcSt11char_traitsIcESaIcEED1Ev(%"class.std::__cxx11::basic_string"* %77) #3
  br i1 %513, label %517, label %587

517:                                              ; preds = %516
  %518 = invoke zeroext i1 @_ZN4mini10TypedValue3getIbEET_v(%"class.mini::TypedValue"* %7)
          to label %519 unwind label %147

519:                                              ; preds = %517
  %520 = zext i1 %518 to i8
  store i8 %520, i8* %80, align 1
  %521 = invoke zeroext i1 @_ZN4mini10TypedValue3getIbEET_v(%"class.mini::TypedValue"* %11)
          to label %522 unwind label %147

522:                                              ; preds = %519
  %523 = zext i1 %521 to i8
  store i8 %523, i8* %81, align 1
  %524 = load %"class.ast::BinaryExpression"*, %"class.ast::BinaryExpression"** %6, align 8
  %525 = getelementptr inbounds %"class.ast::BinaryExpression", %"class.ast::BinaryExpression"* %524, i32 0, i32 1
  %526 = load i32, i32* %525, align 4
  switch i32 %526, label %585 [
    i32 10, label %531
    i32 11, label %558
  ]

527:                                              ; preds = %508
  %528 = landingpad { i8*, i32 }
          cleanup
  %529 = extractvalue { i8*, i32 } %528, 0
  store i8* %529, i8** %9, align 8
  %530 = extractvalue { i8*, i32 } %528, 1
  store i32 %530, i32* %10, align 4
  call void @_ZNSt7__cxx1112basic_stringIcSt11char_traitsIcESaIcEED1Ev(%"class.std::__cxx11::basic_string"* %77) #3
  br label %591

531:                                              ; preds = %522
  invoke void @_ZN3ast8BoolType4nameB5cxx11Ev(%"class.std::__cxx11::basic_string"* sret %83)
          to label %532 unwind label %147

532:                                              ; preds = %531
  %533 = load i8, i8* %80, align 1
  %534 = trunc i8 %533 to i1
  br i1 %534, label %535, label %538

535:                                              ; preds = %532
  %536 = load i8, i8* %81, align 1
  %537 = trunc i8 %536 to i1
  br label %538

538:                                              ; preds = %535, %532
  %539 = phi i1 [ false, %532 ], [ %537, %535 ]
  %540 = zext i1 %539 to i8
  store i8 %540, i8* %85, align 1
  invoke void @_ZN8antlrcpp3AnyC2IbEEOT_(%"struct.antlrcpp::Any"* %84, i8* dereferenceable(1) %85)
          to label %541 unwind label %544

541:                                              ; preds = %538
  invoke void @_ZN4mini10TypedValueC1ENSt7__cxx1112basic_stringIcSt11char_traitsIcESaIcEEEN8antlrcpp3AnyE(%"class.mini::TypedValue"* %82, %"class.std::__cxx11::basic_string"* %83, %"struct.antlrcpp::Any"* %84)
          to label %542 unwind label %548

542:                                              ; preds = %541
  invoke void @_ZN8antlrcpp3AnyC2IN4mini10TypedValueEEEOT_(%"struct.antlrcpp::Any"* %0, %"class.mini::TypedValue"* dereferenceable(48) %82)
          to label %543 unwind label %552

543:                                              ; preds = %542
  call void @_ZN4mini10TypedValueD2Ev(%"class.mini::TypedValue"* %82) #3
  call void @_ZN8antlrcpp3AnyD1Ev(%"struct.antlrcpp::Any"* %84) #3
  call void @_ZNSt7__cxx1112basic_stringIcSt11char_traitsIcESaIcEED1Ev(%"class.std::__cxx11::basic_string"* %83) #3
  store i32 1, i32* %17, align 4
  br label %590

544:                                              ; preds = %538
  %545 = landingpad { i8*, i32 }
          cleanup
  %546 = extractvalue { i8*, i32 } %545, 0
  store i8* %546, i8** %9, align 8
  %547 = extractvalue { i8*, i32 } %545, 1
  store i32 %547, i32* %10, align 4
  br label %557

548:                                              ; preds = %541
  %549 = landingpad { i8*, i32 }
          cleanup
  %550 = extractvalue { i8*, i32 } %549, 0
  store i8* %550, i8** %9, align 8
  %551 = extractvalue { i8*, i32 } %549, 1
  store i32 %551, i32* %10, align 4
  br label %556

552:                                              ; preds = %542
  %553 = landingpad { i8*, i32 }
          cleanup
  %554 = extractvalue { i8*, i32 } %553, 0
  store i8* %554, i8** %9, align 8
  %555 = extractvalue { i8*, i32 } %553, 1
  store i32 %555, i32* %10, align 4
  call void @_ZN4mini10TypedValueD2Ev(%"class.mini::TypedValue"* %82) #3
  br label %556

556:                                              ; preds = %552, %548
  call void @_ZN8antlrcpp3AnyD1Ev(%"struct.antlrcpp::Any"* %84) #3
  br label %557

557:                                              ; preds = %556, %544
  call void @_ZNSt7__cxx1112basic_stringIcSt11char_traitsIcESaIcEED1Ev(%"class.std::__cxx11::basic_string"* %83) #3
  br label %591

558:                                              ; preds = %522
  invoke void @_ZN3ast8BoolType4nameB5cxx11Ev(%"class.std::__cxx11::basic_string"* sret %87)
          to label %559 unwind label %147

559:                                              ; preds = %558
  %560 = load i8, i8* %80, align 1
  %561 = trunc i8 %560 to i1
  br i1 %561, label %565, label %562

562:                                              ; preds = %559
  %563 = load i8, i8* %81, align 1
  %564 = trunc i8 %563 to i1
  br label %565

565:                                              ; preds = %562, %559
  %566 = phi i1 [ true, %559 ], [ %564, %562 ]
  %567 = zext i1 %566 to i8
  store i8 %567, i8* %89, align 1
  invoke void @_ZN8antlrcpp3AnyC2IbEEOT_(%"struct.antlrcpp::Any"* %88, i8* dereferenceable(1) %89)
          to label %568 unwind label %571

568:                                              ; preds = %565
  invoke void @_ZN4mini10TypedValueC1ENSt7__cxx1112basic_stringIcSt11char_traitsIcESaIcEEEN8antlrcpp3AnyE(%"class.mini::TypedValue"* %86, %"class.std::__cxx11::basic_string"* %87, %"struct.antlrcpp::Any"* %88)
          to label %569 unwind label %575

569:                                              ; preds = %568
  invoke void @_ZN8antlrcpp3AnyC2IN4mini10TypedValueEEEOT_(%"struct.antlrcpp::Any"* %0, %"class.mini::TypedValue"* dereferenceable(48) %86)
          to label %570 unwind label %579

570:                                              ; preds = %569
  call void @_ZN4mini10TypedValueD2Ev(%"class.mini::TypedValue"* %86) #3
  call void @_ZN8antlrcpp3AnyD1Ev(%"struct.antlrcpp::Any"* %88) #3
  call void @_ZNSt7__cxx1112basic_stringIcSt11char_traitsIcESaIcEED1Ev(%"class.std::__cxx11::basic_string"* %87) #3
  store i32 1, i32* %17, align 4
  br label %590

571:                                              ; preds = %565
  %572 = landingpad { i8*, i32 }
          cleanup
  %573 = extractvalue { i8*, i32 } %572, 0
  store i8* %573, i8** %9, align 8
  %574 = extractvalue { i8*, i32 } %572, 1
  store i32 %574, i32* %10, align 4
  br label %584

575:                                              ; preds = %568
  %576 = landingpad { i8*, i32 }
          cleanup
  %577 = extractvalue { i8*, i32 } %576, 0
  store i8* %577, i8** %9, align 8
  %578 = extractvalue { i8*, i32 } %576, 1
  store i32 %578, i32* %10, align 4
  br label %583

579:                                              ; preds = %569
  %580 = landingpad { i8*, i32 }
          cleanup
  %581 = extractvalue { i8*, i32 } %580, 0
  store i8* %581, i8** %9, align 8
  %582 = extractvalue { i8*, i32 } %580, 1
  store i32 %582, i32* %10, align 4
  call void @_ZN4mini10TypedValueD2Ev(%"class.mini::TypedValue"* %86) #3
  br label %583

583:                                              ; preds = %579, %575
  call void @_ZN8antlrcpp3AnyD1Ev(%"struct.antlrcpp::Any"* %88) #3
  br label %584

584:                                              ; preds = %583, %571
  call void @_ZNSt7__cxx1112basic_stringIcSt11char_traitsIcESaIcEED1Ev(%"class.std::__cxx11::basic_string"* %87) #3
  br label %591

585:                                              ; preds = %522
  br label %586

586:                                              ; preds = %585
  br label %587

587:                                              ; preds = %586, %516
  br label %588

588:                                              ; preds = %587, %503
  store i8* null, i8** %90, align 8
  invoke void @_ZN8antlrcpp3AnyC2IDnEEOT_(%"struct.antlrcpp::Any"* %0, i8** dereferenceable(8) %90)
          to label %589 unwind label %147

589:                                              ; preds = %588
  store i32 1, i32* %17, align 4
  br label %590

590:                                              ; preds = %589, %570, %543, %487, %464, %441, %418, %395, %373, %351, %329, %280, %252, %233, %202, %173, %134
  call void @_ZN4mini10TypedValueD2Ev(%"class.mini::TypedValue"* %11) #3
  call void @_ZN4mini10TypedValueD2Ev(%"class.mini::TypedValue"* %7) #3
  ret void

591:                                              ; preds = %584, %557, %527, %501, %478, %455, %432, %409, %387, %365, %343, %318, %294, %266, %247, %216, %187, %164, %147
  call void @_ZN4mini10TypedValueD2Ev(%"class.mini::TypedValue"* %11) #3
  br label %592

592:                                              ; preds = %591, %143, %139
  call void @_ZN4mini10TypedValueD2Ev(%"class.mini::TypedValue"* %7) #3
  br label %593

593:                                              ; preds = %592, %135
  %594 = load i8*, i8** %9, align 8
  %595 = load i32, i32* %10, align 4
  %596 = insertvalue { i8*, i32 } undef, i8* %594, 0
  %597 = insertvalue { i8*, i32 } %596, i32 %595, 1
  resume { i8*, i32 } %597
}

; Function Attrs: noinline optnone uwtable
define linkonce_odr dso_local %"class.std::map"* @_ZN4mini10TypedValue3getIPSt3mapINSt7__cxx1112basic_stringIcSt11char_traitsIcESaIcEEESt10shared_ptrIS0_ESt4lessIS8_ESaISt4pairIKS8_SA_EEEEET_v(%"class.mini::TypedValue"* %0) #4 comdat align 2 {
  %2 = alloca %"class.mini::TypedValue"*, align 8
  store %"class.mini::TypedValue"* %0, %"class.mini::TypedValue"** %2, align 8
  %3 = load %"class.mini::TypedValue"*, %"class.mini::TypedValue"** %2, align 8
  %4 = getelementptr inbounds %"class.mini::TypedValue", %"class.mini::TypedValue"* %3, i32 0, i32 0
  %5 = call dereferenceable(8) %"class.std::map"** @_ZN8antlrcpp3Any2asIPSt3mapINSt7__cxx1112basic_stringIcSt11char_traitsIcESaIcEEESt10shared_ptrIN4mini10TypedValueEESt4lessIS8_ESaISt4pairIKS8_SC_EEEEERNSt5decayIT_E4typeEv(%"struct.antlrcpp::Any"* %4)
  %6 = load %"class.std::map"*, %"class.std::map"** %5, align 8
  ret %"class.std::map"* %6
}

; Function Attrs: noinline optnone uwtable
define linkonce_odr dso_local void @_ZN8antlrcpp3AnyC2IbEEOT_(%"struct.antlrcpp::Any"* %0, i8* dereferenceable(1) %1) unnamed_addr #4 comdat align 2 personality i8* bitcast (i32 (...)* @__gxx_personality_v0 to i8*) {
  %3 = alloca %"struct.antlrcpp::Any"*, align 8
  %4 = alloca i8*, align 8
  %5 = alloca i8*
  %6 = alloca i32
  store %"struct.antlrcpp::Any"* %0, %"struct.antlrcpp::Any"** %3, align 8
  store i8* %1, i8** %4, align 8
  %7 = load %"struct.antlrcpp::Any"*, %"struct.antlrcpp::Any"** %3, align 8
  %8 = bitcast %"struct.antlrcpp::Any"* %7 to i32 (...)***
  store i32 (...)** bitcast (i8** getelementptr inbounds ({ [5 x i8*] }, { [5 x i8*] }* @_ZTVN8antlrcpp3AnyE, i32 0, inrange i32 0, i32 2) to i32 (...)**), i32 (...)*** %8, align 8
  %9 = getelementptr inbounds %"struct.antlrcpp::Any", %"struct.antlrcpp::Any"* %7, i32 0, i32 1
  %10 = call i8* @_Znwm(i64 16) #17
  %11 = bitcast i8* %10 to %"struct.antlrcpp::Any::Derived.90"*
  %12 = load i8*, i8** %4, align 8
  %13 = call dereferenceable(1) i8* @_ZSt7forwardIbEOT_RNSt16remove_referenceIS0_E4typeE(i8* dereferenceable(1) %12) #3
  invoke void @_ZN8antlrcpp3Any7DerivedIbEC2IbEEOT_(%"struct.antlrcpp::Any::Derived.90"* %11, i8* dereferenceable(1) %13)
          to label %14 unwind label %16

14:                                               ; preds = %2
  %15 = bitcast %"struct.antlrcpp::Any::Derived.90"* %11 to %"struct.antlrcpp::Any::Base"*
  store %"struct.antlrcpp::Any::Base"* %15, %"struct.antlrcpp::Any::Base"** %9, align 8
  ret void

16:                                               ; preds = %2
  %17 = landingpad { i8*, i32 }
          cleanup
  %18 = extractvalue { i8*, i32 } %17, 0
  store i8* %18, i8** %5, align 8
  %19 = extractvalue { i8*, i32 } %17, 1
  store i32 %19, i32* %6, align 4
  call void @_ZdlPv(i8* %10) #18
  br label %20

20:                                               ; preds = %16
  %21 = load i8*, i8** %5, align 8
  %22 = load i32, i32* %6, align 4
  %23 = insertvalue { i8*, i32 } undef, i8* %21, 0
  %24 = insertvalue { i8*, i32 } %23, i32 %22, 1
  resume { i8*, i32 } %24
}

; Function Attrs: noinline optnone uwtable
define linkonce_odr dso_local void @_ZN8antlrcpp3AnyC2IN4mini10TypedValueEEEOT_(%"struct.antlrcpp::Any"* %0, %"class.mini::TypedValue"* dereferenceable(48) %1) unnamed_addr #4 comdat align 2 personality i8* bitcast (i32 (...)* @__gxx_personality_v0 to i8*) {
  %3 = alloca %"struct.antlrcpp::Any"*, align 8
  %4 = alloca %"class.mini::TypedValue"*, align 8
  %5 = alloca i8*
  %6 = alloca i32
  store %"struct.antlrcpp::Any"* %0, %"struct.antlrcpp::Any"** %3, align 8
  store %"class.mini::TypedValue"* %1, %"class.mini::TypedValue"** %4, align 8
  %7 = load %"struct.antlrcpp::Any"*, %"struct.antlrcpp::Any"** %3, align 8
  %8 = bitcast %"struct.antlrcpp::Any"* %7 to i32 (...)***
  store i32 (...)** bitcast (i8** getelementptr inbounds ({ [5 x i8*] }, { [5 x i8*] }* @_ZTVN8antlrcpp3AnyE, i32 0, inrange i32 0, i32 2) to i32 (...)**), i32 (...)*** %8, align 8
  %9 = getelementptr inbounds %"struct.antlrcpp::Any", %"struct.antlrcpp::Any"* %7, i32 0, i32 1
  %10 = call i8* @_Znwm(i64 56) #17
  %11 = bitcast i8* %10 to %"struct.antlrcpp::Any::Derived.98"*
  %12 = load %"class.mini::TypedValue"*, %"class.mini::TypedValue"** %4, align 8
  %13 = call dereferenceable(48) %"class.mini::TypedValue"* @_ZSt7forwardIN4mini10TypedValueEEOT_RNSt16remove_referenceIS2_E4typeE(%"class.mini::TypedValue"* dereferenceable(48) %12) #3
  invoke void @_ZN8antlrcpp3Any7DerivedIN4mini10TypedValueEEC2IS3_EEOT_(%"struct.antlrcpp::Any::Derived.98"* %11, %"class.mini::TypedValue"* dereferenceable(48) %13)
          to label %14 unwind label %16

14:                                               ; preds = %2
  %15 = bitcast %"struct.antlrcpp::Any::Derived.98"* %11 to %"struct.antlrcpp::Any::Base"*
  store %"struct.antlrcpp::Any::Base"* %15, %"struct.antlrcpp::Any::Base"** %9, align 8
  ret void

16:                                               ; preds = %2
  %17 = landingpad { i8*, i32 }
          cleanup
  %18 = extractvalue { i8*, i32 } %17, 0
  store i8* %18, i8** %5, align 8
  %19 = extractvalue { i8*, i32 } %17, 1
  store i32 %19, i32* %6, align 4
  call void @_ZdlPv(i8* %10) #18
  br label %20

20:                                               ; preds = %16
  %21 = load i8*, i8** %5, align 8
  %22 = load i32, i32* %6, align 4
  %23 = insertvalue { i8*, i32 } undef, i8* %21, 0
  %24 = insertvalue { i8*, i32 } %23, i32 %22, 1
  resume { i8*, i32 } %24
}

; Function Attrs: noinline optnone uwtable
define linkonce_odr dso_local void @_ZN8antlrcpp3AnyC2IiEEOT_(%"struct.antlrcpp::Any"* %0, i32* dereferenceable(4) %1) unnamed_addr #4 comdat align 2 personality i8* bitcast (i32 (...)* @__gxx_personality_v0 to i8*) {
  %3 = alloca %"struct.antlrcpp::Any"*, align 8
  %4 = alloca i32*, align 8
  %5 = alloca i8*
  %6 = alloca i32
  store %"struct.antlrcpp::Any"* %0, %"struct.antlrcpp::Any"** %3, align 8
  store i32* %1, i32** %4, align 8
  %7 = load %"struct.antlrcpp::Any"*, %"struct.antlrcpp::Any"** %3, align 8
  %8 = bitcast %"struct.antlrcpp::Any"* %7 to i32 (...)***
  store i32 (...)** bitcast (i8** getelementptr inbounds ({ [5 x i8*] }, { [5 x i8*] }* @_ZTVN8antlrcpp3AnyE, i32 0, inrange i32 0, i32 2) to i32 (...)**), i32 (...)*** %8, align 8
  %9 = getelementptr inbounds %"struct.antlrcpp::Any", %"struct.antlrcpp::Any"* %7, i32 0, i32 1
  %10 = call i8* @_Znwm(i64 16) #17
  %11 = bitcast i8* %10 to %"struct.antlrcpp::Any::Derived.89"*
  %12 = load i32*, i32** %4, align 8
  %13 = call dereferenceable(4) i32* @_ZSt7forwardIiEOT_RNSt16remove_referenceIS0_E4typeE(i32* dereferenceable(4) %12) #3
  invoke void @_ZN8antlrcpp3Any7DerivedIiEC2IiEEOT_(%"struct.antlrcpp::Any::Derived.89"* %11, i32* dereferenceable(4) %13)
          to label %14 unwind label %16

14:                                               ; preds = %2
  %15 = bitcast %"struct.antlrcpp::Any::Derived.89"* %11 to %"struct.antlrcpp::Any::Base"*
  store %"struct.antlrcpp::Any::Base"* %15, %"struct.antlrcpp::Any::Base"** %9, align 8
  ret void

16:                                               ; preds = %2
  %17 = landingpad { i8*, i32 }
          cleanup
  %18 = extractvalue { i8*, i32 } %17, 0
  store i8* %18, i8** %5, align 8
  %19 = extractvalue { i8*, i32 } %17, 1
  store i32 %19, i32* %6, align 4
  call void @_ZdlPv(i8* %10) #18
  br label %20

20:                                               ; preds = %16
  %21 = load i8*, i8** %5, align 8
  %22 = load i32, i32* %6, align 4
  %23 = insertvalue { i8*, i32 } undef, i8* %21, 0
  %24 = insertvalue { i8*, i32 } %23, i32 %22, 1
  resume { i8*, i32 } %24
}

; Function Attrs: noinline optnone uwtable
define dso_local void @_ZN4mini15MiniInterpreter5visitEPN3ast14BlockStatementE(%"struct.antlrcpp::Any"* noalias sret %0, %"class.mini::MiniInterpreter"* %1, %"class.ast::BlockStatement"* %2) unnamed_addr #4 align 2 personality i8* bitcast (i32 (...)* @__gxx_personality_v0 to i8*) {
  %4 = alloca i8*, align 8
  %5 = alloca %"class.mini::MiniInterpreter"*, align 8
  %6 = alloca %"class.ast::BlockStatement"*, align 8
  %7 = alloca %"class.std::vector.61"*, align 8
  %8 = alloca %"class.__gnu_cxx::__normal_iterator.66", align 8
  %9 = alloca %"class.__gnu_cxx::__normal_iterator.66", align 8
  %10 = alloca %"class.std::shared_ptr.43", align 8
  %11 = alloca i1, align 1
  %12 = alloca i8*
  %13 = alloca i32
  %14 = alloca i32, align 4
  %15 = alloca i8*, align 8
  %16 = bitcast %"struct.antlrcpp::Any"* %0 to i8*
  store i8* %16, i8** %4, align 8
  store %"class.mini::MiniInterpreter"* %1, %"class.mini::MiniInterpreter"** %5, align 8
  store %"class.ast::BlockStatement"* %2, %"class.ast::BlockStatement"** %6, align 8
  %17 = load %"class.mini::MiniInterpreter"*, %"class.mini::MiniInterpreter"** %5, align 8
  %18 = load %"class.ast::BlockStatement"*, %"class.ast::BlockStatement"** %6, align 8
  %19 = getelementptr inbounds %"class.ast::BlockStatement", %"class.ast::BlockStatement"* %18, i32 0, i32 1
  store %"class.std::vector.61"* %19, %"class.std::vector.61"** %7, align 8
  %20 = load %"class.std::vector.61"*, %"class.std::vector.61"** %7, align 8
  %21 = call %"class.std::shared_ptr.43"* @_ZNSt6vectorISt10shared_ptrIN3ast9StatementEESaIS3_EE5beginEv(%"class.std::vector.61"* %20) #3
  %22 = getelementptr inbounds %"class.__gnu_cxx::__normal_iterator.66", %"class.__gnu_cxx::__normal_iterator.66"* %8, i32 0, i32 0
  store %"class.std::shared_ptr.43"* %21, %"class.std::shared_ptr.43"** %22, align 8
  %23 = load %"class.std::vector.61"*, %"class.std::vector.61"** %7, align 8
  %24 = call %"class.std::shared_ptr.43"* @_ZNSt6vectorISt10shared_ptrIN3ast9StatementEESaIS3_EE3endEv(%"class.std::vector.61"* %23) #3
  %25 = getelementptr inbounds %"class.__gnu_cxx::__normal_iterator.66", %"class.__gnu_cxx::__normal_iterator.66"* %9, i32 0, i32 0
  store %"class.std::shared_ptr.43"* %24, %"class.std::shared_ptr.43"** %25, align 8
  br label %26

26:                                               ; preds = %59, %3
  %27 = call zeroext i1 @_ZN9__gnu_cxxneIPSt10shared_ptrIN3ast9StatementEESt6vectorIS4_SaIS4_EEEEbRKNS_17__normal_iteratorIT_T0_EESE_(%"class.__gnu_cxx::__normal_iterator.66"* dereferenceable(8) %8, %"class.__gnu_cxx::__normal_iterator.66"* dereferenceable(8) %9) #3
  br i1 %27, label %28, label %62

28:                                               ; preds = %26
  %29 = call dereferenceable(16) %"class.std::shared_ptr.43"* @_ZNK9__gnu_cxx17__normal_iteratorIPSt10shared_ptrIN3ast9StatementEESt6vectorIS4_SaIS4_EEEdeEv(%"class.__gnu_cxx::__normal_iterator.66"* %8) #3
  call void @_ZNSt10shared_ptrIN3ast9StatementEEC2ERKS2_(%"class.std::shared_ptr.43"* %10, %"class.std::shared_ptr.43"* dereferenceable(16) %29) #3
  store i1 false, i1* %11, align 1
  %30 = bitcast %"class.std::shared_ptr.43"* %10 to %"class.std::__shared_ptr_access.45"*
  %31 = call %"class.ast::Statement"* @_ZNKSt19__shared_ptr_accessIN3ast9StatementELN9__gnu_cxx12_Lock_policyE2ELb0ELb0EEptEv(%"class.std::__shared_ptr_access.45"* %30) #3
  %32 = bitcast %"class.mini::MiniInterpreter"* %17 to %"class.ast::ASTVisitor"*
  %33 = bitcast %"class.ast::Statement"* %31 to void (%"struct.antlrcpp::Any"*, %"class.ast::Statement"*, %"class.ast::ASTVisitor"*)***
  %34 = load void (%"struct.antlrcpp::Any"*, %"class.ast::Statement"*, %"class.ast::ASTVisitor"*)**, void (%"struct.antlrcpp::Any"*, %"class.ast::Statement"*, %"class.ast::ASTVisitor"*)*** %33, align 8
  %35 = getelementptr inbounds void (%"struct.antlrcpp::Any"*, %"class.ast::Statement"*, %"class.ast::ASTVisitor"*)*, void (%"struct.antlrcpp::Any"*, %"class.ast::Statement"*, %"class.ast::ASTVisitor"*)** %34, i64 0
  %36 = load void (%"struct.antlrcpp::Any"*, %"class.ast::Statement"*, %"class.ast::ASTVisitor"*)*, void (%"struct.antlrcpp::Any"*, %"class.ast::Statement"*, %"class.ast::ASTVisitor"*)** %35, align 8
  invoke void %36(%"struct.antlrcpp::Any"* sret %0, %"class.ast::Statement"* %31, %"class.ast::ASTVisitor"* %32)
          to label %37 unwind label %41

37:                                               ; preds = %28
  %38 = invoke zeroext i1 @_ZNK8antlrcpp3Any2isIN4mini10TypedValueEEEbv(%"struct.antlrcpp::Any"* %0)
          to label %39 unwind label %45

39:                                               ; preds = %37
  br i1 %38, label %40, label %49

40:                                               ; preds = %39
  store i1 true, i1* %11, align 1
  store i32 1, i32* %14, align 4
  br label %50

41:                                               ; preds = %28
  %42 = landingpad { i8*, i32 }
          cleanup
  %43 = extractvalue { i8*, i32 } %42, 0
  store i8* %43, i8** %12, align 8
  %44 = extractvalue { i8*, i32 } %42, 1
  store i32 %44, i32* %13, align 4
  br label %61

45:                                               ; preds = %37
  %46 = landingpad { i8*, i32 }
          cleanup
  %47 = extractvalue { i8*, i32 } %46, 0
  store i8* %47, i8** %12, align 8
  %48 = extractvalue { i8*, i32 } %46, 1
  store i32 %48, i32* %13, align 4
  call void @_ZN8antlrcpp3AnyD1Ev(%"struct.antlrcpp::Any"* %0) #3
  br label %61

49:                                               ; preds = %39
  store i32 0, i32* %14, align 4
  br label %50

50:                                               ; preds = %49, %40
  %51 = load i1, i1* %11, align 1
  br i1 %51, label %53, label %52

52:                                               ; preds = %50
  call void @_ZN8antlrcpp3AnyD1Ev(%"struct.antlrcpp::Any"* %0) #3
  br label %53

53:                                               ; preds = %52, %50
  %54 = load i32, i32* %14, align 4
  switch i32 %54, label %56 [
    i32 0, label %55
  ]

55:                                               ; preds = %53
  store i32 0, i32* %14, align 4
  br label %56

56:                                               ; preds = %55, %53
  call void @_ZNSt10shared_ptrIN3ast9StatementEED2Ev(%"class.std::shared_ptr.43"* %10) #3
  %57 = load i32, i32* %14, align 4
  switch i32 %57, label %69 [
    i32 0, label %58
    i32 1, label %63
  ]

58:                                               ; preds = %56
  br label %59

59:                                               ; preds = %58
  %60 = call dereferenceable(8) %"class.__gnu_cxx::__normal_iterator.66"* @_ZN9__gnu_cxx17__normal_iteratorIPSt10shared_ptrIN3ast9StatementEESt6vectorIS4_SaIS4_EEEppEv(%"class.__gnu_cxx::__normal_iterator.66"* %8) #3
  br label %26

61:                                               ; preds = %45, %41
  call void @_ZNSt10shared_ptrIN3ast9StatementEED2Ev(%"class.std::shared_ptr.43"* %10) #3
  br label %64

62:                                               ; preds = %26
  store i8* null, i8** %15, align 8
  call void @_ZN8antlrcpp3AnyC2IDnEEOT_(%"struct.antlrcpp::Any"* %0, i8** dereferenceable(8) %15)
  br label %63

63:                                               ; preds = %62, %56
  ret void

64:                                               ; preds = %61
  %65 = load i8*, i8** %12, align 8
  %66 = load i32, i32* %13, align 4
  %67 = insertvalue { i8*, i32 } undef, i8* %65, 0
  %68 = insertvalue { i8*, i32 } %67, i32 %66, 1
  resume { i8*, i32 } %68

69:                                               ; preds = %56
  unreachable
}

; Function Attrs: noinline nounwind optnone uwtable
define linkonce_odr dso_local %"class.std::shared_ptr.43"* @_ZNSt6vectorISt10shared_ptrIN3ast9StatementEESaIS3_EE5beginEv(%"class.std::vector.61"* %0) #5 comdat align 2 {
  %2 = alloca %"class.__gnu_cxx::__normal_iterator.66", align 8
  %3 = alloca %"class.std::vector.61"*, align 8
  store %"class.std::vector.61"* %0, %"class.std::vector.61"** %3, align 8
  %4 = load %"class.std::vector.61"*, %"class.std::vector.61"** %3, align 8
  %5 = bitcast %"class.std::vector.61"* %4 to %"struct.std::_Vector_base.62"*
  %6 = getelementptr inbounds %"struct.std::_Vector_base.62", %"struct.std::_Vector_base.62"* %5, i32 0, i32 0
  %7 = getelementptr inbounds %"struct.std::_Vector_base<std::shared_ptr<ast::Statement>, std::allocator<std::shared_ptr<ast::Statement> > >::_Vector_impl", %"struct.std::_Vector_base<std::shared_ptr<ast::Statement>, std::allocator<std::shared_ptr<ast::Statement> > >::_Vector_impl"* %6, i32 0, i32 0
  call void @_ZN9__gnu_cxx17__normal_iteratorIPSt10shared_ptrIN3ast9StatementEESt6vectorIS4_SaIS4_EEEC2ERKS5_(%"class.__gnu_cxx::__normal_iterator.66"* %2, %"class.std::shared_ptr.43"** dereferenceable(8) %7) #3
  %8 = getelementptr inbounds %"class.__gnu_cxx::__normal_iterator.66", %"class.__gnu_cxx::__normal_iterator.66"* %2, i32 0, i32 0
  %9 = load %"class.std::shared_ptr.43"*, %"class.std::shared_ptr.43"** %8, align 8
  ret %"class.std::shared_ptr.43"* %9
}

; Function Attrs: noinline nounwind optnone uwtable
define linkonce_odr dso_local %"class.std::shared_ptr.43"* @_ZNSt6vectorISt10shared_ptrIN3ast9StatementEESaIS3_EE3endEv(%"class.std::vector.61"* %0) #5 comdat align 2 {
  %2 = alloca %"class.__gnu_cxx::__normal_iterator.66", align 8
  %3 = alloca %"class.std::vector.61"*, align 8
  store %"class.std::vector.61"* %0, %"class.std::vector.61"** %3, align 8
  %4 = load %"class.std::vector.61"*, %"class.std::vector.61"** %3, align 8
  %5 = bitcast %"class.std::vector.61"* %4 to %"struct.std::_Vector_base.62"*
  %6 = getelementptr inbounds %"struct.std::_Vector_base.62", %"struct.std::_Vector_base.62"* %5, i32 0, i32 0
  %7 = getelementptr inbounds %"struct.std::_Vector_base<std::shared_ptr<ast::Statement>, std::allocator<std::shared_ptr<ast::Statement> > >::_Vector_impl", %"struct.std::_Vector_base<std::shared_ptr<ast::Statement>, std::allocator<std::shared_ptr<ast::Statement> > >::_Vector_impl"* %6, i32 0, i32 1
  call void @_ZN9__gnu_cxx17__normal_iteratorIPSt10shared_ptrIN3ast9StatementEESt6vectorIS4_SaIS4_EEEC2ERKS5_(%"class.__gnu_cxx::__normal_iterator.66"* %2, %"class.std::shared_ptr.43"** dereferenceable(8) %7) #3
  %8 = getelementptr inbounds %"class.__gnu_cxx::__normal_iterator.66", %"class.__gnu_cxx::__normal_iterator.66"* %2, i32 0, i32 0
  %9 = load %"class.std::shared_ptr.43"*, %"class.std::shared_ptr.43"** %8, align 8
  ret %"class.std::shared_ptr.43"* %9
}

; Function Attrs: noinline nounwind optnone uwtable
define linkonce_odr dso_local zeroext i1 @_ZN9__gnu_cxxneIPSt10shared_ptrIN3ast9StatementEESt6vectorIS4_SaIS4_EEEEbRKNS_17__normal_iteratorIT_T0_EESE_(%"class.__gnu_cxx::__normal_iterator.66"* dereferenceable(8) %0, %"class.__gnu_cxx::__normal_iterator.66"* dereferenceable(8) %1) #5 comdat {
  %3 = alloca %"class.__gnu_cxx::__normal_iterator.66"*, align 8
  %4 = alloca %"class.__gnu_cxx::__normal_iterator.66"*, align 8
  store %"class.__gnu_cxx::__normal_iterator.66"* %0, %"class.__gnu_cxx::__normal_iterator.66"** %3, align 8
  store %"class.__gnu_cxx::__normal_iterator.66"* %1, %"class.__gnu_cxx::__normal_iterator.66"** %4, align 8
  %5 = load %"class.__gnu_cxx::__normal_iterator.66"*, %"class.__gnu_cxx::__normal_iterator.66"** %3, align 8
  %6 = call dereferenceable(8) %"class.std::shared_ptr.43"** @_ZNK9__gnu_cxx17__normal_iteratorIPSt10shared_ptrIN3ast9StatementEESt6vectorIS4_SaIS4_EEE4baseEv(%"class.__gnu_cxx::__normal_iterator.66"* %5) #3
  %7 = load %"class.std::shared_ptr.43"*, %"class.std::shared_ptr.43"** %6, align 8
  %8 = load %"class.__gnu_cxx::__normal_iterator.66"*, %"class.__gnu_cxx::__normal_iterator.66"** %4, align 8
  %9 = call dereferenceable(8) %"class.std::shared_ptr.43"** @_ZNK9__gnu_cxx17__normal_iteratorIPSt10shared_ptrIN3ast9StatementEESt6vectorIS4_SaIS4_EEE4baseEv(%"class.__gnu_cxx::__normal_iterator.66"* %8) #3
  %10 = load %"class.std::shared_ptr.43"*, %"class.std::shared_ptr.43"** %9, align 8
  %11 = icmp ne %"class.std::shared_ptr.43"* %7, %10
  ret i1 %11
}

; Function Attrs: noinline nounwind optnone uwtable
define linkonce_odr dso_local dereferenceable(16) %"class.std::shared_ptr.43"* @_ZNK9__gnu_cxx17__normal_iteratorIPSt10shared_ptrIN3ast9StatementEESt6vectorIS4_SaIS4_EEEdeEv(%"class.__gnu_cxx::__normal_iterator.66"* %0) #5 comdat align 2 {
  %2 = alloca %"class.__gnu_cxx::__normal_iterator.66"*, align 8
  store %"class.__gnu_cxx::__normal_iterator.66"* %0, %"class.__gnu_cxx::__normal_iterator.66"** %2, align 8
  %3 = load %"class.__gnu_cxx::__normal_iterator.66"*, %"class.__gnu_cxx::__normal_iterator.66"** %2, align 8
  %4 = getelementptr inbounds %"class.__gnu_cxx::__normal_iterator.66", %"class.__gnu_cxx::__normal_iterator.66"* %3, i32 0, i32 0
  %5 = load %"class.std::shared_ptr.43"*, %"class.std::shared_ptr.43"** %4, align 8
  ret %"class.std::shared_ptr.43"* %5
}

; Function Attrs: noinline nounwind optnone uwtable
define linkonce_odr dso_local void @_ZNSt10shared_ptrIN3ast9StatementEEC2ERKS2_(%"class.std::shared_ptr.43"* %0, %"class.std::shared_ptr.43"* dereferenceable(16) %1) unnamed_addr #5 comdat align 2 {
  %3 = alloca %"class.std::shared_ptr.43"*, align 8
  %4 = alloca %"class.std::shared_ptr.43"*, align 8
  store %"class.std::shared_ptr.43"* %0, %"class.std::shared_ptr.43"** %3, align 8
  store %"class.std::shared_ptr.43"* %1, %"class.std::shared_ptr.43"** %4, align 8
  %5 = load %"class.std::shared_ptr.43"*, %"class.std::shared_ptr.43"** %3, align 8
  %6 = bitcast %"class.std::shared_ptr.43"* %5 to %"class.std::__shared_ptr.44"*
  %7 = load %"class.std::shared_ptr.43"*, %"class.std::shared_ptr.43"** %4, align 8
  %8 = bitcast %"class.std::shared_ptr.43"* %7 to %"class.std::__shared_ptr.44"*
  call void @_ZNSt12__shared_ptrIN3ast9StatementELN9__gnu_cxx12_Lock_policyE2EEC2ERKS4_(%"class.std::__shared_ptr.44"* %6, %"class.std::__shared_ptr.44"* dereferenceable(16) %8) #3
  ret void
}

; Function Attrs: noinline nounwind optnone uwtable
define linkonce_odr dso_local %"class.ast::Statement"* @_ZNKSt19__shared_ptr_accessIN3ast9StatementELN9__gnu_cxx12_Lock_policyE2ELb0ELb0EEptEv(%"class.std::__shared_ptr_access.45"* %0) #5 comdat align 2 {
  %2 = alloca %"class.std::__shared_ptr_access.45"*, align 8
  store %"class.std::__shared_ptr_access.45"* %0, %"class.std::__shared_ptr_access.45"** %2, align 8
  %3 = load %"class.std::__shared_ptr_access.45"*, %"class.std::__shared_ptr_access.45"** %2, align 8
  %4 = call %"class.ast::Statement"* @_ZNKSt19__shared_ptr_accessIN3ast9StatementELN9__gnu_cxx12_Lock_policyE2ELb0ELb0EE6_M_getEv(%"class.std::__shared_ptr_access.45"* %3) #3
  ret %"class.ast::Statement"* %4
}

; Function Attrs: noinline optnone uwtable
define linkonce_odr dso_local zeroext i1 @_ZNK8antlrcpp3Any2isIN4mini10TypedValueEEEbv(%"struct.antlrcpp::Any"* %0) #4 comdat align 2 {
  %2 = alloca %"struct.antlrcpp::Any"*, align 8
  %3 = alloca %"struct.antlrcpp::Any::Derived.98"*, align 8
  store %"struct.antlrcpp::Any"* %0, %"struct.antlrcpp::Any"** %2, align 8
  %4 = load %"struct.antlrcpp::Any"*, %"struct.antlrcpp::Any"** %2, align 8
  %5 = call %"struct.antlrcpp::Any::Derived.98"* @_ZNK8antlrcpp3Any10getDerivedIN4mini10TypedValueEEEPNS0_7DerivedINSt5decayIT_E4typeEEEb(%"struct.antlrcpp::Any"* %4, i1 zeroext false)
  store %"struct.antlrcpp::Any::Derived.98"* %5, %"struct.antlrcpp::Any::Derived.98"** %3, align 8
  %6 = load %"struct.antlrcpp::Any::Derived.98"*, %"struct.antlrcpp::Any::Derived.98"** %3, align 8
  %7 = icmp ne %"struct.antlrcpp::Any::Derived.98"* %6, null
  ret i1 %7
}

; Function Attrs: noinline nounwind optnone uwtable
define linkonce_odr dso_local void @_ZNSt10shared_ptrIN3ast9StatementEED2Ev(%"class.std::shared_ptr.43"* %0) unnamed_addr #5 comdat align 2 {
  %2 = alloca %"class.std::shared_ptr.43"*, align 8
  store %"class.std::shared_ptr.43"* %0, %"class.std::shared_ptr.43"** %2, align 8
  %3 = load %"class.std::shared_ptr.43"*, %"class.std::shared_ptr.43"** %2, align 8
  %4 = bitcast %"class.std::shared_ptr.43"* %3 to %"class.std::__shared_ptr.44"*
  call void @_ZNSt12__shared_ptrIN3ast9StatementELN9__gnu_cxx12_Lock_policyE2EED2Ev(%"class.std::__shared_ptr.44"* %4) #3
  ret void
}

; Function Attrs: noinline nounwind optnone uwtable
define linkonce_odr dso_local dereferenceable(8) %"class.__gnu_cxx::__normal_iterator.66"* @_ZN9__gnu_cxx17__normal_iteratorIPSt10shared_ptrIN3ast9StatementEESt6vectorIS4_SaIS4_EEEppEv(%"class.__gnu_cxx::__normal_iterator.66"* %0) #5 comdat align 2 {
  %2 = alloca %"class.__gnu_cxx::__normal_iterator.66"*, align 8
  store %"class.__gnu_cxx::__normal_iterator.66"* %0, %"class.__gnu_cxx::__normal_iterator.66"** %2, align 8
  %3 = load %"class.__gnu_cxx::__normal_iterator.66"*, %"class.__gnu_cxx::__normal_iterator.66"** %2, align 8
  %4 = getelementptr inbounds %"class.__gnu_cxx::__normal_iterator.66", %"class.__gnu_cxx::__normal_iterator.66"* %3, i32 0, i32 0
  %5 = load %"class.std::shared_ptr.43"*, %"class.std::shared_ptr.43"** %4, align 8
  %6 = getelementptr inbounds %"class.std::shared_ptr.43", %"class.std::shared_ptr.43"* %5, i32 1
  store %"class.std::shared_ptr.43"* %6, %"class.std::shared_ptr.43"** %4, align 8
  ret %"class.__gnu_cxx::__normal_iterator.66"* %3
}

; Function Attrs: noinline optnone uwtable
define dso_local void @_ZN4mini15MiniInterpreter5visitEPN3ast8BoolTypeE(%"struct.antlrcpp::Any"* noalias sret %0, %"class.mini::MiniInterpreter"* %1, %"class.ast::BoolType"* %2) unnamed_addr #4 align 2 personality i8* bitcast (i32 (...)* @__gxx_personality_v0 to i8*) {
  %4 = alloca i8*, align 8
  %5 = alloca %"class.mini::MiniInterpreter"*, align 8
  %6 = alloca %"class.ast::BoolType"*, align 8
  %7 = alloca %"class.std::__cxx11::basic_string", align 8
  %8 = alloca i8*
  %9 = alloca i32
  %10 = bitcast %"struct.antlrcpp::Any"* %0 to i8*
  store i8* %10, i8** %4, align 8
  store %"class.mini::MiniInterpreter"* %1, %"class.mini::MiniInterpreter"** %5, align 8
  store %"class.ast::BoolType"* %2, %"class.ast::BoolType"** %6, align 8
  %11 = load %"class.mini::MiniInterpreter"*, %"class.mini::MiniInterpreter"** %5, align 8
  call void @_ZN3ast8BoolType4nameB5cxx11Ev(%"class.std::__cxx11::basic_string"* sret %7)
  invoke void @_ZN8antlrcpp3AnyC2INSt7__cxx1112basic_stringIcSt11char_traitsIcESaIcEEEEEOT_(%"struct.antlrcpp::Any"* %0, %"class.std::__cxx11::basic_string"* dereferenceable(32) %7)
          to label %12 unwind label %13

12:                                               ; preds = %3
  call void @_ZNSt7__cxx1112basic_stringIcSt11char_traitsIcESaIcEED1Ev(%"class.std::__cxx11::basic_string"* %7) #3
  ret void

13:                                               ; preds = %3
  %14 = landingpad { i8*, i32 }
          cleanup
  %15 = extractvalue { i8*, i32 } %14, 0
  store i8* %15, i8** %8, align 8
  %16 = extractvalue { i8*, i32 } %14, 1
  store i32 %16, i32* %9, align 4
  call void @_ZNSt7__cxx1112basic_stringIcSt11char_traitsIcESaIcEED1Ev(%"class.std::__cxx11::basic_string"* %7) #3
  br label %17

17:                                               ; preds = %13
  %18 = load i8*, i8** %8, align 8
  %19 = load i32, i32* %9, align 4
  %20 = insertvalue { i8*, i32 } undef, i8* %18, 0
  %21 = insertvalue { i8*, i32 } %20, i32 %19, 1
  resume { i8*, i32 } %21
}

; Function Attrs: noinline optnone uwtable
define linkonce_odr dso_local void @_ZN8antlrcpp3AnyC2INSt7__cxx1112basic_stringIcSt11char_traitsIcESaIcEEEEEOT_(%"struct.antlrcpp::Any"* %0, %"class.std::__cxx11::basic_string"* dereferenceable(32) %1) unnamed_addr #4 comdat align 2 personality i8* bitcast (i32 (...)* @__gxx_personality_v0 to i8*) {
  %3 = alloca %"struct.antlrcpp::Any"*, align 8
  %4 = alloca %"class.std::__cxx11::basic_string"*, align 8
  %5 = alloca i8*
  %6 = alloca i32
  store %"struct.antlrcpp::Any"* %0, %"struct.antlrcpp::Any"** %3, align 8
  store %"class.std::__cxx11::basic_string"* %1, %"class.std::__cxx11::basic_string"** %4, align 8
  %7 = load %"struct.antlrcpp::Any"*, %"struct.antlrcpp::Any"** %3, align 8
  %8 = bitcast %"struct.antlrcpp::Any"* %7 to i32 (...)***
  store i32 (...)** bitcast (i8** getelementptr inbounds ({ [5 x i8*] }, { [5 x i8*] }* @_ZTVN8antlrcpp3AnyE, i32 0, inrange i32 0, i32 2) to i32 (...)**), i32 (...)*** %8, align 8
  %9 = getelementptr inbounds %"struct.antlrcpp::Any", %"struct.antlrcpp::Any"* %7, i32 0, i32 1
  %10 = call i8* @_Znwm(i64 40) #17
  %11 = bitcast i8* %10 to %"struct.antlrcpp::Any::Derived.99"*
  %12 = load %"class.std::__cxx11::basic_string"*, %"class.std::__cxx11::basic_string"** %4, align 8
  %13 = call dereferenceable(32) %"class.std::__cxx11::basic_string"* @_ZSt7forwardINSt7__cxx1112basic_stringIcSt11char_traitsIcESaIcEEEEOT_RNSt16remove_referenceIS6_E4typeE(%"class.std::__cxx11::basic_string"* dereferenceable(32) %12) #3
  invoke void @_ZN8antlrcpp3Any7DerivedINSt7__cxx1112basic_stringIcSt11char_traitsIcESaIcEEEEC2IS7_EEOT_(%"struct.antlrcpp::Any::Derived.99"* %11, %"class.std::__cxx11::basic_string"* dereferenceable(32) %13)
          to label %14 unwind label %16

14:                                               ; preds = %2
  %15 = bitcast %"struct.antlrcpp::Any::Derived.99"* %11 to %"struct.antlrcpp::Any::Base"*
  store %"struct.antlrcpp::Any::Base"* %15, %"struct.antlrcpp::Any::Base"** %9, align 8
  ret void

16:                                               ; preds = %2
  %17 = landingpad { i8*, i32 }
          cleanup
  %18 = extractvalue { i8*, i32 } %17, 0
  store i8* %18, i8** %5, align 8
  %19 = extractvalue { i8*, i32 } %17, 1
  store i32 %19, i32* %6, align 4
  call void @_ZdlPv(i8* %10) #18
  br label %20

20:                                               ; preds = %16
  %21 = load i8*, i8** %5, align 8
  %22 = load i32, i32* %6, align 4
  %23 = insertvalue { i8*, i32 } undef, i8* %21, 0
  %24 = insertvalue { i8*, i32 } %23, i32 %22, 1
  resume { i8*, i32 } %24
}

; Function Attrs: noinline optnone uwtable
define dso_local void @_ZN4mini15MiniInterpreter5visitEPN3ast20ConditionalStatementE(%"struct.antlrcpp::Any"* noalias sret %0, %"class.mini::MiniInterpreter"* %1, %"class.ast::ConditionalStatement"* %2) unnamed_addr #4 align 2 personality i8* bitcast (i32 (...)* @__gxx_personality_v0 to i8*) {
  %4 = alloca i8*, align 8
  %5 = alloca %"class.mini::MiniInterpreter"*, align 8
  %6 = alloca %"class.ast::ConditionalStatement"*, align 8
  %7 = alloca %"class.mini::TypedValue", align 8
  %8 = alloca %"struct.antlrcpp::Any", align 8
  %9 = alloca i8*
  %10 = alloca i32
  %11 = alloca i32, align 4
  %12 = bitcast %"struct.antlrcpp::Any"* %0 to i8*
  store i8* %12, i8** %4, align 8
  store %"class.mini::MiniInterpreter"* %1, %"class.mini::MiniInterpreter"** %5, align 8
  store %"class.ast::ConditionalStatement"* %2, %"class.ast::ConditionalStatement"** %6, align 8
  %13 = load %"class.mini::MiniInterpreter"*, %"class.mini::MiniInterpreter"** %5, align 8
  %14 = load %"class.ast::ConditionalStatement"*, %"class.ast::ConditionalStatement"** %6, align 8
  %15 = getelementptr inbounds %"class.ast::ConditionalStatement", %"class.ast::ConditionalStatement"* %14, i32 0, i32 1
  %16 = bitcast %"class.std::shared_ptr.55"* %15 to %"class.std::__shared_ptr_access.57"*
  %17 = call %"class.ast::Expression"* @_ZNKSt19__shared_ptr_accessIN3ast10ExpressionELN9__gnu_cxx12_Lock_policyE2ELb0ELb0EEptEv(%"class.std::__shared_ptr_access.57"* %16) #3
  %18 = bitcast %"class.mini::MiniInterpreter"* %13 to %"class.ast::ASTVisitor"*
  %19 = bitcast %"class.ast::Expression"* %17 to void (%"struct.antlrcpp::Any"*, %"class.ast::Expression"*, %"class.ast::ASTVisitor"*)***
  %20 = load void (%"struct.antlrcpp::Any"*, %"class.ast::Expression"*, %"class.ast::ASTVisitor"*)**, void (%"struct.antlrcpp::Any"*, %"class.ast::Expression"*, %"class.ast::ASTVisitor"*)*** %19, align 8
  %21 = getelementptr inbounds void (%"struct.antlrcpp::Any"*, %"class.ast::Expression"*, %"class.ast::ASTVisitor"*)*, void (%"struct.antlrcpp::Any"*, %"class.ast::Expression"*, %"class.ast::ASTVisitor"*)** %20, i64 0
  %22 = load void (%"struct.antlrcpp::Any"*, %"class.ast::Expression"*, %"class.ast::ASTVisitor"*)*, void (%"struct.antlrcpp::Any"*, %"class.ast::Expression"*, %"class.ast::ASTVisitor"*)** %21, align 8
  call void %22(%"struct.antlrcpp::Any"* sret %8, %"class.ast::Expression"* %17, %"class.ast::ASTVisitor"* %18)
  invoke void @_ZN8antlrcpp3AnycvT_IN4mini10TypedValueEEEv(%"class.mini::TypedValue"* sret %7, %"struct.antlrcpp::Any"* %8)
          to label %23 unwind label %37

23:                                               ; preds = %3
  call void @_ZN8antlrcpp3AnyD1Ev(%"struct.antlrcpp::Any"* %8) #3
  %24 = invoke zeroext i1 @_ZN4mini15MiniInterpreter12getBoolStateERNS_10TypedValueE(%"class.mini::MiniInterpreter"* %13, %"class.mini::TypedValue"* dereferenceable(48) %7)
          to label %25 unwind label %41

25:                                               ; preds = %23
  br i1 %24, label %26, label %45

26:                                               ; preds = %25
  %27 = load %"class.ast::ConditionalStatement"*, %"class.ast::ConditionalStatement"** %6, align 8
  %28 = getelementptr inbounds %"class.ast::ConditionalStatement", %"class.ast::ConditionalStatement"* %27, i32 0, i32 2
  %29 = bitcast %"class.std::shared_ptr.43"* %28 to %"class.std::__shared_ptr_access.45"*
  %30 = call %"class.ast::Statement"* @_ZNKSt19__shared_ptr_accessIN3ast9StatementELN9__gnu_cxx12_Lock_policyE2ELb0ELb0EEptEv(%"class.std::__shared_ptr_access.45"* %29) #3
  %31 = bitcast %"class.mini::MiniInterpreter"* %13 to %"class.ast::ASTVisitor"*
  %32 = bitcast %"class.ast::Statement"* %30 to void (%"struct.antlrcpp::Any"*, %"class.ast::Statement"*, %"class.ast::ASTVisitor"*)***
  %33 = load void (%"struct.antlrcpp::Any"*, %"class.ast::Statement"*, %"class.ast::ASTVisitor"*)**, void (%"struct.antlrcpp::Any"*, %"class.ast::Statement"*, %"class.ast::ASTVisitor"*)*** %32, align 8
  %34 = getelementptr inbounds void (%"struct.antlrcpp::Any"*, %"class.ast::Statement"*, %"class.ast::ASTVisitor"*)*, void (%"struct.antlrcpp::Any"*, %"class.ast::Statement"*, %"class.ast::ASTVisitor"*)** %33, i64 0
  %35 = load void (%"struct.antlrcpp::Any"*, %"class.ast::Statement"*, %"class.ast::ASTVisitor"*)*, void (%"struct.antlrcpp::Any"*, %"class.ast::Statement"*, %"class.ast::ASTVisitor"*)** %34, align 8
  invoke void %35(%"struct.antlrcpp::Any"* sret %0, %"class.ast::Statement"* %30, %"class.ast::ASTVisitor"* %31)
          to label %36 unwind label %41

36:                                               ; preds = %26
  store i32 1, i32* %11, align 4
  br label %56

37:                                               ; preds = %3
  %38 = landingpad { i8*, i32 }
          cleanup
  %39 = extractvalue { i8*, i32 } %38, 0
  store i8* %39, i8** %9, align 8
  %40 = extractvalue { i8*, i32 } %38, 1
  store i32 %40, i32* %10, align 4
  call void @_ZN8antlrcpp3AnyD1Ev(%"struct.antlrcpp::Any"* %8) #3
  br label %57

41:                                               ; preds = %45, %26, %23
  %42 = landingpad { i8*, i32 }
          cleanup
  %43 = extractvalue { i8*, i32 } %42, 0
  store i8* %43, i8** %9, align 8
  %44 = extractvalue { i8*, i32 } %42, 1
  store i32 %44, i32* %10, align 4
  call void @_ZN4mini10TypedValueD2Ev(%"class.mini::TypedValue"* %7) #3
  br label %57

45:                                               ; preds = %25
  %46 = load %"class.ast::ConditionalStatement"*, %"class.ast::ConditionalStatement"** %6, align 8
  %47 = getelementptr inbounds %"class.ast::ConditionalStatement", %"class.ast::ConditionalStatement"* %46, i32 0, i32 3
  %48 = bitcast %"class.std::shared_ptr.43"* %47 to %"class.std::__shared_ptr_access.45"*
  %49 = call %"class.ast::Statement"* @_ZNKSt19__shared_ptr_accessIN3ast9StatementELN9__gnu_cxx12_Lock_policyE2ELb0ELb0EEptEv(%"class.std::__shared_ptr_access.45"* %48) #3
  %50 = bitcast %"class.mini::MiniInterpreter"* %13 to %"class.ast::ASTVisitor"*
  %51 = bitcast %"class.ast::Statement"* %49 to void (%"struct.antlrcpp::Any"*, %"class.ast::Statement"*, %"class.ast::ASTVisitor"*)***
  %52 = load void (%"struct.antlrcpp::Any"*, %"class.ast::Statement"*, %"class.ast::ASTVisitor"*)**, void (%"struct.antlrcpp::Any"*, %"class.ast::Statement"*, %"class.ast::ASTVisitor"*)*** %51, align 8
  %53 = getelementptr inbounds void (%"struct.antlrcpp::Any"*, %"class.ast::Statement"*, %"class.ast::ASTVisitor"*)*, void (%"struct.antlrcpp::Any"*, %"class.ast::Statement"*, %"class.ast::ASTVisitor"*)** %52, i64 0
  %54 = load void (%"struct.antlrcpp::Any"*, %"class.ast::Statement"*, %"class.ast::ASTVisitor"*)*, void (%"struct.antlrcpp::Any"*, %"class.ast::Statement"*, %"class.ast::ASTVisitor"*)** %53, align 8
  invoke void %54(%"struct.antlrcpp::Any"* sret %0, %"class.ast::Statement"* %49, %"class.ast::ASTVisitor"* %50)
          to label %55 unwind label %41

55:                                               ; preds = %45
  store i32 1, i32* %11, align 4
  br label %56

56:                                               ; preds = %55, %36
  call void @_ZN4mini10TypedValueD2Ev(%"class.mini::TypedValue"* %7) #3
  ret void

57:                                               ; preds = %41, %37
  %58 = load i8*, i8** %9, align 8
  %59 = load i32, i32* %10, align 4
  %60 = insertvalue { i8*, i32 } undef, i8* %58, 0
  %61 = insertvalue { i8*, i32 } %60, i32 %59, 1
  resume { i8*, i32 } %61
}

; Function Attrs: noinline optnone uwtable
define dso_local void @_ZN4mini15MiniInterpreter5visitEPN3ast11DeclarationE(%"struct.antlrcpp::Any"* noalias sret %0, %"class.mini::MiniInterpreter"* %1, %"class.ast::Declaration"* %2) unnamed_addr #4 align 2 personality i8* bitcast (i32 (...)* @__gxx_personality_v0 to i8*) {
  %4 = alloca i8*, align 8
  %5 = alloca %"class.mini::MiniInterpreter"*, align 8
  %6 = alloca %"class.ast::Declaration"*, align 8
  %7 = alloca %"class.std::__cxx11::basic_string", align 8
  %8 = alloca %"struct.antlrcpp::Any", align 8
  %9 = alloca i8*
  %10 = alloca i32
  %11 = alloca %"class.std::__cxx11::basic_string", align 8
  %12 = alloca %"class.std::shared_ptr.47", align 8
  %13 = alloca i32, align 4
  %14 = alloca i32, align 4
  %15 = alloca %"class.std::__cxx11::basic_string", align 8
  %16 = alloca %"class.std::shared_ptr.47", align 8
  %17 = alloca i8, align 1
  %18 = alloca %"class.std::__cxx11::basic_string", align 8
  %19 = alloca %"class.std::shared_ptr.47", align 8
  %20 = alloca %"class.std::map"*, align 8
  %21 = bitcast %"struct.antlrcpp::Any"* %0 to i8*
  store i8* %21, i8** %4, align 8
  store %"class.mini::MiniInterpreter"* %1, %"class.mini::MiniInterpreter"** %5, align 8
  store %"class.ast::Declaration"* %2, %"class.ast::Declaration"** %6, align 8
  %22 = load %"class.mini::MiniInterpreter"*, %"class.mini::MiniInterpreter"** %5, align 8
  %23 = load %"class.ast::Declaration"*, %"class.ast::Declaration"** %6, align 8
  %24 = getelementptr inbounds %"class.ast::Declaration", %"class.ast::Declaration"* %23, i32 0, i32 1
  %25 = bitcast %"class.std::shared_ptr.32"* %24 to %"class.std::__shared_ptr_access.34"*
  %26 = call %"class.ast::Type"* @_ZNKSt19__shared_ptr_accessIN3ast4TypeELN9__gnu_cxx12_Lock_policyE2ELb0ELb0EEptEv(%"class.std::__shared_ptr_access.34"* %25) #3
  %27 = bitcast %"class.mini::MiniInterpreter"* %22 to %"class.ast::ASTVisitor"*
  %28 = bitcast %"class.ast::Type"* %26 to void (%"struct.antlrcpp::Any"*, %"class.ast::Type"*, %"class.ast::ASTVisitor"*)***
  %29 = load void (%"struct.antlrcpp::Any"*, %"class.ast::Type"*, %"class.ast::ASTVisitor"*)**, void (%"struct.antlrcpp::Any"*, %"class.ast::Type"*, %"class.ast::ASTVisitor"*)*** %28, align 8
  %30 = getelementptr inbounds void (%"struct.antlrcpp::Any"*, %"class.ast::Type"*, %"class.ast::ASTVisitor"*)*, void (%"struct.antlrcpp::Any"*, %"class.ast::Type"*, %"class.ast::ASTVisitor"*)** %29, i64 1
  %31 = load void (%"struct.antlrcpp::Any"*, %"class.ast::Type"*, %"class.ast::ASTVisitor"*)*, void (%"struct.antlrcpp::Any"*, %"class.ast::Type"*, %"class.ast::ASTVisitor"*)** %30, align 8
  call void %31(%"struct.antlrcpp::Any"* sret %8, %"class.ast::Type"* %26, %"class.ast::ASTVisitor"* %27)
  invoke void @_ZN8antlrcpp3AnycvT_INSt7__cxx1112basic_stringIcSt11char_traitsIcESaIcEEEEEv(%"class.std::__cxx11::basic_string"* sret %7, %"struct.antlrcpp::Any"* %8)
          to label %32 unwind label %38

32:                                               ; preds = %3
  call void @_ZN8antlrcpp3AnyD1Ev(%"struct.antlrcpp::Any"* %8) #3
  invoke void @_ZN3ast7IntType4nameB5cxx11Ev(%"class.std::__cxx11::basic_string"* sret %11)
          to label %33 unwind label %42

33:                                               ; preds = %32
  %34 = call zeroext i1 @_ZSteqIcEN9__gnu_cxx11__enable_ifIXsr9__is_charIT_EE7__valueEbE6__typeERKNSt7__cxx1112basic_stringIS2_St11char_traitsIS2_ESaIS2_EEESC_(%"class.std::__cxx11::basic_string"* dereferenceable(32) %7, %"class.std::__cxx11::basic_string"* dereferenceable(32) %11) #3
  call void @_ZNSt7__cxx1112basic_stringIcSt11char_traitsIcESaIcEED1Ev(%"class.std::__cxx11::basic_string"* %11) #3
  br i1 %34, label %35, label %50

35:                                               ; preds = %33
  store i32 0, i32* %13, align 4
  invoke void @_ZSt11make_sharedIN4mini10TypedValueEJRNSt7__cxx1112basic_stringIcSt11char_traitsIcESaIcEEEiEESt10shared_ptrIT_EDpOT0_(%"class.std::shared_ptr.47"* sret %12, %"class.std::__cxx11::basic_string"* dereferenceable(32) %7, i32* dereferenceable(4) %13)
          to label %36 unwind label %42

36:                                               ; preds = %35
  invoke void @_ZN8antlrcpp3AnyC2ISt10shared_ptrIN4mini10TypedValueEEEEOT_(%"struct.antlrcpp::Any"* %0, %"class.std::shared_ptr.47"* dereferenceable(16) %12)
          to label %37 unwind label %46

37:                                               ; preds = %36
  call void @_ZNSt10shared_ptrIN4mini10TypedValueEED2Ev(%"class.std::shared_ptr.47"* %12) #3
  store i32 1, i32* %14, align 4
  br label %73

38:                                               ; preds = %3
  %39 = landingpad { i8*, i32 }
          cleanup
  %40 = extractvalue { i8*, i32 } %39, 0
  store i8* %40, i8** %9, align 8
  %41 = extractvalue { i8*, i32 } %39, 1
  store i32 %41, i32* %10, align 4
  call void @_ZN8antlrcpp3AnyD1Ev(%"struct.antlrcpp::Any"* %8) #3
  br label %75

42:                                               ; preds = %66, %63, %60, %53, %50, %35, %32
  %43 = landingpad { i8*, i32 }
          cleanup
  %44 = extractvalue { i8*, i32 } %43, 0
  store i8* %44, i8** %9, align 8
  %45 = extractvalue { i8*, i32 } %43, 1
  store i32 %45, i32* %10, align 4
  br label %74

46:                                               ; preds = %36
  %47 = landingpad { i8*, i32 }
          cleanup
  %48 = extractvalue { i8*, i32 } %47, 0
  store i8* %48, i8** %9, align 8
  %49 = extractvalue { i8*, i32 } %47, 1
  store i32 %49, i32* %10, align 4
  call void @_ZNSt10shared_ptrIN4mini10TypedValueEED2Ev(%"class.std::shared_ptr.47"* %12) #3
  br label %74

50:                                               ; preds = %33
  invoke void @_ZN3ast8BoolType4nameB5cxx11Ev(%"class.std::__cxx11::basic_string"* sret %15)
          to label %51 unwind label %42

51:                                               ; preds = %50
  %52 = call zeroext i1 @_ZSteqIcEN9__gnu_cxx11__enable_ifIXsr9__is_charIT_EE7__valueEbE6__typeERKNSt7__cxx1112basic_stringIS2_St11char_traitsIS2_ESaIS2_EEESC_(%"class.std::__cxx11::basic_string"* dereferenceable(32) %7, %"class.std::__cxx11::basic_string"* dereferenceable(32) %15) #3
  call void @_ZNSt7__cxx1112basic_stringIcSt11char_traitsIcESaIcEED1Ev(%"class.std::__cxx11::basic_string"* %15) #3
  br i1 %52, label %53, label %60

53:                                               ; preds = %51
  store i8 0, i8* %17, align 1
  invoke void @_ZSt11make_sharedIN4mini10TypedValueEJRNSt7__cxx1112basic_stringIcSt11char_traitsIcESaIcEEEbEESt10shared_ptrIT_EDpOT0_(%"class.std::shared_ptr.47"* sret %16, %"class.std::__cxx11::basic_string"* dereferenceable(32) %7, i8* dereferenceable(1) %17)
          to label %54 unwind label %42

54:                                               ; preds = %53
  invoke void @_ZN8antlrcpp3AnyC2ISt10shared_ptrIN4mini10TypedValueEEEEOT_(%"struct.antlrcpp::Any"* %0, %"class.std::shared_ptr.47"* dereferenceable(16) %16)
          to label %55 unwind label %56

55:                                               ; preds = %54
  call void @_ZNSt10shared_ptrIN4mini10TypedValueEED2Ev(%"class.std::shared_ptr.47"* %16) #3
  store i32 1, i32* %14, align 4
  br label %73

56:                                               ; preds = %54
  %57 = landingpad { i8*, i32 }
          cleanup
  %58 = extractvalue { i8*, i32 } %57, 0
  store i8* %58, i8** %9, align 8
  %59 = extractvalue { i8*, i32 } %57, 1
  store i32 %59, i32* %10, align 4
  call void @_ZNSt10shared_ptrIN4mini10TypedValueEED2Ev(%"class.std::shared_ptr.47"* %16) #3
  br label %74

60:                                               ; preds = %51
  invoke void @_ZN3ast8VoidType4nameB5cxx11Ev(%"class.std::__cxx11::basic_string"* sret %18)
          to label %61 unwind label %42

61:                                               ; preds = %60
  %62 = call zeroext i1 @_ZSteqIcEN9__gnu_cxx11__enable_ifIXsr9__is_charIT_EE7__valueEbE6__typeERKNSt7__cxx1112basic_stringIS2_St11char_traitsIS2_ESaIS2_EEESC_(%"class.std::__cxx11::basic_string"* dereferenceable(32) %7, %"class.std::__cxx11::basic_string"* dereferenceable(32) %18) #3
  call void @_ZNSt7__cxx1112basic_stringIcSt11char_traitsIcESaIcEED1Ev(%"class.std::__cxx11::basic_string"* %18) #3
  br i1 %62, label %63, label %66

63:                                               ; preds = %61
  %64 = invoke dereferenceable(272) %"class.std::basic_ostream"* @_ZStlsISt11char_traitsIcEERSt13basic_ostreamIcT_ES5_PKc(%"class.std::basic_ostream"* dereferenceable(272) @_ZSt4cerr, i8* getelementptr inbounds ([53 x i8], [53 x i8]* @.str.7, i64 0, i64 0))
          to label %65 unwind label %42

65:                                               ; preds = %63
  call void @exit(i32 1) #15
  unreachable

66:                                               ; preds = %61
  store %"class.std::map"* null, %"class.std::map"** %20, align 8
  invoke void @_ZSt11make_sharedIN4mini10TypedValueEJRNSt7__cxx1112basic_stringIcSt11char_traitsIcESaIcEEEPSt3mapIS7_St10shared_ptrIS1_ESt4lessIS7_ESaISt4pairIKS7_SB_EEEEESA_IT_EDpOT0_(%"class.std::shared_ptr.47"* sret %19, %"class.std::__cxx11::basic_string"* dereferenceable(32) %7, %"class.std::map"** dereferenceable(8) %20)
          to label %67 unwind label %42

67:                                               ; preds = %66
  invoke void @_ZN8antlrcpp3AnyC2ISt10shared_ptrIN4mini10TypedValueEEEEOT_(%"struct.antlrcpp::Any"* %0, %"class.std::shared_ptr.47"* dereferenceable(16) %19)
          to label %68 unwind label %69

68:                                               ; preds = %67
  call void @_ZNSt10shared_ptrIN4mini10TypedValueEED2Ev(%"class.std::shared_ptr.47"* %19) #3
  store i32 1, i32* %14, align 4
  br label %73

69:                                               ; preds = %67
  %70 = landingpad { i8*, i32 }
          cleanup
  %71 = extractvalue { i8*, i32 } %70, 0
  store i8* %71, i8** %9, align 8
  %72 = extractvalue { i8*, i32 } %70, 1
  store i32 %72, i32* %10, align 4
  call void @_ZNSt10shared_ptrIN4mini10TypedValueEED2Ev(%"class.std::shared_ptr.47"* %19) #3
  br label %74

73:                                               ; preds = %68, %55, %37
  call void @_ZNSt7__cxx1112basic_stringIcSt11char_traitsIcESaIcEED1Ev(%"class.std::__cxx11::basic_string"* %7) #3
  ret void

74:                                               ; preds = %69, %56, %46, %42
  call void @_ZNSt7__cxx1112basic_stringIcSt11char_traitsIcESaIcEED1Ev(%"class.std::__cxx11::basic_string"* %7) #3
  br label %75

75:                                               ; preds = %74, %38
  %76 = load i8*, i8** %9, align 8
  %77 = load i32, i32* %10, align 4
  %78 = insertvalue { i8*, i32 } undef, i8* %76, 0
  %79 = insertvalue { i8*, i32 } %78, i32 %77, 1
  resume { i8*, i32 } %79
}

; Function Attrs: noinline nounwind optnone uwtable
define linkonce_odr dso_local %"class.ast::Type"* @_ZNKSt19__shared_ptr_accessIN3ast4TypeELN9__gnu_cxx12_Lock_policyE2ELb0ELb0EEptEv(%"class.std::__shared_ptr_access.34"* %0) #5 comdat align 2 {
  %2 = alloca %"class.std::__shared_ptr_access.34"*, align 8
  store %"class.std::__shared_ptr_access.34"* %0, %"class.std::__shared_ptr_access.34"** %2, align 8
  %3 = load %"class.std::__shared_ptr_access.34"*, %"class.std::__shared_ptr_access.34"** %2, align 8
  %4 = call %"class.ast::Type"* @_ZNKSt19__shared_ptr_accessIN3ast4TypeELN9__gnu_cxx12_Lock_policyE2ELb0ELb0EE6_M_getEv(%"class.std::__shared_ptr_access.34"* %3) #3
  ret %"class.ast::Type"* %4
}

; Function Attrs: noinline optnone uwtable
define linkonce_odr dso_local void @_ZN8antlrcpp3AnycvT_INSt7__cxx1112basic_stringIcSt11char_traitsIcESaIcEEEEEv(%"class.std::__cxx11::basic_string"* noalias sret %0, %"struct.antlrcpp::Any"* %1) #4 comdat align 2 {
  %3 = alloca i8*, align 8
  %4 = alloca %"struct.antlrcpp::Any"*, align 8
  %5 = bitcast %"class.std::__cxx11::basic_string"* %0 to i8*
  store i8* %5, i8** %3, align 8
  store %"struct.antlrcpp::Any"* %1, %"struct.antlrcpp::Any"** %4, align 8
  %6 = load %"struct.antlrcpp::Any"*, %"struct.antlrcpp::Any"** %4, align 8
  %7 = call dereferenceable(32) %"class.std::__cxx11::basic_string"* @_ZN8antlrcpp3Any2asINSt7__cxx1112basic_stringIcSt11char_traitsIcESaIcEEEEERNSt5decayIT_E4typeEv(%"struct.antlrcpp::Any"* %6)
  call void @_ZNSt7__cxx1112basic_stringIcSt11char_traitsIcESaIcEEC1ERKS4_(%"class.std::__cxx11::basic_string"* %0, %"class.std::__cxx11::basic_string"* dereferenceable(32) %7)
  ret void
}

; Function Attrs: noinline optnone uwtable
define linkonce_odr dso_local void @_ZSt11make_sharedIN4mini10TypedValueEJRNSt7__cxx1112basic_stringIcSt11char_traitsIcESaIcEEEiEESt10shared_ptrIT_EDpOT0_(%"class.std::shared_ptr.47"* noalias sret %0, %"class.std::__cxx11::basic_string"* dereferenceable(32) %1, i32* dereferenceable(4) %2) #4 comdat personality i8* bitcast (i32 (...)* @__gxx_personality_v0 to i8*) {
  %4 = alloca i8*, align 8
  %5 = alloca %"class.std::__cxx11::basic_string"*, align 8
  %6 = alloca i32*, align 8
  %7 = alloca %"class.std::allocator.100", align 1
  %8 = alloca i8*
  %9 = alloca i32
  %10 = bitcast %"class.std::shared_ptr.47"* %0 to i8*
  store i8* %10, i8** %4, align 8
  store %"class.std::__cxx11::basic_string"* %1, %"class.std::__cxx11::basic_string"** %5, align 8
  store i32* %2, i32** %6, align 8
  call void @_ZNSaIN4mini10TypedValueEEC2Ev(%"class.std::allocator.100"* %7) #3
  %11 = load %"class.std::__cxx11::basic_string"*, %"class.std::__cxx11::basic_string"** %5, align 8
  %12 = call dereferenceable(32) %"class.std::__cxx11::basic_string"* @_ZSt7forwardIRNSt7__cxx1112basic_stringIcSt11char_traitsIcESaIcEEEEOT_RNSt16remove_referenceIS7_E4typeE(%"class.std::__cxx11::basic_string"* dereferenceable(32) %11) #3
  %13 = load i32*, i32** %6, align 8
  %14 = call dereferenceable(4) i32* @_ZSt7forwardIiEOT_RNSt16remove_referenceIS0_E4typeE(i32* dereferenceable(4) %13) #3
  invoke void @_ZSt15allocate_sharedIN4mini10TypedValueESaIS1_EJRNSt7__cxx1112basic_stringIcSt11char_traitsIcESaIcEEEiEESt10shared_ptrIT_ERKT0_DpOT1_(%"class.std::shared_ptr.47"* sret %0, %"class.std::allocator.100"* dereferenceable(1) %7, %"class.std::__cxx11::basic_string"* dereferenceable(32) %12, i32* dereferenceable(4) %14)
          to label %15 unwind label %16

15:                                               ; preds = %3
  call void @_ZNSaIN4mini10TypedValueEED2Ev(%"class.std::allocator.100"* %7) #3
  ret void

16:                                               ; preds = %3
  %17 = landingpad { i8*, i32 }
          cleanup
  %18 = extractvalue { i8*, i32 } %17, 0
  store i8* %18, i8** %8, align 8
  %19 = extractvalue { i8*, i32 } %17, 1
  store i32 %19, i32* %9, align 4
  call void @_ZNSaIN4mini10TypedValueEED2Ev(%"class.std::allocator.100"* %7) #3
  br label %20

20:                                               ; preds = %16
  %21 = load i8*, i8** %8, align 8
  %22 = load i32, i32* %9, align 4
  %23 = insertvalue { i8*, i32 } undef, i8* %21, 0
  %24 = insertvalue { i8*, i32 } %23, i32 %22, 1
  resume { i8*, i32 } %24
}

; Function Attrs: noinline optnone uwtable
define linkonce_odr dso_local void @_ZN8antlrcpp3AnyC2ISt10shared_ptrIN4mini10TypedValueEEEEOT_(%"struct.antlrcpp::Any"* %0, %"class.std::shared_ptr.47"* dereferenceable(16) %1) unnamed_addr #4 comdat align 2 personality i8* bitcast (i32 (...)* @__gxx_personality_v0 to i8*) {
  %3 = alloca %"struct.antlrcpp::Any"*, align 8
  %4 = alloca %"class.std::shared_ptr.47"*, align 8
  %5 = alloca i8*
  %6 = alloca i32
  store %"struct.antlrcpp::Any"* %0, %"struct.antlrcpp::Any"** %3, align 8
  store %"class.std::shared_ptr.47"* %1, %"class.std::shared_ptr.47"** %4, align 8
  %7 = load %"struct.antlrcpp::Any"*, %"struct.antlrcpp::Any"** %3, align 8
  %8 = bitcast %"struct.antlrcpp::Any"* %7 to i32 (...)***
  store i32 (...)** bitcast (i8** getelementptr inbounds ({ [5 x i8*] }, { [5 x i8*] }* @_ZTVN8antlrcpp3AnyE, i32 0, inrange i32 0, i32 2) to i32 (...)**), i32 (...)*** %8, align 8
  %9 = getelementptr inbounds %"struct.antlrcpp::Any", %"struct.antlrcpp::Any"* %7, i32 0, i32 1
  %10 = call i8* @_Znwm(i64 24) #17
  %11 = bitcast i8* %10 to %"struct.antlrcpp::Any::Derived.92"*
  %12 = load %"class.std::shared_ptr.47"*, %"class.std::shared_ptr.47"** %4, align 8
  %13 = call dereferenceable(16) %"class.std::shared_ptr.47"* @_ZSt7forwardISt10shared_ptrIN4mini10TypedValueEEEOT_RNSt16remove_referenceIS4_E4typeE(%"class.std::shared_ptr.47"* dereferenceable(16) %12) #3
  invoke void @_ZN8antlrcpp3Any7DerivedISt10shared_ptrIN4mini10TypedValueEEEC2IS5_EEOT_(%"struct.antlrcpp::Any::Derived.92"* %11, %"class.std::shared_ptr.47"* dereferenceable(16) %13)
          to label %14 unwind label %16

14:                                               ; preds = %2
  %15 = bitcast %"struct.antlrcpp::Any::Derived.92"* %11 to %"struct.antlrcpp::Any::Base"*
  store %"struct.antlrcpp::Any::Base"* %15, %"struct.antlrcpp::Any::Base"** %9, align 8
  ret void

16:                                               ; preds = %2
  %17 = landingpad { i8*, i32 }
          cleanup
  %18 = extractvalue { i8*, i32 } %17, 0
  store i8* %18, i8** %5, align 8
  %19 = extractvalue { i8*, i32 } %17, 1
  store i32 %19, i32* %6, align 4
  call void @_ZdlPv(i8* %10) #18
  br label %20

20:                                               ; preds = %16
  %21 = load i8*, i8** %5, align 8
  %22 = load i32, i32* %6, align 4
  %23 = insertvalue { i8*, i32 } undef, i8* %21, 0
  %24 = insertvalue { i8*, i32 } %23, i32 %22, 1
  resume { i8*, i32 } %24
}

; Function Attrs: noinline optnone uwtable
define linkonce_odr dso_local void @_ZSt11make_sharedIN4mini10TypedValueEJRNSt7__cxx1112basic_stringIcSt11char_traitsIcESaIcEEEbEESt10shared_ptrIT_EDpOT0_(%"class.std::shared_ptr.47"* noalias sret %0, %"class.std::__cxx11::basic_string"* dereferenceable(32) %1, i8* dereferenceable(1) %2) #4 comdat personality i8* bitcast (i32 (...)* @__gxx_personality_v0 to i8*) {
  %4 = alloca i8*, align 8
  %5 = alloca %"class.std::__cxx11::basic_string"*, align 8
  %6 = alloca i8*, align 8
  %7 = alloca %"class.std::allocator.100", align 1
  %8 = alloca i8*
  %9 = alloca i32
  %10 = bitcast %"class.std::shared_ptr.47"* %0 to i8*
  store i8* %10, i8** %4, align 8
  store %"class.std::__cxx11::basic_string"* %1, %"class.std::__cxx11::basic_string"** %5, align 8
  store i8* %2, i8** %6, align 8
  call void @_ZNSaIN4mini10TypedValueEEC2Ev(%"class.std::allocator.100"* %7) #3
  %11 = load %"class.std::__cxx11::basic_string"*, %"class.std::__cxx11::basic_string"** %5, align 8
  %12 = call dereferenceable(32) %"class.std::__cxx11::basic_string"* @_ZSt7forwardIRNSt7__cxx1112basic_stringIcSt11char_traitsIcESaIcEEEEOT_RNSt16remove_referenceIS7_E4typeE(%"class.std::__cxx11::basic_string"* dereferenceable(32) %11) #3
  %13 = load i8*, i8** %6, align 8
  %14 = call dereferenceable(1) i8* @_ZSt7forwardIbEOT_RNSt16remove_referenceIS0_E4typeE(i8* dereferenceable(1) %13) #3
  invoke void @_ZSt15allocate_sharedIN4mini10TypedValueESaIS1_EJRNSt7__cxx1112basic_stringIcSt11char_traitsIcESaIcEEEbEESt10shared_ptrIT_ERKT0_DpOT1_(%"class.std::shared_ptr.47"* sret %0, %"class.std::allocator.100"* dereferenceable(1) %7, %"class.std::__cxx11::basic_string"* dereferenceable(32) %12, i8* dereferenceable(1) %14)
          to label %15 unwind label %16

15:                                               ; preds = %3
  call void @_ZNSaIN4mini10TypedValueEED2Ev(%"class.std::allocator.100"* %7) #3
  ret void

16:                                               ; preds = %3
  %17 = landingpad { i8*, i32 }
          cleanup
  %18 = extractvalue { i8*, i32 } %17, 0
  store i8* %18, i8** %8, align 8
  %19 = extractvalue { i8*, i32 } %17, 1
  store i32 %19, i32* %9, align 4
  call void @_ZNSaIN4mini10TypedValueEED2Ev(%"class.std::allocator.100"* %7) #3
  br label %20

20:                                               ; preds = %16
  %21 = load i8*, i8** %8, align 8
  %22 = load i32, i32* %9, align 4
  %23 = insertvalue { i8*, i32 } undef, i8* %21, 0
  %24 = insertvalue { i8*, i32 } %23, i32 %22, 1
  resume { i8*, i32 } %24
}

declare dso_local dereferenceable(272) %"class.std::basic_ostream"* @_ZStlsISt11char_traitsIcEERSt13basic_ostreamIcT_ES5_PKc(%"class.std::basic_ostream"* dereferenceable(272), i8*) #1

; Function Attrs: noreturn nounwind
declare dso_local void @exit(i32) #6

; Function Attrs: noinline optnone uwtable
define linkonce_odr dso_local void @_ZSt11make_sharedIN4mini10TypedValueEJRNSt7__cxx1112basic_stringIcSt11char_traitsIcESaIcEEEPSt3mapIS7_St10shared_ptrIS1_ESt4lessIS7_ESaISt4pairIKS7_SB_EEEEESA_IT_EDpOT0_(%"class.std::shared_ptr.47"* noalias sret %0, %"class.std::__cxx11::basic_string"* dereferenceable(32) %1, %"class.std::map"** dereferenceable(8) %2) #4 comdat personality i8* bitcast (i32 (...)* @__gxx_personality_v0 to i8*) {
  %4 = alloca i8*, align 8
  %5 = alloca %"class.std::__cxx11::basic_string"*, align 8
  %6 = alloca %"class.std::map"**, align 8
  %7 = alloca %"class.std::allocator.100", align 1
  %8 = alloca i8*
  %9 = alloca i32
  %10 = bitcast %"class.std::shared_ptr.47"* %0 to i8*
  store i8* %10, i8** %4, align 8
  store %"class.std::__cxx11::basic_string"* %1, %"class.std::__cxx11::basic_string"** %5, align 8
  store %"class.std::map"** %2, %"class.std::map"*** %6, align 8
  call void @_ZNSaIN4mini10TypedValueEEC2Ev(%"class.std::allocator.100"* %7) #3
  %11 = load %"class.std::__cxx11::basic_string"*, %"class.std::__cxx11::basic_string"** %5, align 8
  %12 = call dereferenceable(32) %"class.std::__cxx11::basic_string"* @_ZSt7forwardIRNSt7__cxx1112basic_stringIcSt11char_traitsIcESaIcEEEEOT_RNSt16remove_referenceIS7_E4typeE(%"class.std::__cxx11::basic_string"* dereferenceable(32) %11) #3
  %13 = load %"class.std::map"**, %"class.std::map"*** %6, align 8
  %14 = call dereferenceable(8) %"class.std::map"** @_ZSt7forwardIPSt3mapINSt7__cxx1112basic_stringIcSt11char_traitsIcESaIcEEESt10shared_ptrIN4mini10TypedValueEESt4lessIS6_ESaISt4pairIKS6_SA_EEEEOT_RNSt16remove_referenceISJ_E4typeE(%"class.std::map"** dereferenceable(8) %13) #3
  invoke void @_ZSt15allocate_sharedIN4mini10TypedValueESaIS1_EJRNSt7__cxx1112basic_stringIcSt11char_traitsIcESaIcEEEPSt3mapIS8_St10shared_ptrIS1_ESt4lessIS8_ESaISt4pairIKS8_SC_EEEEESB_IT_ERKT0_DpOT1_(%"class.std::shared_ptr.47"* sret %0, %"class.std::allocator.100"* dereferenceable(1) %7, %"class.std::__cxx11::basic_string"* dereferenceable(32) %12, %"class.std::map"** dereferenceable(8) %14)
          to label %15 unwind label %16

15:                                               ; preds = %3
  call void @_ZNSaIN4mini10TypedValueEED2Ev(%"class.std::allocator.100"* %7) #3
  ret void

16:                                               ; preds = %3
  %17 = landingpad { i8*, i32 }
          cleanup
  %18 = extractvalue { i8*, i32 } %17, 0
  store i8* %18, i8** %8, align 8
  %19 = extractvalue { i8*, i32 } %17, 1
  store i32 %19, i32* %9, align 4
  call void @_ZNSaIN4mini10TypedValueEED2Ev(%"class.std::allocator.100"* %7) #3
  br label %20

20:                                               ; preds = %16
  %21 = load i8*, i8** %8, align 8
  %22 = load i32, i32* %9, align 4
  %23 = insertvalue { i8*, i32 } undef, i8* %21, 0
  %24 = insertvalue { i8*, i32 } %23, i32 %22, 1
  resume { i8*, i32 } %24
}

; Function Attrs: noinline optnone uwtable
define dso_local void @_ZN4mini15MiniInterpreter5visitEPN3ast15DeleteStatementE(%"struct.antlrcpp::Any"* noalias sret %0, %"class.mini::MiniInterpreter"* %1, %"class.ast::DeleteStatement"* %2) unnamed_addr #4 align 2 personality i8* bitcast (i32 (...)* @__gxx_personality_v0 to i8*) {
  %4 = alloca i8*, align 8
  %5 = alloca %"class.mini::MiniInterpreter"*, align 8
  %6 = alloca %"class.ast::DeleteStatement"*, align 8
  %7 = alloca %"class.mini::TypedValue", align 8
  %8 = alloca %"struct.antlrcpp::Any", align 8
  %9 = alloca i8*
  %10 = alloca i32
  %11 = alloca i8*, align 8
  %12 = bitcast %"struct.antlrcpp::Any"* %0 to i8*
  store i8* %12, i8** %4, align 8
  store %"class.mini::MiniInterpreter"* %1, %"class.mini::MiniInterpreter"** %5, align 8
  store %"class.ast::DeleteStatement"* %2, %"class.ast::DeleteStatement"** %6, align 8
  %13 = load %"class.mini::MiniInterpreter"*, %"class.mini::MiniInterpreter"** %5, align 8
  %14 = load %"class.ast::DeleteStatement"*, %"class.ast::DeleteStatement"** %6, align 8
  %15 = getelementptr inbounds %"class.ast::DeleteStatement", %"class.ast::DeleteStatement"* %14, i32 0, i32 1
  %16 = bitcast %"class.std::shared_ptr.55"* %15 to %"class.std::__shared_ptr_access.57"*
  %17 = call %"class.ast::Expression"* @_ZNKSt19__shared_ptr_accessIN3ast10ExpressionELN9__gnu_cxx12_Lock_policyE2ELb0ELb0EEptEv(%"class.std::__shared_ptr_access.57"* %16) #3
  %18 = bitcast %"class.mini::MiniInterpreter"* %13 to %"class.ast::ASTVisitor"*
  %19 = bitcast %"class.ast::Expression"* %17 to void (%"struct.antlrcpp::Any"*, %"class.ast::Expression"*, %"class.ast::ASTVisitor"*)***
  %20 = load void (%"struct.antlrcpp::Any"*, %"class.ast::Expression"*, %"class.ast::ASTVisitor"*)**, void (%"struct.antlrcpp::Any"*, %"class.ast::Expression"*, %"class.ast::ASTVisitor"*)*** %19, align 8
  %21 = getelementptr inbounds void (%"struct.antlrcpp::Any"*, %"class.ast::Expression"*, %"class.ast::ASTVisitor"*)*, void (%"struct.antlrcpp::Any"*, %"class.ast::Expression"*, %"class.ast::ASTVisitor"*)** %20, i64 0
  %22 = load void (%"struct.antlrcpp::Any"*, %"class.ast::Expression"*, %"class.ast::ASTVisitor"*)*, void (%"struct.antlrcpp::Any"*, %"class.ast::Expression"*, %"class.ast::ASTVisitor"*)** %21, align 8
  call void %22(%"struct.antlrcpp::Any"* sret %8, %"class.ast::Expression"* %17, %"class.ast::ASTVisitor"* %18)
  invoke void @_ZN8antlrcpp3AnycvT_IN4mini10TypedValueEEEv(%"class.mini::TypedValue"* sret %7, %"struct.antlrcpp::Any"* %8)
          to label %23 unwind label %31

23:                                               ; preds = %3
  call void @_ZN8antlrcpp3AnyD1Ev(%"struct.antlrcpp::Any"* %8) #3
  %24 = invoke %"class.std::map"* @_ZN4mini10TypedValue3getIPSt3mapINSt7__cxx1112basic_stringIcSt11char_traitsIcESaIcEEESt10shared_ptrIS0_ESt4lessIS8_ESaISt4pairIKS8_SA_EEEEET_v(%"class.mini::TypedValue"* %7)
          to label %25 unwind label %35

25:                                               ; preds = %23
  %26 = icmp eq %"class.std::map"* %24, null
  br i1 %26, label %29, label %27

27:                                               ; preds = %25
  call void @_ZNSt3mapINSt7__cxx1112basic_stringIcSt11char_traitsIcESaIcEEESt10shared_ptrIN4mini10TypedValueEESt4lessIS5_ESaISt4pairIKS5_S9_EEED2Ev(%"class.std::map"* %24) #3
  %28 = bitcast %"class.std::map"* %24 to i8*
  call void @_ZdlPv(i8* %28) #18
  br label %29

29:                                               ; preds = %27, %25
  store i8* null, i8** %11, align 8
  invoke void @_ZN8antlrcpp3AnyC2IDnEEOT_(%"struct.antlrcpp::Any"* %0, i8** dereferenceable(8) %11)
          to label %30 unwind label %35

30:                                               ; preds = %29
  call void @_ZN4mini10TypedValueD2Ev(%"class.mini::TypedValue"* %7) #3
  ret void

31:                                               ; preds = %3
  %32 = landingpad { i8*, i32 }
          cleanup
  %33 = extractvalue { i8*, i32 } %32, 0
  store i8* %33, i8** %9, align 8
  %34 = extractvalue { i8*, i32 } %32, 1
  store i32 %34, i32* %10, align 4
  call void @_ZN8antlrcpp3AnyD1Ev(%"struct.antlrcpp::Any"* %8) #3
  br label %39

35:                                               ; preds = %29, %23
  %36 = landingpad { i8*, i32 }
          cleanup
  %37 = extractvalue { i8*, i32 } %36, 0
  store i8* %37, i8** %9, align 8
  %38 = extractvalue { i8*, i32 } %36, 1
  store i32 %38, i32* %10, align 4
  call void @_ZN4mini10TypedValueD2Ev(%"class.mini::TypedValue"* %7) #3
  br label %39

39:                                               ; preds = %35, %31
  %40 = load i8*, i8** %9, align 8
  %41 = load i32, i32* %10, align 4
  %42 = insertvalue { i8*, i32 } undef, i8* %40, 0
  %43 = insertvalue { i8*, i32 } %42, i32 %41, 1
  resume { i8*, i32 } %43
}

; Function Attrs: nobuiltin nounwind
declare dso_local void @_ZdlPv(i8*) #7

; Function Attrs: noinline optnone uwtable
define dso_local void @_ZN4mini15MiniInterpreter5visitEPN3ast13DotExpressionE(%"struct.antlrcpp::Any"* noalias sret %0, %"class.mini::MiniInterpreter"* %1, %"class.ast::DotExpression"* %2) unnamed_addr #4 align 2 personality i8* bitcast (i32 (...)* @__gxx_personality_v0 to i8*) {
  %4 = alloca i8*, align 8
  %5 = alloca %"class.mini::MiniInterpreter"*, align 8
  %6 = alloca %"class.ast::DotExpression"*, align 8
  %7 = alloca %"class.mini::TypedValue", align 8
  %8 = alloca %"struct.antlrcpp::Any", align 8
  %9 = alloca i8*
  %10 = alloca i32
  %11 = alloca %"class.std::__cxx11::basic_string", align 8
  %12 = alloca %"class.std::__cxx11::basic_string", align 8
  %13 = alloca i1, align 1
  %14 = alloca %"class.std::__cxx11::basic_string", align 8
  %15 = alloca %"class.std::__cxx11::basic_string", align 8
  %16 = alloca i1, align 1
  %17 = alloca %"class.std::map"*, align 8
  %18 = alloca %"class.std::__cxx11::basic_string", align 8
  %19 = alloca %"class.std::__cxx11::basic_string", align 8
  %20 = alloca i1, align 1
  %21 = bitcast %"struct.antlrcpp::Any"* %0 to i8*
  store i8* %21, i8** %4, align 8
  store %"class.mini::MiniInterpreter"* %1, %"class.mini::MiniInterpreter"** %5, align 8
  store %"class.ast::DotExpression"* %2, %"class.ast::DotExpression"** %6, align 8
  %22 = load %"class.mini::MiniInterpreter"*, %"class.mini::MiniInterpreter"** %5, align 8
  %23 = load %"class.ast::DotExpression"*, %"class.ast::DotExpression"** %6, align 8
  %24 = getelementptr inbounds %"class.ast::DotExpression", %"class.ast::DotExpression"* %23, i32 0, i32 1
  %25 = bitcast %"class.std::shared_ptr.55"* %24 to %"class.std::__shared_ptr_access.57"*
  %26 = call %"class.ast::Expression"* @_ZNKSt19__shared_ptr_accessIN3ast10ExpressionELN9__gnu_cxx12_Lock_policyE2ELb0ELb0EEptEv(%"class.std::__shared_ptr_access.57"* %25) #3
  %27 = bitcast %"class.mini::MiniInterpreter"* %22 to %"class.ast::ASTVisitor"*
  %28 = bitcast %"class.ast::Expression"* %26 to void (%"struct.antlrcpp::Any"*, %"class.ast::Expression"*, %"class.ast::ASTVisitor"*)***
  %29 = load void (%"struct.antlrcpp::Any"*, %"class.ast::Expression"*, %"class.ast::ASTVisitor"*)**, void (%"struct.antlrcpp::Any"*, %"class.ast::Expression"*, %"class.ast::ASTVisitor"*)*** %28, align 8
  %30 = getelementptr inbounds void (%"struct.antlrcpp::Any"*, %"class.ast::Expression"*, %"class.ast::ASTVisitor"*)*, void (%"struct.antlrcpp::Any"*, %"class.ast::Expression"*, %"class.ast::ASTVisitor"*)** %29, i64 0
  %31 = load void (%"struct.antlrcpp::Any"*, %"class.ast::Expression"*, %"class.ast::ASTVisitor"*)*, void (%"struct.antlrcpp::Any"*, %"class.ast::Expression"*, %"class.ast::ASTVisitor"*)** %30, align 8
  call void %31(%"struct.antlrcpp::Any"* sret %8, %"class.ast::Expression"* %26, %"class.ast::ASTVisitor"* %27)
  invoke void @_ZN8antlrcpp3AnycvT_IN4mini10TypedValueEEEv(%"class.mini::TypedValue"* sret %7, %"struct.antlrcpp::Any"* %8)
          to label %32 unwind label %45

32:                                               ; preds = %3
  call void @_ZN8antlrcpp3AnyD1Ev(%"struct.antlrcpp::Any"* %8) #3
  %33 = invoke zeroext i1 @_ZN4mini10TypedValue8isStructEv(%"class.mini::TypedValue"* %7)
          to label %34 unwind label %49

34:                                               ; preds = %32
  br i1 %33, label %70, label %35

35:                                               ; preds = %34
  %36 = call i8* @__cxa_allocate_exception(i64 16) #3
  store i1 true, i1* %13, align 1
  %37 = bitcast i8* %36 to %"class.std::runtime_error"*
  %38 = load %"class.ast::DotExpression"*, %"class.ast::DotExpression"** %6, align 8
  %39 = bitcast %"class.ast::DotExpression"* %38 to %"class.ast::Expression"*
  %40 = getelementptr inbounds %"class.ast::Expression", %"class.ast::Expression"* %39, i32 0, i32 1
  %41 = load i32, i32* %40, align 8
  invoke void @_ZNSt7__cxx119to_stringEi(%"class.std::__cxx11::basic_string"* sret %12, i32 %41)
          to label %42 unwind label %53

42:                                               ; preds = %35
  invoke void @_ZStplIcSt11char_traitsIcESaIcEENSt7__cxx1112basic_stringIT_T0_T1_EEOS8_PKS5_(%"class.std::__cxx11::basic_string"* sret %11, %"class.std::__cxx11::basic_string"* dereferenceable(32) %12, i8* getelementptr inbounds ([36 x i8], [36 x i8]* @.str.8, i64 0, i64 0))
          to label %43 unwind label %57

43:                                               ; preds = %42
  invoke void @_ZNSt13runtime_errorC1ERKNSt7__cxx1112basic_stringIcSt11char_traitsIcESaIcEEE(%"class.std::runtime_error"* %37, %"class.std::__cxx11::basic_string"* dereferenceable(32) %11)
          to label %44 unwind label %61

44:                                               ; preds = %43
  store i1 false, i1* %13, align 1
  invoke void @__cxa_throw(i8* %36, i8* bitcast (i8** @_ZTISt13runtime_error to i8*), i8* bitcast (void (%"class.std::runtime_error"*)* @_ZNSt13runtime_errorD1Ev to i8*)) #16
          to label %152 unwind label %61

45:                                               ; preds = %3
  %46 = landingpad { i8*, i32 }
          cleanup
  %47 = extractvalue { i8*, i32 } %46, 0
  store i8* %47, i8** %9, align 8
  %48 = extractvalue { i8*, i32 } %46, 1
  store i32 %48, i32* %10, align 4
  call void @_ZN8antlrcpp3AnyD1Ev(%"struct.antlrcpp::Any"* %8) #3
  br label %147

49:                                               ; preds = %115, %110, %103, %101, %70, %32
  %50 = landingpad { i8*, i32 }
          cleanup
  %51 = extractvalue { i8*, i32 } %50, 0
  store i8* %51, i8** %9, align 8
  %52 = extractvalue { i8*, i32 } %50, 1
  store i32 %52, i32* %10, align 4
  br label %146

53:                                               ; preds = %35
  %54 = landingpad { i8*, i32 }
          cleanup
  %55 = extractvalue { i8*, i32 } %54, 0
  store i8* %55, i8** %9, align 8
  %56 = extractvalue { i8*, i32 } %54, 1
  store i32 %56, i32* %10, align 4
  br label %66

57:                                               ; preds = %42
  %58 = landingpad { i8*, i32 }
          cleanup
  %59 = extractvalue { i8*, i32 } %58, 0
  store i8* %59, i8** %9, align 8
  %60 = extractvalue { i8*, i32 } %58, 1
  store i32 %60, i32* %10, align 4
  br label %65

61:                                               ; preds = %44, %43
  %62 = landingpad { i8*, i32 }
          cleanup
  %63 = extractvalue { i8*, i32 } %62, 0
  store i8* %63, i8** %9, align 8
  %64 = extractvalue { i8*, i32 } %62, 1
  store i32 %64, i32* %10, align 4
  call void @_ZNSt7__cxx1112basic_stringIcSt11char_traitsIcESaIcEED1Ev(%"class.std::__cxx11::basic_string"* %11) #3
  br label %65

65:                                               ; preds = %61, %57
  call void @_ZNSt7__cxx1112basic_stringIcSt11char_traitsIcESaIcEED1Ev(%"class.std::__cxx11::basic_string"* %12) #3
  br label %66

66:                                               ; preds = %65, %53
  %67 = load i1, i1* %13, align 1
  br i1 %67, label %68, label %69

68:                                               ; preds = %66
  call void @__cxa_free_exception(i8* %36) #3
  br label %69

69:                                               ; preds = %68, %66
  br label %146

70:                                               ; preds = %34
  %71 = invoke zeroext i1 @_ZN4mini10TypedValue6isNullEv(%"class.mini::TypedValue"* %7)
          to label %72 unwind label %49

72:                                               ; preds = %70
  br i1 %71, label %73, label %100

73:                                               ; preds = %72
  %74 = call i8* @__cxa_allocate_exception(i64 16) #3
  store i1 true, i1* %16, align 1
  %75 = bitcast i8* %74 to %"class.std::runtime_error"*
  %76 = load %"class.ast::DotExpression"*, %"class.ast::DotExpression"** %6, align 8
  %77 = bitcast %"class.ast::DotExpression"* %76 to %"class.ast::Expression"*
  %78 = getelementptr inbounds %"class.ast::Expression", %"class.ast::Expression"* %77, i32 0, i32 1
  %79 = load i32, i32* %78, align 8
  invoke void @_ZNSt7__cxx119to_stringEi(%"class.std::__cxx11::basic_string"* sret %15, i32 %79)
          to label %80 unwind label %83

80:                                               ; preds = %73
  invoke void @_ZStplIcSt11char_traitsIcESaIcEENSt7__cxx1112basic_stringIT_T0_T1_EEOS8_PKS5_(%"class.std::__cxx11::basic_string"* sret %14, %"class.std::__cxx11::basic_string"* dereferenceable(32) %15, i8* getelementptr inbounds ([30 x i8], [30 x i8]* @.str.9, i64 0, i64 0))
          to label %81 unwind label %87

81:                                               ; preds = %80
  invoke void @_ZNSt13runtime_errorC1ERKNSt7__cxx1112basic_stringIcSt11char_traitsIcESaIcEEE(%"class.std::runtime_error"* %75, %"class.std::__cxx11::basic_string"* dereferenceable(32) %14)
          to label %82 unwind label %91

82:                                               ; preds = %81
  store i1 false, i1* %16, align 1
  invoke void @__cxa_throw(i8* %74, i8* bitcast (i8** @_ZTISt13runtime_error to i8*), i8* bitcast (void (%"class.std::runtime_error"*)* @_ZNSt13runtime_errorD1Ev to i8*)) #16
          to label %152 unwind label %91

83:                                               ; preds = %73
  %84 = landingpad { i8*, i32 }
          cleanup
  %85 = extractvalue { i8*, i32 } %84, 0
  store i8* %85, i8** %9, align 8
  %86 = extractvalue { i8*, i32 } %84, 1
  store i32 %86, i32* %10, align 4
  br label %96

87:                                               ; preds = %80
  %88 = landingpad { i8*, i32 }
          cleanup
  %89 = extractvalue { i8*, i32 } %88, 0
  store i8* %89, i8** %9, align 8
  %90 = extractvalue { i8*, i32 } %88, 1
  store i32 %90, i32* %10, align 4
  br label %95

91:                                               ; preds = %82, %81
  %92 = landingpad { i8*, i32 }
          cleanup
  %93 = extractvalue { i8*, i32 } %92, 0
  store i8* %93, i8** %9, align 8
  %94 = extractvalue { i8*, i32 } %92, 1
  store i32 %94, i32* %10, align 4
  call void @_ZNSt7__cxx1112basic_stringIcSt11char_traitsIcESaIcEED1Ev(%"class.std::__cxx11::basic_string"* %14) #3
  br label %95

95:                                               ; preds = %91, %87
  call void @_ZNSt7__cxx1112basic_stringIcSt11char_traitsIcESaIcEED1Ev(%"class.std::__cxx11::basic_string"* %15) #3
  br label %96

96:                                               ; preds = %95, %83
  %97 = load i1, i1* %16, align 1
  br i1 %97, label %98, label %99

98:                                               ; preds = %96
  call void @__cxa_free_exception(i8* %74) #3
  br label %99

99:                                               ; preds = %98, %96
  br label %146

100:                                              ; preds = %72
  br label %101

101:                                              ; preds = %100
  %102 = invoke %"class.std::map"* @_ZN4mini10TypedValue3getIPSt3mapINSt7__cxx1112basic_stringIcSt11char_traitsIcESaIcEEESt10shared_ptrIS0_ESt4lessIS8_ESaISt4pairIKS8_SA_EEEEET_v(%"class.mini::TypedValue"* %7)
          to label %103 unwind label %49

103:                                              ; preds = %101
  store %"class.std::map"* %102, %"class.std::map"** %17, align 8
  %104 = load %"class.std::map"*, %"class.std::map"** %17, align 8
  %105 = load %"class.ast::DotExpression"*, %"class.ast::DotExpression"** %6, align 8
  %106 = getelementptr inbounds %"class.ast::DotExpression", %"class.ast::DotExpression"* %105, i32 0, i32 2
  %107 = invoke i64 @_ZNKSt3mapINSt7__cxx1112basic_stringIcSt11char_traitsIcESaIcEEESt10shared_ptrIN4mini10TypedValueEESt4lessIS5_ESaISt4pairIKS5_S9_EEE5countERSD_(%"class.std::map"* %104, %"class.std::__cxx11::basic_string"* dereferenceable(32) %106)
          to label %108 unwind label %49

108:                                              ; preds = %103
  %109 = icmp ne i64 %107, 0
  br i1 %109, label %110, label %119

110:                                              ; preds = %108
  %111 = load %"class.std::map"*, %"class.std::map"** %17, align 8
  %112 = load %"class.ast::DotExpression"*, %"class.ast::DotExpression"** %6, align 8
  %113 = getelementptr inbounds %"class.ast::DotExpression", %"class.ast::DotExpression"* %112, i32 0, i32 2
  %114 = invoke dereferenceable(16) %"class.std::shared_ptr.47"* @_ZNSt3mapINSt7__cxx1112basic_stringIcSt11char_traitsIcESaIcEEESt10shared_ptrIN4mini10TypedValueEESt4lessIS5_ESaISt4pairIKS5_S9_EEE2atERSD_(%"class.std::map"* %111, %"class.std::__cxx11::basic_string"* dereferenceable(32) %113)
          to label %115 unwind label %49

115:                                              ; preds = %110
  %116 = bitcast %"class.std::shared_ptr.47"* %114 to %"class.std::__shared_ptr_access.49"*
  %117 = call dereferenceable(48) %"class.mini::TypedValue"* @_ZNKSt19__shared_ptr_accessIN4mini10TypedValueELN9__gnu_cxx12_Lock_policyE2ELb0ELb0EEdeEv(%"class.std::__shared_ptr_access.49"* %116) #3
  invoke void @_ZN8antlrcpp3AnyC2IRN4mini10TypedValueEEEOT_(%"struct.antlrcpp::Any"* %0, %"class.mini::TypedValue"* dereferenceable(48) %117)
          to label %118 unwind label %49

118:                                              ; preds = %115
  call void @_ZN4mini10TypedValueD2Ev(%"class.mini::TypedValue"* %7) #3
  ret void

119:                                              ; preds = %108
  %120 = call i8* @__cxa_allocate_exception(i64 16) #3
  store i1 true, i1* %20, align 1
  %121 = bitcast i8* %120 to %"class.std::runtime_error"*
  %122 = load %"class.ast::DotExpression"*, %"class.ast::DotExpression"** %6, align 8
  %123 = bitcast %"class.ast::DotExpression"* %122 to %"class.ast::Expression"*
  %124 = getelementptr inbounds %"class.ast::Expression", %"class.ast::Expression"* %123, i32 0, i32 1
  %125 = load i32, i32* %124, align 8
  invoke void @_ZNSt7__cxx119to_stringEi(%"class.std::__cxx11::basic_string"* sret %19, i32 %125)
          to label %126 unwind label %129

126:                                              ; preds = %119
  invoke void @_ZStplIcSt11char_traitsIcESaIcEENSt7__cxx1112basic_stringIT_T0_T1_EEOS8_PKS5_(%"class.std::__cxx11::basic_string"* sret %18, %"class.std::__cxx11::basic_string"* dereferenceable(32) %19, i8* getelementptr inbounds ([34 x i8], [34 x i8]* @.str.10, i64 0, i64 0))
          to label %127 unwind label %133

127:                                              ; preds = %126
  invoke void @_ZNSt13runtime_errorC1ERKNSt7__cxx1112basic_stringIcSt11char_traitsIcESaIcEEE(%"class.std::runtime_error"* %121, %"class.std::__cxx11::basic_string"* dereferenceable(32) %18)
          to label %128 unwind label %137

128:                                              ; preds = %127
  store i1 false, i1* %20, align 1
  invoke void @__cxa_throw(i8* %120, i8* bitcast (i8** @_ZTISt13runtime_error to i8*), i8* bitcast (void (%"class.std::runtime_error"*)* @_ZNSt13runtime_errorD1Ev to i8*)) #16
          to label %152 unwind label %137

129:                                              ; preds = %119
  %130 = landingpad { i8*, i32 }
          cleanup
  %131 = extractvalue { i8*, i32 } %130, 0
  store i8* %131, i8** %9, align 8
  %132 = extractvalue { i8*, i32 } %130, 1
  store i32 %132, i32* %10, align 4
  br label %142

133:                                              ; preds = %126
  %134 = landingpad { i8*, i32 }
          cleanup
  %135 = extractvalue { i8*, i32 } %134, 0
  store i8* %135, i8** %9, align 8
  %136 = extractvalue { i8*, i32 } %134, 1
  store i32 %136, i32* %10, align 4
  br label %141

137:                                              ; preds = %128, %127
  %138 = landingpad { i8*, i32 }
          cleanup
  %139 = extractvalue { i8*, i32 } %138, 0
  store i8* %139, i8** %9, align 8
  %140 = extractvalue { i8*, i32 } %138, 1
  store i32 %140, i32* %10, align 4
  call void @_ZNSt7__cxx1112basic_stringIcSt11char_traitsIcESaIcEED1Ev(%"class.std::__cxx11::basic_string"* %18) #3
  br label %141

141:                                              ; preds = %137, %133
  call void @_ZNSt7__cxx1112basic_stringIcSt11char_traitsIcESaIcEED1Ev(%"class.std::__cxx11::basic_string"* %19) #3
  br label %142

142:                                              ; preds = %141, %129
  %143 = load i1, i1* %20, align 1
  br i1 %143, label %144, label %145

144:                                              ; preds = %142
  call void @__cxa_free_exception(i8* %120) #3
  br label %145

145:                                              ; preds = %144, %142
  br label %146

146:                                              ; preds = %145, %99, %69, %49
  call void @_ZN4mini10TypedValueD2Ev(%"class.mini::TypedValue"* %7) #3
  br label %147

147:                                              ; preds = %146, %45
  %148 = load i8*, i8** %9, align 8
  %149 = load i32, i32* %10, align 4
  %150 = insertvalue { i8*, i32 } undef, i8* %148, 0
  %151 = insertvalue { i8*, i32 } %150, i32 %149, 1
  resume { i8*, i32 } %151

152:                                              ; preds = %128, %82, %44
  unreachable
}

; Function Attrs: noinline optnone uwtable
define linkonce_odr dso_local void @_ZStplIcSt11char_traitsIcESaIcEENSt7__cxx1112basic_stringIT_T0_T1_EEOS8_PKS5_(%"class.std::__cxx11::basic_string"* noalias sret %0, %"class.std::__cxx11::basic_string"* dereferenceable(32) %1, i8* %2) #4 comdat {
  %4 = alloca i8*, align 8
  %5 = alloca %"class.std::__cxx11::basic_string"*, align 8
  %6 = alloca i8*, align 8
  %7 = bitcast %"class.std::__cxx11::basic_string"* %0 to i8*
  store i8* %7, i8** %4, align 8
  store %"class.std::__cxx11::basic_string"* %1, %"class.std::__cxx11::basic_string"** %5, align 8
  store i8* %2, i8** %6, align 8
  %8 = load %"class.std::__cxx11::basic_string"*, %"class.std::__cxx11::basic_string"** %5, align 8
  %9 = load i8*, i8** %6, align 8
  %10 = call dereferenceable(32) %"class.std::__cxx11::basic_string"* @_ZNSt7__cxx1112basic_stringIcSt11char_traitsIcESaIcEE6appendEPKc(%"class.std::__cxx11::basic_string"* %8, i8* %9)
  %11 = call dereferenceable(32) %"class.std::__cxx11::basic_string"* @_ZSt4moveIRNSt7__cxx1112basic_stringIcSt11char_traitsIcESaIcEEEEONSt16remove_referenceIT_E4typeEOS8_(%"class.std::__cxx11::basic_string"* dereferenceable(32) %10) #3
  call void @_ZNSt7__cxx1112basic_stringIcSt11char_traitsIcESaIcEEC1EOS4_(%"class.std::__cxx11::basic_string"* %0, %"class.std::__cxx11::basic_string"* dereferenceable(32) %11) #3
  ret void
}

declare dso_local void @_ZNSt13runtime_errorC1ERKNSt7__cxx1112basic_stringIcSt11char_traitsIcESaIcEEE(%"class.std::runtime_error"*, %"class.std::__cxx11::basic_string"* dereferenceable(32)) unnamed_addr #1

; Function Attrs: noinline nounwind optnone uwtable
define linkonce_odr dso_local dereferenceable(48) %"class.mini::TypedValue"* @_ZNKSt19__shared_ptr_accessIN4mini10TypedValueELN9__gnu_cxx12_Lock_policyE2ELb0ELb0EEdeEv(%"class.std::__shared_ptr_access.49"* %0) #5 comdat align 2 {
  %2 = alloca %"class.std::__shared_ptr_access.49"*, align 8
  store %"class.std::__shared_ptr_access.49"* %0, %"class.std::__shared_ptr_access.49"** %2, align 8
  %3 = load %"class.std::__shared_ptr_access.49"*, %"class.std::__shared_ptr_access.49"** %2, align 8
  %4 = call %"class.mini::TypedValue"* @_ZNKSt19__shared_ptr_accessIN4mini10TypedValueELN9__gnu_cxx12_Lock_policyE2ELb0ELb0EE6_M_getEv(%"class.std::__shared_ptr_access.49"* %3) #3
  ret %"class.mini::TypedValue"* %4
}

; Function Attrs: noinline optnone uwtable
define linkonce_odr dso_local void @_ZN8antlrcpp3AnyC2IRN4mini10TypedValueEEEOT_(%"struct.antlrcpp::Any"* %0, %"class.mini::TypedValue"* dereferenceable(48) %1) unnamed_addr #4 comdat align 2 personality i8* bitcast (i32 (...)* @__gxx_personality_v0 to i8*) {
  %3 = alloca %"struct.antlrcpp::Any"*, align 8
  %4 = alloca %"class.mini::TypedValue"*, align 8
  %5 = alloca i8*
  %6 = alloca i32
  store %"struct.antlrcpp::Any"* %0, %"struct.antlrcpp::Any"** %3, align 8
  store %"class.mini::TypedValue"* %1, %"class.mini::TypedValue"** %4, align 8
  %7 = load %"struct.antlrcpp::Any"*, %"struct.antlrcpp::Any"** %3, align 8
  %8 = bitcast %"struct.antlrcpp::Any"* %7 to i32 (...)***
  store i32 (...)** bitcast (i8** getelementptr inbounds ({ [5 x i8*] }, { [5 x i8*] }* @_ZTVN8antlrcpp3AnyE, i32 0, inrange i32 0, i32 2) to i32 (...)**), i32 (...)*** %8, align 8
  %9 = getelementptr inbounds %"struct.antlrcpp::Any", %"struct.antlrcpp::Any"* %7, i32 0, i32 1
  %10 = call i8* @_Znwm(i64 56) #17
  %11 = bitcast i8* %10 to %"struct.antlrcpp::Any::Derived.98"*
  %12 = load %"class.mini::TypedValue"*, %"class.mini::TypedValue"** %4, align 8
  %13 = call dereferenceable(48) %"class.mini::TypedValue"* @_ZSt7forwardIRN4mini10TypedValueEEOT_RNSt16remove_referenceIS3_E4typeE(%"class.mini::TypedValue"* dereferenceable(48) %12) #3
  invoke void @_ZN8antlrcpp3Any7DerivedIN4mini10TypedValueEEC2IRS3_EEOT_(%"struct.antlrcpp::Any::Derived.98"* %11, %"class.mini::TypedValue"* dereferenceable(48) %13)
          to label %14 unwind label %16

14:                                               ; preds = %2
  %15 = bitcast %"struct.antlrcpp::Any::Derived.98"* %11 to %"struct.antlrcpp::Any::Base"*
  store %"struct.antlrcpp::Any::Base"* %15, %"struct.antlrcpp::Any::Base"** %9, align 8
  ret void

16:                                               ; preds = %2
  %17 = landingpad { i8*, i32 }
          cleanup
  %18 = extractvalue { i8*, i32 } %17, 0
  store i8* %18, i8** %5, align 8
  %19 = extractvalue { i8*, i32 } %17, 1
  store i32 %19, i32* %6, align 4
  call void @_ZdlPv(i8* %10) #18
  br label %20

20:                                               ; preds = %16
  %21 = load i8*, i8** %5, align 8
  %22 = load i32, i32* %6, align 4
  %23 = insertvalue { i8*, i32 } undef, i8* %21, 0
  %24 = insertvalue { i8*, i32 } %23, i32 %22, 1
  resume { i8*, i32 } %24
}

; Function Attrs: noinline optnone uwtable
define dso_local void @_ZN4mini15MiniInterpreter5visitEPN3ast15FalseExpressionE(%"struct.antlrcpp::Any"* noalias sret %0, %"class.mini::MiniInterpreter"* %1, %"class.ast::FalseExpression"* %2) unnamed_addr #4 align 2 personality i8* bitcast (i32 (...)* @__gxx_personality_v0 to i8*) {
  %4 = alloca i8*, align 8
  %5 = alloca %"class.mini::MiniInterpreter"*, align 8
  %6 = alloca %"class.ast::FalseExpression"*, align 8
  %7 = alloca %"class.mini::TypedValue", align 8
  %8 = alloca %"class.std::__cxx11::basic_string", align 8
  %9 = alloca %"struct.antlrcpp::Any", align 8
  %10 = alloca i8, align 1
  %11 = alloca i8*
  %12 = alloca i32
  %13 = bitcast %"struct.antlrcpp::Any"* %0 to i8*
  store i8* %13, i8** %4, align 8
  store %"class.mini::MiniInterpreter"* %1, %"class.mini::MiniInterpreter"** %5, align 8
  store %"class.ast::FalseExpression"* %2, %"class.ast::FalseExpression"** %6, align 8
  %14 = load %"class.mini::MiniInterpreter"*, %"class.mini::MiniInterpreter"** %5, align 8
  call void @_ZN3ast8BoolType4nameB5cxx11Ev(%"class.std::__cxx11::basic_string"* sret %8)
  store i8 0, i8* %10, align 1
  invoke void @_ZN8antlrcpp3AnyC2IbEEOT_(%"struct.antlrcpp::Any"* %9, i8* dereferenceable(1) %10)
          to label %15 unwind label %18

15:                                               ; preds = %3
  invoke void @_ZN4mini10TypedValueC1ENSt7__cxx1112basic_stringIcSt11char_traitsIcESaIcEEEN8antlrcpp3AnyE(%"class.mini::TypedValue"* %7, %"class.std::__cxx11::basic_string"* %8, %"struct.antlrcpp::Any"* %9)
          to label %16 unwind label %22

16:                                               ; preds = %15
  invoke void @_ZN8antlrcpp3AnyC2IN4mini10TypedValueEEEOT_(%"struct.antlrcpp::Any"* %0, %"class.mini::TypedValue"* dereferenceable(48) %7)
          to label %17 unwind label %26

17:                                               ; preds = %16
  call void @_ZN4mini10TypedValueD2Ev(%"class.mini::TypedValue"* %7) #3
  call void @_ZN8antlrcpp3AnyD1Ev(%"struct.antlrcpp::Any"* %9) #3
  call void @_ZNSt7__cxx1112basic_stringIcSt11char_traitsIcESaIcEED1Ev(%"class.std::__cxx11::basic_string"* %8) #3
  ret void

18:                                               ; preds = %3
  %19 = landingpad { i8*, i32 }
          cleanup
  %20 = extractvalue { i8*, i32 } %19, 0
  store i8* %20, i8** %11, align 8
  %21 = extractvalue { i8*, i32 } %19, 1
  store i32 %21, i32* %12, align 4
  br label %31

22:                                               ; preds = %15
  %23 = landingpad { i8*, i32 }
          cleanup
  %24 = extractvalue { i8*, i32 } %23, 0
  store i8* %24, i8** %11, align 8
  %25 = extractvalue { i8*, i32 } %23, 1
  store i32 %25, i32* %12, align 4
  br label %30

26:                                               ; preds = %16
  %27 = landingpad { i8*, i32 }
          cleanup
  %28 = extractvalue { i8*, i32 } %27, 0
  store i8* %28, i8** %11, align 8
  %29 = extractvalue { i8*, i32 } %27, 1
  store i32 %29, i32* %12, align 4
  call void @_ZN4mini10TypedValueD2Ev(%"class.mini::TypedValue"* %7) #3
  br label %30

30:                                               ; preds = %26, %22
  call void @_ZN8antlrcpp3AnyD1Ev(%"struct.antlrcpp::Any"* %9) #3
  br label %31

31:                                               ; preds = %30, %18
  call void @_ZNSt7__cxx1112basic_stringIcSt11char_traitsIcESaIcEED1Ev(%"class.std::__cxx11::basic_string"* %8) #3
  br label %32

32:                                               ; preds = %31
  %33 = load i8*, i8** %11, align 8
  %34 = load i32, i32* %12, align 4
  %35 = insertvalue { i8*, i32 } undef, i8* %33, 0
  %36 = insertvalue { i8*, i32 } %35, i32 %34, 1
  resume { i8*, i32 } %36
}

; Function Attrs: noinline optnone uwtable
define dso_local void @_ZN4mini15MiniInterpreter5visitEPN3ast8FunctionE(%"struct.antlrcpp::Any"* noalias sret %0, %"class.mini::MiniInterpreter"* %1, %"class.ast::Function"* %2) unnamed_addr #4 align 2 personality i8* bitcast (i32 (...)* @__gxx_personality_v0 to i8*) {
  %4 = alloca i8*, align 8
  %5 = alloca %"class.mini::MiniInterpreter"*, align 8
  %6 = alloca %"class.ast::Function"*, align 8
  %7 = alloca %"class.std::vector.24"*, align 8
  %8 = alloca %"class.__gnu_cxx::__normal_iterator.67", align 8
  %9 = alloca %"class.__gnu_cxx::__normal_iterator.67", align 8
  %10 = alloca %"class.std::shared_ptr.29", align 8
  %11 = alloca %"class.std::shared_ptr.47", align 8
  %12 = alloca %"struct.antlrcpp::Any", align 8
  %13 = alloca i8*
  %14 = alloca i32
  %15 = bitcast %"struct.antlrcpp::Any"* %0 to i8*
  store i8* %15, i8** %4, align 8
  store %"class.mini::MiniInterpreter"* %1, %"class.mini::MiniInterpreter"** %5, align 8
  store %"class.ast::Function"* %2, %"class.ast::Function"** %6, align 8
  %16 = load %"class.mini::MiniInterpreter"*, %"class.mini::MiniInterpreter"** %5, align 8
  %17 = load %"class.ast::Function"*, %"class.ast::Function"** %6, align 8
  %18 = getelementptr inbounds %"class.ast::Function", %"class.ast::Function"* %17, i32 0, i32 4
  store %"class.std::vector.24"* %18, %"class.std::vector.24"** %7, align 8
  %19 = load %"class.std::vector.24"*, %"class.std::vector.24"** %7, align 8
  %20 = call %"class.std::shared_ptr.29"* @_ZNSt6vectorISt10shared_ptrIN3ast11DeclarationEESaIS3_EE5beginEv(%"class.std::vector.24"* %19) #3
  %21 = getelementptr inbounds %"class.__gnu_cxx::__normal_iterator.67", %"class.__gnu_cxx::__normal_iterator.67"* %8, i32 0, i32 0
  store %"class.std::shared_ptr.29"* %20, %"class.std::shared_ptr.29"** %21, align 8
  %22 = load %"class.std::vector.24"*, %"class.std::vector.24"** %7, align 8
  %23 = call %"class.std::shared_ptr.29"* @_ZNSt6vectorISt10shared_ptrIN3ast11DeclarationEESaIS3_EE3endEv(%"class.std::vector.24"* %22) #3
  %24 = getelementptr inbounds %"class.__gnu_cxx::__normal_iterator.67", %"class.__gnu_cxx::__normal_iterator.67"* %9, i32 0, i32 0
  store %"class.std::shared_ptr.29"* %23, %"class.std::shared_ptr.29"** %24, align 8
  br label %25

25:                                               ; preds = %42, %3
  %26 = call zeroext i1 @_ZN9__gnu_cxxneIPSt10shared_ptrIN3ast11DeclarationEESt6vectorIS4_SaIS4_EEEEbRKNS_17__normal_iteratorIT_T0_EESE_(%"class.__gnu_cxx::__normal_iterator.67"* dereferenceable(8) %8, %"class.__gnu_cxx::__normal_iterator.67"* dereferenceable(8) %9) #3
  br i1 %26, label %27, label %57

27:                                               ; preds = %25
  %28 = call dereferenceable(16) %"class.std::shared_ptr.29"* @_ZNK9__gnu_cxx17__normal_iteratorIPSt10shared_ptrIN3ast11DeclarationEESt6vectorIS4_SaIS4_EEEdeEv(%"class.__gnu_cxx::__normal_iterator.67"* %8) #3
  call void @_ZNSt10shared_ptrIN3ast11DeclarationEEC2ERKS2_(%"class.std::shared_ptr.29"* %10, %"class.std::shared_ptr.29"* dereferenceable(16) %28) #3
  %29 = bitcast %"class.std::shared_ptr.29"* %10 to %"class.std::__shared_ptr_access.31"*
  %30 = call %"class.ast::Declaration"* @_ZNKSt19__shared_ptr_accessIN3ast11DeclarationELN9__gnu_cxx12_Lock_policyE2ELb0ELb0EEptEv(%"class.std::__shared_ptr_access.31"* %29) #3
  %31 = bitcast %"class.mini::MiniInterpreter"* %16 to %"class.ast::ASTVisitor"*
  invoke void @_ZN3ast11Declaration6acceptEPNS_10ASTVisitorE(%"struct.antlrcpp::Any"* sret %12, %"class.ast::Declaration"* %30, %"class.ast::ASTVisitor"* %31)
          to label %32 unwind label %44

32:                                               ; preds = %27
  invoke void @_ZN8antlrcpp3AnycvT_ISt10shared_ptrIN4mini10TypedValueEEEEv(%"class.std::shared_ptr.47"* sret %11, %"struct.antlrcpp::Any"* %12)
          to label %33 unwind label %48

33:                                               ; preds = %32
  call void @_ZN8antlrcpp3AnyD1Ev(%"struct.antlrcpp::Any"* %12) #3
  %34 = getelementptr inbounds %"class.mini::MiniInterpreter", %"class.mini::MiniInterpreter"* %16, i32 0, i32 2
  %35 = call dereferenceable(48) %"class.std::map"* @_ZNSt6vectorISt3mapINSt7__cxx1112basic_stringIcSt11char_traitsIcESaIcEEESt10shared_ptrIN4mini10TypedValueEESt4lessIS6_ESaISt4pairIKS6_SA_EEESaISH_EE4backEv(%"class.std::vector"* %34) #3
  %36 = bitcast %"class.std::shared_ptr.29"* %10 to %"class.std::__shared_ptr_access.31"*
  %37 = call %"class.ast::Declaration"* @_ZNKSt19__shared_ptr_accessIN3ast11DeclarationELN9__gnu_cxx12_Lock_policyE2ELb0ELb0EEptEv(%"class.std::__shared_ptr_access.31"* %36) #3
  %38 = getelementptr inbounds %"class.ast::Declaration", %"class.ast::Declaration"* %37, i32 0, i32 2
  %39 = invoke dereferenceable(16) %"class.std::shared_ptr.47"* @_ZNSt3mapINSt7__cxx1112basic_stringIcSt11char_traitsIcESaIcEEESt10shared_ptrIN4mini10TypedValueEESt4lessIS5_ESaISt4pairIKS5_S9_EEEixERSD_(%"class.std::map"* %35, %"class.std::__cxx11::basic_string"* dereferenceable(32) %38)
          to label %40 unwind label %52

40:                                               ; preds = %33
  %41 = call dereferenceable(16) %"class.std::shared_ptr.47"* @_ZNSt10shared_ptrIN4mini10TypedValueEEaSERKS2_(%"class.std::shared_ptr.47"* %39, %"class.std::shared_ptr.47"* dereferenceable(16) %11) #3
  call void @_ZNSt10shared_ptrIN4mini10TypedValueEED2Ev(%"class.std::shared_ptr.47"* %11) #3
  call void @_ZNSt10shared_ptrIN3ast11DeclarationEED2Ev(%"class.std::shared_ptr.29"* %10) #3
  br label %42

42:                                               ; preds = %40
  %43 = call dereferenceable(8) %"class.__gnu_cxx::__normal_iterator.67"* @_ZN9__gnu_cxx17__normal_iteratorIPSt10shared_ptrIN3ast11DeclarationEESt6vectorIS4_SaIS4_EEEppEv(%"class.__gnu_cxx::__normal_iterator.67"* %8) #3
  br label %25

44:                                               ; preds = %27
  %45 = landingpad { i8*, i32 }
          cleanup
  %46 = extractvalue { i8*, i32 } %45, 0
  store i8* %46, i8** %13, align 8
  %47 = extractvalue { i8*, i32 } %45, 1
  store i32 %47, i32* %14, align 4
  br label %56

48:                                               ; preds = %32
  %49 = landingpad { i8*, i32 }
          cleanup
  %50 = extractvalue { i8*, i32 } %49, 0
  store i8* %50, i8** %13, align 8
  %51 = extractvalue { i8*, i32 } %49, 1
  store i32 %51, i32* %14, align 4
  call void @_ZN8antlrcpp3AnyD1Ev(%"struct.antlrcpp::Any"* %12) #3
  br label %56

52:                                               ; preds = %33
  %53 = landingpad { i8*, i32 }
          cleanup
  %54 = extractvalue { i8*, i32 } %53, 0
  store i8* %54, i8** %13, align 8
  %55 = extractvalue { i8*, i32 } %53, 1
  store i32 %55, i32* %14, align 4
  call void @_ZNSt10shared_ptrIN4mini10TypedValueEED2Ev(%"class.std::shared_ptr.47"* %11) #3
  br label %56

56:                                               ; preds = %52, %48, %44
  call void @_ZNSt10shared_ptrIN3ast11DeclarationEED2Ev(%"class.std::shared_ptr.29"* %10) #3
  br label %67

57:                                               ; preds = %25
  %58 = load %"class.ast::Function"*, %"class.ast::Function"** %6, align 8
  %59 = getelementptr inbounds %"class.ast::Function", %"class.ast::Function"* %58, i32 0, i32 5
  %60 = bitcast %"class.std::shared_ptr.43"* %59 to %"class.std::__shared_ptr_access.45"*
  %61 = call %"class.ast::Statement"* @_ZNKSt19__shared_ptr_accessIN3ast9StatementELN9__gnu_cxx12_Lock_policyE2ELb0ELb0EEptEv(%"class.std::__shared_ptr_access.45"* %60) #3
  %62 = bitcast %"class.mini::MiniInterpreter"* %16 to %"class.ast::ASTVisitor"*
  %63 = bitcast %"class.ast::Statement"* %61 to void (%"struct.antlrcpp::Any"*, %"class.ast::Statement"*, %"class.ast::ASTVisitor"*)***
  %64 = load void (%"struct.antlrcpp::Any"*, %"class.ast::Statement"*, %"class.ast::ASTVisitor"*)**, void (%"struct.antlrcpp::Any"*, %"class.ast::Statement"*, %"class.ast::ASTVisitor"*)*** %63, align 8
  %65 = getelementptr inbounds void (%"struct.antlrcpp::Any"*, %"class.ast::Statement"*, %"class.ast::ASTVisitor"*)*, void (%"struct.antlrcpp::Any"*, %"class.ast::Statement"*, %"class.ast::ASTVisitor"*)** %64, i64 0
  %66 = load void (%"struct.antlrcpp::Any"*, %"class.ast::Statement"*, %"class.ast::ASTVisitor"*)*, void (%"struct.antlrcpp::Any"*, %"class.ast::Statement"*, %"class.ast::ASTVisitor"*)** %65, align 8
  call void %66(%"struct.antlrcpp::Any"* sret %0, %"class.ast::Statement"* %61, %"class.ast::ASTVisitor"* %62)
  ret void

67:                                               ; preds = %56
  %68 = load i8*, i8** %13, align 8
  %69 = load i32, i32* %14, align 4
  %70 = insertvalue { i8*, i32 } undef, i8* %68, 0
  %71 = insertvalue { i8*, i32 } %70, i32 %69, 1
  resume { i8*, i32 } %71
}

; Function Attrs: noinline nounwind optnone uwtable
define linkonce_odr dso_local %"class.std::shared_ptr.29"* @_ZNSt6vectorISt10shared_ptrIN3ast11DeclarationEESaIS3_EE5beginEv(%"class.std::vector.24"* %0) #5 comdat align 2 {
  %2 = alloca %"class.__gnu_cxx::__normal_iterator.67", align 8
  %3 = alloca %"class.std::vector.24"*, align 8
  store %"class.std::vector.24"* %0, %"class.std::vector.24"** %3, align 8
  %4 = load %"class.std::vector.24"*, %"class.std::vector.24"** %3, align 8
  %5 = bitcast %"class.std::vector.24"* %4 to %"struct.std::_Vector_base.25"*
  %6 = getelementptr inbounds %"struct.std::_Vector_base.25", %"struct.std::_Vector_base.25"* %5, i32 0, i32 0
  %7 = getelementptr inbounds %"struct.std::_Vector_base<std::shared_ptr<ast::Declaration>, std::allocator<std::shared_ptr<ast::Declaration> > >::_Vector_impl", %"struct.std::_Vector_base<std::shared_ptr<ast::Declaration>, std::allocator<std::shared_ptr<ast::Declaration> > >::_Vector_impl"* %6, i32 0, i32 0
  call void @_ZN9__gnu_cxx17__normal_iteratorIPSt10shared_ptrIN3ast11DeclarationEESt6vectorIS4_SaIS4_EEEC2ERKS5_(%"class.__gnu_cxx::__normal_iterator.67"* %2, %"class.std::shared_ptr.29"** dereferenceable(8) %7) #3
  %8 = getelementptr inbounds %"class.__gnu_cxx::__normal_iterator.67", %"class.__gnu_cxx::__normal_iterator.67"* %2, i32 0, i32 0
  %9 = load %"class.std::shared_ptr.29"*, %"class.std::shared_ptr.29"** %8, align 8
  ret %"class.std::shared_ptr.29"* %9
}

; Function Attrs: noinline nounwind optnone uwtable
define linkonce_odr dso_local %"class.std::shared_ptr.29"* @_ZNSt6vectorISt10shared_ptrIN3ast11DeclarationEESaIS3_EE3endEv(%"class.std::vector.24"* %0) #5 comdat align 2 {
  %2 = alloca %"class.__gnu_cxx::__normal_iterator.67", align 8
  %3 = alloca %"class.std::vector.24"*, align 8
  store %"class.std::vector.24"* %0, %"class.std::vector.24"** %3, align 8
  %4 = load %"class.std::vector.24"*, %"class.std::vector.24"** %3, align 8
  %5 = bitcast %"class.std::vector.24"* %4 to %"struct.std::_Vector_base.25"*
  %6 = getelementptr inbounds %"struct.std::_Vector_base.25", %"struct.std::_Vector_base.25"* %5, i32 0, i32 0
  %7 = getelementptr inbounds %"struct.std::_Vector_base<std::shared_ptr<ast::Declaration>, std::allocator<std::shared_ptr<ast::Declaration> > >::_Vector_impl", %"struct.std::_Vector_base<std::shared_ptr<ast::Declaration>, std::allocator<std::shared_ptr<ast::Declaration> > >::_Vector_impl"* %6, i32 0, i32 1
  call void @_ZN9__gnu_cxx17__normal_iteratorIPSt10shared_ptrIN3ast11DeclarationEESt6vectorIS4_SaIS4_EEEC2ERKS5_(%"class.__gnu_cxx::__normal_iterator.67"* %2, %"class.std::shared_ptr.29"** dereferenceable(8) %7) #3
  %8 = getelementptr inbounds %"class.__gnu_cxx::__normal_iterator.67", %"class.__gnu_cxx::__normal_iterator.67"* %2, i32 0, i32 0
  %9 = load %"class.std::shared_ptr.29"*, %"class.std::shared_ptr.29"** %8, align 8
  ret %"class.std::shared_ptr.29"* %9
}

; Function Attrs: noinline nounwind optnone uwtable
define linkonce_odr dso_local zeroext i1 @_ZN9__gnu_cxxneIPSt10shared_ptrIN3ast11DeclarationEESt6vectorIS4_SaIS4_EEEEbRKNS_17__normal_iteratorIT_T0_EESE_(%"class.__gnu_cxx::__normal_iterator.67"* dereferenceable(8) %0, %"class.__gnu_cxx::__normal_iterator.67"* dereferenceable(8) %1) #5 comdat {
  %3 = alloca %"class.__gnu_cxx::__normal_iterator.67"*, align 8
  %4 = alloca %"class.__gnu_cxx::__normal_iterator.67"*, align 8
  store %"class.__gnu_cxx::__normal_iterator.67"* %0, %"class.__gnu_cxx::__normal_iterator.67"** %3, align 8
  store %"class.__gnu_cxx::__normal_iterator.67"* %1, %"class.__gnu_cxx::__normal_iterator.67"** %4, align 8
  %5 = load %"class.__gnu_cxx::__normal_iterator.67"*, %"class.__gnu_cxx::__normal_iterator.67"** %3, align 8
  %6 = call dereferenceable(8) %"class.std::shared_ptr.29"** @_ZNK9__gnu_cxx17__normal_iteratorIPSt10shared_ptrIN3ast11DeclarationEESt6vectorIS4_SaIS4_EEE4baseEv(%"class.__gnu_cxx::__normal_iterator.67"* %5) #3
  %7 = load %"class.std::shared_ptr.29"*, %"class.std::shared_ptr.29"** %6, align 8
  %8 = load %"class.__gnu_cxx::__normal_iterator.67"*, %"class.__gnu_cxx::__normal_iterator.67"** %4, align 8
  %9 = call dereferenceable(8) %"class.std::shared_ptr.29"** @_ZNK9__gnu_cxx17__normal_iteratorIPSt10shared_ptrIN3ast11DeclarationEESt6vectorIS4_SaIS4_EEE4baseEv(%"class.__gnu_cxx::__normal_iterator.67"* %8) #3
  %10 = load %"class.std::shared_ptr.29"*, %"class.std::shared_ptr.29"** %9, align 8
  %11 = icmp ne %"class.std::shared_ptr.29"* %7, %10
  ret i1 %11
}

; Function Attrs: noinline nounwind optnone uwtable
define linkonce_odr dso_local dereferenceable(16) %"class.std::shared_ptr.29"* @_ZNK9__gnu_cxx17__normal_iteratorIPSt10shared_ptrIN3ast11DeclarationEESt6vectorIS4_SaIS4_EEEdeEv(%"class.__gnu_cxx::__normal_iterator.67"* %0) #5 comdat align 2 {
  %2 = alloca %"class.__gnu_cxx::__normal_iterator.67"*, align 8
  store %"class.__gnu_cxx::__normal_iterator.67"* %0, %"class.__gnu_cxx::__normal_iterator.67"** %2, align 8
  %3 = load %"class.__gnu_cxx::__normal_iterator.67"*, %"class.__gnu_cxx::__normal_iterator.67"** %2, align 8
  %4 = getelementptr inbounds %"class.__gnu_cxx::__normal_iterator.67", %"class.__gnu_cxx::__normal_iterator.67"* %3, i32 0, i32 0
  %5 = load %"class.std::shared_ptr.29"*, %"class.std::shared_ptr.29"** %4, align 8
  ret %"class.std::shared_ptr.29"* %5
}

; Function Attrs: noinline nounwind optnone uwtable
define linkonce_odr dso_local void @_ZNSt10shared_ptrIN3ast11DeclarationEEC2ERKS2_(%"class.std::shared_ptr.29"* %0, %"class.std::shared_ptr.29"* dereferenceable(16) %1) unnamed_addr #5 comdat align 2 {
  %3 = alloca %"class.std::shared_ptr.29"*, align 8
  %4 = alloca %"class.std::shared_ptr.29"*, align 8
  store %"class.std::shared_ptr.29"* %0, %"class.std::shared_ptr.29"** %3, align 8
  store %"class.std::shared_ptr.29"* %1, %"class.std::shared_ptr.29"** %4, align 8
  %5 = load %"class.std::shared_ptr.29"*, %"class.std::shared_ptr.29"** %3, align 8
  %6 = bitcast %"class.std::shared_ptr.29"* %5 to %"class.std::__shared_ptr.30"*
  %7 = load %"class.std::shared_ptr.29"*, %"class.std::shared_ptr.29"** %4, align 8
  %8 = bitcast %"class.std::shared_ptr.29"* %7 to %"class.std::__shared_ptr.30"*
  call void @_ZNSt12__shared_ptrIN3ast11DeclarationELN9__gnu_cxx12_Lock_policyE2EEC2ERKS4_(%"class.std::__shared_ptr.30"* %6, %"class.std::__shared_ptr.30"* dereferenceable(16) %8) #3
  ret void
}

; Function Attrs: noinline nounwind optnone uwtable
define linkonce_odr dso_local dereferenceable(48) %"class.std::map"* @_ZNSt6vectorISt3mapINSt7__cxx1112basic_stringIcSt11char_traitsIcESaIcEEESt10shared_ptrIN4mini10TypedValueEESt4lessIS6_ESaISt4pairIKS6_SA_EEESaISH_EE4backEv(%"class.std::vector"* %0) #5 comdat align 2 {
  %2 = alloca %"class.std::vector"*, align 8
  %3 = alloca %"class.__gnu_cxx::__normal_iterator", align 8
  %4 = alloca %"class.__gnu_cxx::__normal_iterator", align 8
  store %"class.std::vector"* %0, %"class.std::vector"** %2, align 8
  %5 = load %"class.std::vector"*, %"class.std::vector"** %2, align 8
  %6 = call %"class.std::map"* @_ZNSt6vectorISt3mapINSt7__cxx1112basic_stringIcSt11char_traitsIcESaIcEEESt10shared_ptrIN4mini10TypedValueEESt4lessIS6_ESaISt4pairIKS6_SA_EEESaISH_EE3endEv(%"class.std::vector"* %5) #3
  %7 = getelementptr inbounds %"class.__gnu_cxx::__normal_iterator", %"class.__gnu_cxx::__normal_iterator"* %4, i32 0, i32 0
  store %"class.std::map"* %6, %"class.std::map"** %7, align 8
  %8 = call %"class.std::map"* @_ZNK9__gnu_cxx17__normal_iteratorIPSt3mapINSt7__cxx1112basic_stringIcSt11char_traitsIcESaIcEEESt10shared_ptrIN4mini10TypedValueEESt4lessIS7_ESaISt4pairIKS7_SB_EEESt6vectorISI_SaISI_EEEmiEl(%"class.__gnu_cxx::__normal_iterator"* %4, i64 1) #3
  %9 = getelementptr inbounds %"class.__gnu_cxx::__normal_iterator", %"class.__gnu_cxx::__normal_iterator"* %3, i32 0, i32 0
  store %"class.std::map"* %8, %"class.std::map"** %9, align 8
  %10 = call dereferenceable(48) %"class.std::map"* @_ZNK9__gnu_cxx17__normal_iteratorIPSt3mapINSt7__cxx1112basic_stringIcSt11char_traitsIcESaIcEEESt10shared_ptrIN4mini10TypedValueEESt4lessIS7_ESaISt4pairIKS7_SB_EEESt6vectorISI_SaISI_EEEdeEv(%"class.__gnu_cxx::__normal_iterator"* %3) #3
  ret %"class.std::map"* %10
}

; Function Attrs: noinline nounwind optnone uwtable
define linkonce_odr dso_local void @_ZNSt10shared_ptrIN3ast11DeclarationEED2Ev(%"class.std::shared_ptr.29"* %0) unnamed_addr #5 comdat align 2 {
  %2 = alloca %"class.std::shared_ptr.29"*, align 8
  store %"class.std::shared_ptr.29"* %0, %"class.std::shared_ptr.29"** %2, align 8
  %3 = load %"class.std::shared_ptr.29"*, %"class.std::shared_ptr.29"** %2, align 8
  %4 = bitcast %"class.std::shared_ptr.29"* %3 to %"class.std::__shared_ptr.30"*
  call void @_ZNSt12__shared_ptrIN3ast11DeclarationELN9__gnu_cxx12_Lock_policyE2EED2Ev(%"class.std::__shared_ptr.30"* %4) #3
  ret void
}

; Function Attrs: noinline nounwind optnone uwtable
define linkonce_odr dso_local dereferenceable(8) %"class.__gnu_cxx::__normal_iterator.67"* @_ZN9__gnu_cxx17__normal_iteratorIPSt10shared_ptrIN3ast11DeclarationEESt6vectorIS4_SaIS4_EEEppEv(%"class.__gnu_cxx::__normal_iterator.67"* %0) #5 comdat align 2 {
  %2 = alloca %"class.__gnu_cxx::__normal_iterator.67"*, align 8
  store %"class.__gnu_cxx::__normal_iterator.67"* %0, %"class.__gnu_cxx::__normal_iterator.67"** %2, align 8
  %3 = load %"class.__gnu_cxx::__normal_iterator.67"*, %"class.__gnu_cxx::__normal_iterator.67"** %2, align 8
  %4 = getelementptr inbounds %"class.__gnu_cxx::__normal_iterator.67", %"class.__gnu_cxx::__normal_iterator.67"* %3, i32 0, i32 0
  %5 = load %"class.std::shared_ptr.29"*, %"class.std::shared_ptr.29"** %4, align 8
  %6 = getelementptr inbounds %"class.std::shared_ptr.29", %"class.std::shared_ptr.29"* %5, i32 1
  store %"class.std::shared_ptr.29"* %6, %"class.std::shared_ptr.29"** %4, align 8
  ret %"class.__gnu_cxx::__normal_iterator.67"* %3
}

; Function Attrs: noinline optnone uwtable
define dso_local void @_ZN4mini15MiniInterpreter5visitEPN3ast20IdentifierExpressionE(%"struct.antlrcpp::Any"* noalias sret %0, %"class.mini::MiniInterpreter"* %1, %"class.ast::IdentifierExpression"* %2) unnamed_addr #4 align 2 personality i8* bitcast (i32 (...)* @__gxx_personality_v0 to i8*) {
  %4 = alloca i8*, align 8
  %5 = alloca %"class.mini::MiniInterpreter"*, align 8
  %6 = alloca %"class.ast::IdentifierExpression"*, align 8
  %7 = alloca %"class.std::shared_ptr.47", align 8
  %8 = alloca %"class.std::__cxx11::basic_string", align 8
  %9 = alloca i8*
  %10 = alloca i32
  %11 = alloca i32, align 4
  %12 = alloca i8*, align 8
  %13 = bitcast %"struct.antlrcpp::Any"* %0 to i8*
  store i8* %13, i8** %4, align 8
  store %"class.mini::MiniInterpreter"* %1, %"class.mini::MiniInterpreter"** %5, align 8
  store %"class.ast::IdentifierExpression"* %2, %"class.ast::IdentifierExpression"** %6, align 8
  %14 = load %"class.mini::MiniInterpreter"*, %"class.mini::MiniInterpreter"** %5, align 8
  %15 = load %"class.ast::IdentifierExpression"*, %"class.ast::IdentifierExpression"** %6, align 8
  %16 = getelementptr inbounds %"class.ast::IdentifierExpression", %"class.ast::IdentifierExpression"* %15, i32 0, i32 1
  call void @_ZNSt7__cxx1112basic_stringIcSt11char_traitsIcESaIcEEC1ERKS4_(%"class.std::__cxx11::basic_string"* %8, %"class.std::__cxx11::basic_string"* dereferenceable(32) %16)
  invoke void @_ZN4mini15MiniInterpreter6lookupENSt7__cxx1112basic_stringIcSt11char_traitsIcESaIcEEE(%"class.std::shared_ptr.47"* sret %7, %"class.mini::MiniInterpreter"* %14, %"class.std::__cxx11::basic_string"* %8)
          to label %17 unwind label %25

17:                                               ; preds = %3
  call void @_ZNSt7__cxx1112basic_stringIcSt11char_traitsIcESaIcEED1Ev(%"class.std::__cxx11::basic_string"* %8) #3
  %18 = bitcast %"class.std::shared_ptr.47"* %7 to %"class.std::__shared_ptr.48"*
  %19 = invoke zeroext i1 @_ZNKSt12__shared_ptrIN4mini10TypedValueELN9__gnu_cxx12_Lock_policyE2EEcvbEv(%"class.std::__shared_ptr.48"* %18)
          to label %20 unwind label %29

20:                                               ; preds = %17
  br i1 %19, label %21, label %33

21:                                               ; preds = %20
  %22 = bitcast %"class.std::shared_ptr.47"* %7 to %"class.std::__shared_ptr_access.49"*
  %23 = call dereferenceable(48) %"class.mini::TypedValue"* @_ZNKSt19__shared_ptr_accessIN4mini10TypedValueELN9__gnu_cxx12_Lock_policyE2ELb0ELb0EEdeEv(%"class.std::__shared_ptr_access.49"* %22) #3
  invoke void @_ZN8antlrcpp3AnyC2IRN4mini10TypedValueEEEOT_(%"struct.antlrcpp::Any"* %0, %"class.mini::TypedValue"* dereferenceable(48) %23)
          to label %24 unwind label %29

24:                                               ; preds = %21
  store i32 1, i32* %11, align 4
  br label %35

25:                                               ; preds = %3
  %26 = landingpad { i8*, i32 }
          cleanup
  %27 = extractvalue { i8*, i32 } %26, 0
  store i8* %27, i8** %9, align 8
  %28 = extractvalue { i8*, i32 } %26, 1
  store i32 %28, i32* %10, align 4
  call void @_ZNSt7__cxx1112basic_stringIcSt11char_traitsIcESaIcEED1Ev(%"class.std::__cxx11::basic_string"* %8) #3
  br label %36

29:                                               ; preds = %33, %21, %17
  %30 = landingpad { i8*, i32 }
          cleanup
  %31 = extractvalue { i8*, i32 } %30, 0
  store i8* %31, i8** %9, align 8
  %32 = extractvalue { i8*, i32 } %30, 1
  store i32 %32, i32* %10, align 4
  call void @_ZNSt10shared_ptrIN4mini10TypedValueEED2Ev(%"class.std::shared_ptr.47"* %7) #3
  br label %36

33:                                               ; preds = %20
  store i8* null, i8** %12, align 8
  invoke void @_ZN8antlrcpp3AnyC2IDnEEOT_(%"struct.antlrcpp::Any"* %0, i8** dereferenceable(8) %12)
          to label %34 unwind label %29

34:                                               ; preds = %33
  store i32 1, i32* %11, align 4
  br label %35

35:                                               ; preds = %34, %24
  call void @_ZNSt10shared_ptrIN4mini10TypedValueEED2Ev(%"class.std::shared_ptr.47"* %7) #3
  ret void

36:                                               ; preds = %29, %25
  %37 = load i8*, i8** %9, align 8
  %38 = load i32, i32* %10, align 4
  %39 = insertvalue { i8*, i32 } undef, i8* %37, 0
  %40 = insertvalue { i8*, i32 } %39, i32 %38, 1
  resume { i8*, i32 } %40
}

; Function Attrs: noinline optnone uwtable
define dso_local void @_ZN4mini15MiniInterpreter5visitEPN3ast17IntegerExpressionE(%"struct.antlrcpp::Any"* noalias sret %0, %"class.mini::MiniInterpreter"* %1, %"class.ast::IntegerExpression"* %2) unnamed_addr #4 align 2 personality i8* bitcast (i32 (...)* @__gxx_personality_v0 to i8*) {
  %4 = alloca i8*, align 8
  %5 = alloca %"class.mini::MiniInterpreter"*, align 8
  %6 = alloca %"class.ast::IntegerExpression"*, align 8
  %7 = alloca %"class.mini::TypedValue", align 8
  %8 = alloca %"class.std::__cxx11::basic_string", align 8
  %9 = alloca %"struct.antlrcpp::Any", align 8
  %10 = alloca i8*
  %11 = alloca i32
  %12 = bitcast %"struct.antlrcpp::Any"* %0 to i8*
  store i8* %12, i8** %4, align 8
  store %"class.mini::MiniInterpreter"* %1, %"class.mini::MiniInterpreter"** %5, align 8
  store %"class.ast::IntegerExpression"* %2, %"class.ast::IntegerExpression"** %6, align 8
  %13 = load %"class.mini::MiniInterpreter"*, %"class.mini::MiniInterpreter"** %5, align 8
  call void @_ZN3ast7IntType4nameB5cxx11Ev(%"class.std::__cxx11::basic_string"* sret %8)
  %14 = load %"class.ast::IntegerExpression"*, %"class.ast::IntegerExpression"** %6, align 8
  %15 = getelementptr inbounds %"class.ast::IntegerExpression", %"class.ast::IntegerExpression"* %14, i32 0, i32 1
  invoke void @_ZN8antlrcpp3AnyC2IRiEEOT_(%"struct.antlrcpp::Any"* %9, i32* dereferenceable(4) %15)
          to label %16 unwind label %19

16:                                               ; preds = %3
  invoke void @_ZN4mini10TypedValueC1ENSt7__cxx1112basic_stringIcSt11char_traitsIcESaIcEEEN8antlrcpp3AnyE(%"class.mini::TypedValue"* %7, %"class.std::__cxx11::basic_string"* %8, %"struct.antlrcpp::Any"* %9)
          to label %17 unwind label %23

17:                                               ; preds = %16
  invoke void @_ZN8antlrcpp3AnyC2IN4mini10TypedValueEEEOT_(%"struct.antlrcpp::Any"* %0, %"class.mini::TypedValue"* dereferenceable(48) %7)
          to label %18 unwind label %27

18:                                               ; preds = %17
  call void @_ZN4mini10TypedValueD2Ev(%"class.mini::TypedValue"* %7) #3
  call void @_ZN8antlrcpp3AnyD1Ev(%"struct.antlrcpp::Any"* %9) #3
  call void @_ZNSt7__cxx1112basic_stringIcSt11char_traitsIcESaIcEED1Ev(%"class.std::__cxx11::basic_string"* %8) #3
  ret void

19:                                               ; preds = %3
  %20 = landingpad { i8*, i32 }
          cleanup
  %21 = extractvalue { i8*, i32 } %20, 0
  store i8* %21, i8** %10, align 8
  %22 = extractvalue { i8*, i32 } %20, 1
  store i32 %22, i32* %11, align 4
  br label %32

23:                                               ; preds = %16
  %24 = landingpad { i8*, i32 }
          cleanup
  %25 = extractvalue { i8*, i32 } %24, 0
  store i8* %25, i8** %10, align 8
  %26 = extractvalue { i8*, i32 } %24, 1
  store i32 %26, i32* %11, align 4
  br label %31

27:                                               ; preds = %17
  %28 = landingpad { i8*, i32 }
          cleanup
  %29 = extractvalue { i8*, i32 } %28, 0
  store i8* %29, i8** %10, align 8
  %30 = extractvalue { i8*, i32 } %28, 1
  store i32 %30, i32* %11, align 4
  call void @_ZN4mini10TypedValueD2Ev(%"class.mini::TypedValue"* %7) #3
  br label %31

31:                                               ; preds = %27, %23
  call void @_ZN8antlrcpp3AnyD1Ev(%"struct.antlrcpp::Any"* %9) #3
  br label %32

32:                                               ; preds = %31, %19
  call void @_ZNSt7__cxx1112basic_stringIcSt11char_traitsIcESaIcEED1Ev(%"class.std::__cxx11::basic_string"* %8) #3
  br label %33

33:                                               ; preds = %32
  %34 = load i8*, i8** %10, align 8
  %35 = load i32, i32* %11, align 4
  %36 = insertvalue { i8*, i32 } undef, i8* %34, 0
  %37 = insertvalue { i8*, i32 } %36, i32 %35, 1
  resume { i8*, i32 } %37
}

; Function Attrs: noinline optnone uwtable
define linkonce_odr dso_local void @_ZN8antlrcpp3AnyC2IRiEEOT_(%"struct.antlrcpp::Any"* %0, i32* dereferenceable(4) %1) unnamed_addr #4 comdat align 2 personality i8* bitcast (i32 (...)* @__gxx_personality_v0 to i8*) {
  %3 = alloca %"struct.antlrcpp::Any"*, align 8
  %4 = alloca i32*, align 8
  %5 = alloca i8*
  %6 = alloca i32
  store %"struct.antlrcpp::Any"* %0, %"struct.antlrcpp::Any"** %3, align 8
  store i32* %1, i32** %4, align 8
  %7 = load %"struct.antlrcpp::Any"*, %"struct.antlrcpp::Any"** %3, align 8
  %8 = bitcast %"struct.antlrcpp::Any"* %7 to i32 (...)***
  store i32 (...)** bitcast (i8** getelementptr inbounds ({ [5 x i8*] }, { [5 x i8*] }* @_ZTVN8antlrcpp3AnyE, i32 0, inrange i32 0, i32 2) to i32 (...)**), i32 (...)*** %8, align 8
  %9 = getelementptr inbounds %"struct.antlrcpp::Any", %"struct.antlrcpp::Any"* %7, i32 0, i32 1
  %10 = call i8* @_Znwm(i64 16) #17
  %11 = bitcast i8* %10 to %"struct.antlrcpp::Any::Derived.89"*
  %12 = load i32*, i32** %4, align 8
  %13 = call dereferenceable(4) i32* @_ZSt7forwardIRiEOT_RNSt16remove_referenceIS1_E4typeE(i32* dereferenceable(4) %12) #3
  invoke void @_ZN8antlrcpp3Any7DerivedIiEC2IRiEEOT_(%"struct.antlrcpp::Any::Derived.89"* %11, i32* dereferenceable(4) %13)
          to label %14 unwind label %16

14:                                               ; preds = %2
  %15 = bitcast %"struct.antlrcpp::Any::Derived.89"* %11 to %"struct.antlrcpp::Any::Base"*
  store %"struct.antlrcpp::Any::Base"* %15, %"struct.antlrcpp::Any::Base"** %9, align 8
  ret void

16:                                               ; preds = %2
  %17 = landingpad { i8*, i32 }
          cleanup
  %18 = extractvalue { i8*, i32 } %17, 0
  store i8* %18, i8** %5, align 8
  %19 = extractvalue { i8*, i32 } %17, 1
  store i32 %19, i32* %6, align 4
  call void @_ZdlPv(i8* %10) #18
  br label %20

20:                                               ; preds = %16
  %21 = load i8*, i8** %5, align 8
  %22 = load i32, i32* %6, align 4
  %23 = insertvalue { i8*, i32 } undef, i8* %21, 0
  %24 = insertvalue { i8*, i32 } %23, i32 %22, 1
  resume { i8*, i32 } %24
}

; Function Attrs: noinline optnone uwtable
define dso_local void @_ZN4mini15MiniInterpreter5visitEPN3ast7IntTypeE(%"struct.antlrcpp::Any"* noalias sret %0, %"class.mini::MiniInterpreter"* %1, %"class.ast::IntType"* %2) unnamed_addr #4 align 2 personality i8* bitcast (i32 (...)* @__gxx_personality_v0 to i8*) {
  %4 = alloca i8*, align 8
  %5 = alloca %"class.mini::MiniInterpreter"*, align 8
  %6 = alloca %"class.ast::IntType"*, align 8
  %7 = alloca %"class.std::__cxx11::basic_string", align 8
  %8 = alloca i8*
  %9 = alloca i32
  %10 = bitcast %"struct.antlrcpp::Any"* %0 to i8*
  store i8* %10, i8** %4, align 8
  store %"class.mini::MiniInterpreter"* %1, %"class.mini::MiniInterpreter"** %5, align 8
  store %"class.ast::IntType"* %2, %"class.ast::IntType"** %6, align 8
  %11 = load %"class.mini::MiniInterpreter"*, %"class.mini::MiniInterpreter"** %5, align 8
  call void @_ZN3ast7IntType4nameB5cxx11Ev(%"class.std::__cxx11::basic_string"* sret %7)
  invoke void @_ZN8antlrcpp3AnyC2INSt7__cxx1112basic_stringIcSt11char_traitsIcESaIcEEEEEOT_(%"struct.antlrcpp::Any"* %0, %"class.std::__cxx11::basic_string"* dereferenceable(32) %7)
          to label %12 unwind label %13

12:                                               ; preds = %3
  call void @_ZNSt7__cxx1112basic_stringIcSt11char_traitsIcESaIcEED1Ev(%"class.std::__cxx11::basic_string"* %7) #3
  ret void

13:                                               ; preds = %3
  %14 = landingpad { i8*, i32 }
          cleanup
  %15 = extractvalue { i8*, i32 } %14, 0
  store i8* %15, i8** %8, align 8
  %16 = extractvalue { i8*, i32 } %14, 1
  store i32 %16, i32* %9, align 4
  call void @_ZNSt7__cxx1112basic_stringIcSt11char_traitsIcESaIcEED1Ev(%"class.std::__cxx11::basic_string"* %7) #3
  br label %17

17:                                               ; preds = %13
  %18 = load i8*, i8** %8, align 8
  %19 = load i32, i32* %9, align 4
  %20 = insertvalue { i8*, i32 } undef, i8* %18, 0
  %21 = insertvalue { i8*, i32 } %20, i32 %19, 1
  resume { i8*, i32 } %21
}

; Function Attrs: noinline optnone uwtable
define dso_local void @_ZN4mini15MiniInterpreter5visitEPN3ast20InvocationExpressionE(%"struct.antlrcpp::Any"* noalias sret %0, %"class.mini::MiniInterpreter"* %1, %"class.ast::InvocationExpression"* %2) unnamed_addr #4 align 2 personality i8* bitcast (i32 (...)* @__gxx_personality_v0 to i8*) {
  %4 = alloca i8*, align 8
  %5 = alloca %"class.mini::MiniInterpreter"*, align 8
  %6 = alloca %"class.ast::InvocationExpression"*, align 8
  %7 = alloca %"class.std::__cxx11::basic_string", align 8
  %8 = alloca %"class.std::__cxx11::basic_string", align 8
  %9 = alloca i8*
  %10 = alloca i32
  %11 = alloca i1, align 1
  %12 = alloca %"class.std::shared_ptr.40", align 8
  %13 = alloca %"class.std::map", align 8
  %14 = alloca i1, align 1
  %15 = bitcast %"struct.antlrcpp::Any"* %0 to i8*
  store i8* %15, i8** %4, align 8
  store %"class.mini::MiniInterpreter"* %1, %"class.mini::MiniInterpreter"** %5, align 8
  store %"class.ast::InvocationExpression"* %2, %"class.ast::InvocationExpression"** %6, align 8
  %16 = load %"class.mini::MiniInterpreter"*, %"class.mini::MiniInterpreter"** %5, align 8
  %17 = getelementptr inbounds %"class.mini::MiniInterpreter", %"class.mini::MiniInterpreter"* %16, i32 0, i32 3
  %18 = load %"class.ast::InvocationExpression"*, %"class.ast::InvocationExpression"** %6, align 8
  %19 = getelementptr inbounds %"class.ast::InvocationExpression", %"class.ast::InvocationExpression"* %18, i32 0, i32 1
  %20 = call i64 @_ZNKSt3mapINSt7__cxx1112basic_stringIcSt11char_traitsIcESaIcEEESt10shared_ptrIN3ast8FunctionEESt4lessIS5_ESaISt4pairIKS5_S9_EEE5countERSD_(%"class.std::map.6"* %17, %"class.std::__cxx11::basic_string"* dereferenceable(32) %19)
  %21 = icmp eq i64 %20, 0
  br i1 %21, label %22, label %49

22:                                               ; preds = %3
  %23 = call i8* @__cxa_allocate_exception(i64 16) #3
  store i1 true, i1* %11, align 1
  %24 = bitcast i8* %23 to %"class.std::runtime_error"*
  %25 = load %"class.ast::InvocationExpression"*, %"class.ast::InvocationExpression"** %6, align 8
  %26 = bitcast %"class.ast::InvocationExpression"* %25 to %"class.ast::Expression"*
  %27 = getelementptr inbounds %"class.ast::Expression", %"class.ast::Expression"* %26, i32 0, i32 1
  %28 = load i32, i32* %27, align 8
  invoke void @_ZNSt7__cxx119to_stringEi(%"class.std::__cxx11::basic_string"* sret %8, i32 %28)
          to label %29 unwind label %32

29:                                               ; preds = %22
  invoke void @_ZStplIcSt11char_traitsIcESaIcEENSt7__cxx1112basic_stringIT_T0_T1_EEOS8_PKS5_(%"class.std::__cxx11::basic_string"* sret %7, %"class.std::__cxx11::basic_string"* dereferenceable(32) %8, i8* getelementptr inbounds ([29 x i8], [29 x i8]* @.str.11, i64 0, i64 0))
          to label %30 unwind label %36

30:                                               ; preds = %29
  invoke void @_ZNSt13runtime_errorC1ERKNSt7__cxx1112basic_stringIcSt11char_traitsIcESaIcEEE(%"class.std::runtime_error"* %24, %"class.std::__cxx11::basic_string"* dereferenceable(32) %7)
          to label %31 unwind label %40

31:                                               ; preds = %30
  store i1 false, i1* %11, align 1
  invoke void @__cxa_throw(i8* %23, i8* bitcast (i8** @_ZTISt13runtime_error to i8*), i8* bitcast (void (%"class.std::runtime_error"*)* @_ZNSt13runtime_errorD1Ev to i8*)) #16
          to label %84 unwind label %40

32:                                               ; preds = %22
  %33 = landingpad { i8*, i32 }
          cleanup
  %34 = extractvalue { i8*, i32 } %33, 0
  store i8* %34, i8** %9, align 8
  %35 = extractvalue { i8*, i32 } %33, 1
  store i32 %35, i32* %10, align 4
  br label %45

36:                                               ; preds = %29
  %37 = landingpad { i8*, i32 }
          cleanup
  %38 = extractvalue { i8*, i32 } %37, 0
  store i8* %38, i8** %9, align 8
  %39 = extractvalue { i8*, i32 } %37, 1
  store i32 %39, i32* %10, align 4
  br label %44

40:                                               ; preds = %31, %30
  %41 = landingpad { i8*, i32 }
          cleanup
  %42 = extractvalue { i8*, i32 } %41, 0
  store i8* %42, i8** %9, align 8
  %43 = extractvalue { i8*, i32 } %41, 1
  store i32 %43, i32* %10, align 4
  call void @_ZNSt7__cxx1112basic_stringIcSt11char_traitsIcESaIcEED1Ev(%"class.std::__cxx11::basic_string"* %7) #3
  br label %44

44:                                               ; preds = %40, %36
  call void @_ZNSt7__cxx1112basic_stringIcSt11char_traitsIcESaIcEED1Ev(%"class.std::__cxx11::basic_string"* %8) #3
  br label %45

45:                                               ; preds = %44, %32
  %46 = load i1, i1* %11, align 1
  br i1 %46, label %47, label %48

47:                                               ; preds = %45
  call void @__cxa_free_exception(i8* %23) #3
  br label %48

48:                                               ; preds = %47, %45
  br label %79

49:                                               ; preds = %3
  %50 = getelementptr inbounds %"class.mini::MiniInterpreter", %"class.mini::MiniInterpreter"* %16, i32 0, i32 3
  %51 = load %"class.ast::InvocationExpression"*, %"class.ast::InvocationExpression"** %6, align 8
  %52 = getelementptr inbounds %"class.ast::InvocationExpression", %"class.ast::InvocationExpression"* %51, i32 0, i32 1
  %53 = call dereferenceable(16) %"class.std::shared_ptr.40"* @_ZNSt3mapINSt7__cxx1112basic_stringIcSt11char_traitsIcESaIcEEESt10shared_ptrIN3ast8FunctionEESt4lessIS5_ESaISt4pairIKS5_S9_EEE2atERSD_(%"class.std::map.6"* %50, %"class.std::__cxx11::basic_string"* dereferenceable(32) %52)
  call void @_ZNSt10shared_ptrIN3ast8FunctionEEC2ERKS2_(%"class.std::shared_ptr.40"* %12, %"class.std::shared_ptr.40"* dereferenceable(16) %53) #3
  %54 = load %"class.ast::InvocationExpression"*, %"class.ast::InvocationExpression"** %6, align 8
  %55 = getelementptr inbounds %"class.ast::InvocationExpression", %"class.ast::InvocationExpression"* %54, i32 0, i32 2
  %56 = bitcast %"class.std::shared_ptr.40"* %12 to %"class.std::__shared_ptr_access.42"*
  %57 = call %"class.ast::Function"* @_ZNKSt19__shared_ptr_accessIN3ast8FunctionELN9__gnu_cxx12_Lock_policyE2ELb0ELb0EEptEv(%"class.std::__shared_ptr_access.42"* %56) #3
  %58 = getelementptr inbounds %"class.ast::Function", %"class.ast::Function"* %57, i32 0, i32 3
  invoke void @_ZN4mini15MiniInterpreter8bindArgsB5cxx11ERSt6vectorISt10shared_ptrIN3ast10ExpressionEESaIS5_EERS1_IS2_INS3_11DeclarationEESaISA_EE(%"class.std::map"* sret %13, %"class.mini::MiniInterpreter"* %16, %"class.std::vector.50"* dereferenceable(24) %55, %"class.std::vector.24"* dereferenceable(24) %58)
          to label %59 unwind label %68

59:                                               ; preds = %49
  %60 = getelementptr inbounds %"class.mini::MiniInterpreter", %"class.mini::MiniInterpreter"* %16, i32 0, i32 2
  invoke void @_ZNSt6vectorISt3mapINSt7__cxx1112basic_stringIcSt11char_traitsIcESaIcEEESt10shared_ptrIN4mini10TypedValueEESt4lessIS6_ESaISt4pairIKS6_SA_EEESaISH_EE9push_backERKSH_(%"class.std::vector"* %60, %"class.std::map"* dereferenceable(48) %13)
          to label %61 unwind label %72

61:                                               ; preds = %59
  store i1 false, i1* %14, align 1
  %62 = bitcast %"class.std::shared_ptr.40"* %12 to %"class.std::__shared_ptr_access.42"*
  %63 = call %"class.ast::Function"* @_ZNKSt19__shared_ptr_accessIN3ast8FunctionELN9__gnu_cxx12_Lock_policyE2ELb0ELb0EEptEv(%"class.std::__shared_ptr_access.42"* %62) #3
  %64 = bitcast %"class.mini::MiniInterpreter"* %16 to %"class.ast::ASTVisitor"*
  invoke void @_ZN3ast8Function6acceptEPNS_10ASTVisitorE(%"struct.antlrcpp::Any"* sret %0, %"class.ast::Function"* %63, %"class.ast::ASTVisitor"* %64)
          to label %65 unwind label %72

65:                                               ; preds = %61
  %66 = getelementptr inbounds %"class.mini::MiniInterpreter", %"class.mini::MiniInterpreter"* %16, i32 0, i32 2
  call void @_ZNSt6vectorISt3mapINSt7__cxx1112basic_stringIcSt11char_traitsIcESaIcEEESt10shared_ptrIN4mini10TypedValueEESt4lessIS6_ESaISt4pairIKS6_SA_EEESaISH_EE8pop_backEv(%"class.std::vector"* %66) #3
  store i1 true, i1* %14, align 1
  %67 = load i1, i1* %14, align 1
  br i1 %67, label %77, label %76

68:                                               ; preds = %49
  %69 = landingpad { i8*, i32 }
          cleanup
  %70 = extractvalue { i8*, i32 } %69, 0
  store i8* %70, i8** %9, align 8
  %71 = extractvalue { i8*, i32 } %69, 1
  store i32 %71, i32* %10, align 4
  br label %78

72:                                               ; preds = %61, %59
  %73 = landingpad { i8*, i32 }
          cleanup
  %74 = extractvalue { i8*, i32 } %73, 0
  store i8* %74, i8** %9, align 8
  %75 = extractvalue { i8*, i32 } %73, 1
  store i32 %75, i32* %10, align 4
  call void @_ZNSt3mapINSt7__cxx1112basic_stringIcSt11char_traitsIcESaIcEEESt10shared_ptrIN4mini10TypedValueEESt4lessIS5_ESaISt4pairIKS5_S9_EEED2Ev(%"class.std::map"* %13) #3
  br label %78

76:                                               ; preds = %65
  call void @_ZN8antlrcpp3AnyD1Ev(%"struct.antlrcpp::Any"* %0) #3
  br label %77

77:                                               ; preds = %76, %65
  call void @_ZNSt3mapINSt7__cxx1112basic_stringIcSt11char_traitsIcESaIcEEESt10shared_ptrIN4mini10TypedValueEESt4lessIS5_ESaISt4pairIKS5_S9_EEED2Ev(%"class.std::map"* %13) #3
  call void @_ZNSt10shared_ptrIN3ast8FunctionEED2Ev(%"class.std::shared_ptr.40"* %12) #3
  ret void

78:                                               ; preds = %72, %68
  call void @_ZNSt10shared_ptrIN3ast8FunctionEED2Ev(%"class.std::shared_ptr.40"* %12) #3
  br label %79

79:                                               ; preds = %78, %48
  %80 = load i8*, i8** %9, align 8
  %81 = load i32, i32* %10, align 4
  %82 = insertvalue { i8*, i32 } undef, i8* %80, 0
  %83 = insertvalue { i8*, i32 } %82, i32 %81, 1
  resume { i8*, i32 } %83

84:                                               ; preds = %31
  unreachable
}

; Function Attrs: noinline optnone uwtable
define linkonce_odr dso_local i64 @_ZNKSt3mapINSt7__cxx1112basic_stringIcSt11char_traitsIcESaIcEEESt10shared_ptrIN3ast8FunctionEESt4lessIS5_ESaISt4pairIKS5_S9_EEE5countERSD_(%"class.std::map.6"* %0, %"class.std::__cxx11::basic_string"* dereferenceable(32) %1) #4 comdat align 2 {
  %3 = alloca %"class.std::map.6"*, align 8
  %4 = alloca %"class.std::__cxx11::basic_string"*, align 8
  %5 = alloca %"struct.std::_Rb_tree_const_iterator.106", align 8
  %6 = alloca %"struct.std::_Rb_tree_const_iterator.106", align 8
  store %"class.std::map.6"* %0, %"class.std::map.6"** %3, align 8
  store %"class.std::__cxx11::basic_string"* %1, %"class.std::__cxx11::basic_string"** %4, align 8
  %7 = load %"class.std::map.6"*, %"class.std::map.6"** %3, align 8
  %8 = getelementptr inbounds %"class.std::map.6", %"class.std::map.6"* %7, i32 0, i32 0
  %9 = load %"class.std::__cxx11::basic_string"*, %"class.std::__cxx11::basic_string"** %4, align 8
  %10 = call %"struct.std::_Rb_tree_node_base"* @_ZNKSt8_Rb_treeINSt7__cxx1112basic_stringIcSt11char_traitsIcESaIcEEESt4pairIKS5_St10shared_ptrIN3ast8FunctionEEESt10_Select1stISC_ESt4lessIS5_ESaISC_EE4findERS7_(%"class.std::_Rb_tree.7"* %8, %"class.std::__cxx11::basic_string"* dereferenceable(32) %9)
  %11 = getelementptr inbounds %"struct.std::_Rb_tree_const_iterator.106", %"struct.std::_Rb_tree_const_iterator.106"* %5, i32 0, i32 0
  store %"struct.std::_Rb_tree_node_base"* %10, %"struct.std::_Rb_tree_node_base"** %11, align 8
  %12 = getelementptr inbounds %"class.std::map.6", %"class.std::map.6"* %7, i32 0, i32 0
  %13 = call %"struct.std::_Rb_tree_node_base"* @_ZNKSt8_Rb_treeINSt7__cxx1112basic_stringIcSt11char_traitsIcESaIcEEESt4pairIKS5_St10shared_ptrIN3ast8FunctionEEESt10_Select1stISC_ESt4lessIS5_ESaISC_EE3endEv(%"class.std::_Rb_tree.7"* %12) #3
  %14 = getelementptr inbounds %"struct.std::_Rb_tree_const_iterator.106", %"struct.std::_Rb_tree_const_iterator.106"* %6, i32 0, i32 0
  store %"struct.std::_Rb_tree_node_base"* %13, %"struct.std::_Rb_tree_node_base"** %14, align 8
  %15 = call zeroext i1 @_ZNKSt23_Rb_tree_const_iteratorISt4pairIKNSt7__cxx1112basic_stringIcSt11char_traitsIcESaIcEEESt10shared_ptrIN3ast8FunctionEEEEeqERKSD_(%"struct.std::_Rb_tree_const_iterator.106"* %5, %"struct.std::_Rb_tree_const_iterator.106"* dereferenceable(8) %6) #3
  %16 = zext i1 %15 to i64
  %17 = select i1 %15, i32 0, i32 1
  %18 = sext i32 %17 to i64
  ret i64 %18
}

; Function Attrs: noinline optnone uwtable
define linkonce_odr dso_local dereferenceable(16) %"class.std::shared_ptr.40"* @_ZNSt3mapINSt7__cxx1112basic_stringIcSt11char_traitsIcESaIcEEESt10shared_ptrIN3ast8FunctionEESt4lessIS5_ESaISt4pairIKS5_S9_EEE2atERSD_(%"class.std::map.6"* %0, %"class.std::__cxx11::basic_string"* dereferenceable(32) %1) #4 comdat align 2 {
  %3 = alloca %"class.std::map.6"*, align 8
  %4 = alloca %"class.std::__cxx11::basic_string"*, align 8
  %5 = alloca %"struct.std::_Rb_tree_iterator.84", align 8
  %6 = alloca %"struct.std::_Rb_tree_iterator.84", align 8
  %7 = alloca %"struct.std::less", align 1
  %8 = alloca %"struct.std::less", align 1
  store %"class.std::map.6"* %0, %"class.std::map.6"** %3, align 8
  store %"class.std::__cxx11::basic_string"* %1, %"class.std::__cxx11::basic_string"** %4, align 8
  %9 = load %"class.std::map.6"*, %"class.std::map.6"** %3, align 8
  %10 = load %"class.std::__cxx11::basic_string"*, %"class.std::__cxx11::basic_string"** %4, align 8
  %11 = call %"struct.std::_Rb_tree_node_base"* @_ZNSt3mapINSt7__cxx1112basic_stringIcSt11char_traitsIcESaIcEEESt10shared_ptrIN3ast8FunctionEESt4lessIS5_ESaISt4pairIKS5_S9_EEE11lower_boundERSD_(%"class.std::map.6"* %9, %"class.std::__cxx11::basic_string"* dereferenceable(32) %10)
  %12 = getelementptr inbounds %"struct.std::_Rb_tree_iterator.84", %"struct.std::_Rb_tree_iterator.84"* %5, i32 0, i32 0
  store %"struct.std::_Rb_tree_node_base"* %11, %"struct.std::_Rb_tree_node_base"** %12, align 8
  %13 = call %"struct.std::_Rb_tree_node_base"* @_ZNSt3mapINSt7__cxx1112basic_stringIcSt11char_traitsIcESaIcEEESt10shared_ptrIN3ast8FunctionEESt4lessIS5_ESaISt4pairIKS5_S9_EEE3endEv(%"class.std::map.6"* %9) #3
  %14 = getelementptr inbounds %"struct.std::_Rb_tree_iterator.84", %"struct.std::_Rb_tree_iterator.84"* %6, i32 0, i32 0
  store %"struct.std::_Rb_tree_node_base"* %13, %"struct.std::_Rb_tree_node_base"** %14, align 8
  %15 = call zeroext i1 @_ZNKSt17_Rb_tree_iteratorISt4pairIKNSt7__cxx1112basic_stringIcSt11char_traitsIcESaIcEEESt10shared_ptrIN3ast8FunctionEEEEeqERKSD_(%"struct.std::_Rb_tree_iterator.84"* %5, %"struct.std::_Rb_tree_iterator.84"* dereferenceable(8) %6) #3
  br i1 %15, label %21, label %16

16:                                               ; preds = %2
  call void @_ZNKSt3mapINSt7__cxx1112basic_stringIcSt11char_traitsIcESaIcEEESt10shared_ptrIN3ast8FunctionEESt4lessIS5_ESaISt4pairIKS5_S9_EEE8key_compEv(%"class.std::map.6"* %9)
  %17 = load %"class.std::__cxx11::basic_string"*, %"class.std::__cxx11::basic_string"** %4, align 8
  %18 = call dereferenceable(48) %"struct.std::pair.86"* @_ZNKSt17_Rb_tree_iteratorISt4pairIKNSt7__cxx1112basic_stringIcSt11char_traitsIcESaIcEEESt10shared_ptrIN3ast8FunctionEEEEdeEv(%"struct.std::_Rb_tree_iterator.84"* %5) #3
  %19 = getelementptr inbounds %"struct.std::pair.86", %"struct.std::pair.86"* %18, i32 0, i32 0
  %20 = call zeroext i1 @_ZNKSt4lessINSt7__cxx1112basic_stringIcSt11char_traitsIcESaIcEEEEclERKS5_S8_(%"struct.std::less"* %7, %"class.std::__cxx11::basic_string"* dereferenceable(32) %17, %"class.std::__cxx11::basic_string"* dereferenceable(32) %19)
  br label %21

21:                                               ; preds = %16, %2
  %22 = phi i1 [ true, %2 ], [ %20, %16 ]
  br i1 %22, label %23, label %24

23:                                               ; preds = %21
  call void @_ZSt20__throw_out_of_rangePKc(i8* getelementptr inbounds ([8 x i8], [8 x i8]* @.str.22, i64 0, i64 0)) #16
  unreachable

24:                                               ; preds = %21
  %25 = call dereferenceable(48) %"struct.std::pair.86"* @_ZNKSt17_Rb_tree_iteratorISt4pairIKNSt7__cxx1112basic_stringIcSt11char_traitsIcESaIcEEESt10shared_ptrIN3ast8FunctionEEEEdeEv(%"struct.std::_Rb_tree_iterator.84"* %5) #3
  %26 = getelementptr inbounds %"struct.std::pair.86", %"struct.std::pair.86"* %25, i32 0, i32 1
  ret %"class.std::shared_ptr.40"* %26
}

; Function Attrs: noinline nounwind optnone uwtable
define linkonce_odr dso_local void @_ZNSt10shared_ptrIN3ast8FunctionEEC2ERKS2_(%"class.std::shared_ptr.40"* %0, %"class.std::shared_ptr.40"* dereferenceable(16) %1) unnamed_addr #5 comdat align 2 {
  %3 = alloca %"class.std::shared_ptr.40"*, align 8
  %4 = alloca %"class.std::shared_ptr.40"*, align 8
  store %"class.std::shared_ptr.40"* %0, %"class.std::shared_ptr.40"** %3, align 8
  store %"class.std::shared_ptr.40"* %1, %"class.std::shared_ptr.40"** %4, align 8
  %5 = load %"class.std::shared_ptr.40"*, %"class.std::shared_ptr.40"** %3, align 8
  %6 = bitcast %"class.std::shared_ptr.40"* %5 to %"class.std::__shared_ptr.41"*
  %7 = load %"class.std::shared_ptr.40"*, %"class.std::shared_ptr.40"** %4, align 8
  %8 = bitcast %"class.std::shared_ptr.40"* %7 to %"class.std::__shared_ptr.41"*
  call void @_ZNSt12__shared_ptrIN3ast8FunctionELN9__gnu_cxx12_Lock_policyE2EEC2ERKS4_(%"class.std::__shared_ptr.41"* %6, %"class.std::__shared_ptr.41"* dereferenceable(16) %8) #3
  ret void
}

; Function Attrs: noinline nounwind optnone uwtable
define linkonce_odr dso_local %"class.ast::Function"* @_ZNKSt19__shared_ptr_accessIN3ast8FunctionELN9__gnu_cxx12_Lock_policyE2ELb0ELb0EEptEv(%"class.std::__shared_ptr_access.42"* %0) #5 comdat align 2 {
  %2 = alloca %"class.std::__shared_ptr_access.42"*, align 8
  store %"class.std::__shared_ptr_access.42"* %0, %"class.std::__shared_ptr_access.42"** %2, align 8
  %3 = load %"class.std::__shared_ptr_access.42"*, %"class.std::__shared_ptr_access.42"** %2, align 8
  %4 = call %"class.ast::Function"* @_ZNKSt19__shared_ptr_accessIN3ast8FunctionELN9__gnu_cxx12_Lock_policyE2ELb0ELb0EE6_M_getEv(%"class.std::__shared_ptr_access.42"* %3) #3
  ret %"class.ast::Function"* %4
}

; Function Attrs: noinline optnone uwtable
define linkonce_odr dso_local void @_ZNSt6vectorISt3mapINSt7__cxx1112basic_stringIcSt11char_traitsIcESaIcEEESt10shared_ptrIN4mini10TypedValueEESt4lessIS6_ESaISt4pairIKS6_SA_EEESaISH_EE9push_backERKSH_(%"class.std::vector"* %0, %"class.std::map"* dereferenceable(48) %1) #4 comdat align 2 {
  %3 = alloca %"class.std::vector"*, align 8
  %4 = alloca %"class.std::map"*, align 8
  %5 = alloca %"class.__gnu_cxx::__normal_iterator", align 8
  store %"class.std::vector"* %0, %"class.std::vector"** %3, align 8
  store %"class.std::map"* %1, %"class.std::map"** %4, align 8
  %6 = load %"class.std::vector"*, %"class.std::vector"** %3, align 8
  %7 = bitcast %"class.std::vector"* %6 to %"struct.std::_Vector_base"*
  %8 = getelementptr inbounds %"struct.std::_Vector_base", %"struct.std::_Vector_base"* %7, i32 0, i32 0
  %9 = getelementptr inbounds %"struct.std::_Vector_base<std::map<std::__cxx11::basic_string<char>, std::shared_ptr<mini::TypedValue>, std::less<std::__cxx11::basic_string<char> >, std::allocator<std::pair<const std::__cxx11::basic_string<char>, std::shared_ptr<mini::TypedValue> > > >, std::allocator<std::map<std::__cxx11::basic_string<char>, std::shared_ptr<mini::TypedValue>, std::less<std::__cxx11::basic_string<char> >, std::allocator<std::pair<const std::__cxx11::basic_string<char>, std::shared_ptr<mini::TypedValue> > > > > >::_Vector_impl", %"struct.std::_Vector_base<std::map<std::__cxx11::basic_string<char>, std::shared_ptr<mini::TypedValue>, std::less<std::__cxx11::basic_string<char> >, std::allocator<std::pair<const std::__cxx11::basic_string<char>, std::shared_ptr<mini::TypedValue> > > >, std::allocator<std::map<std::__cxx11::basic_string<char>, std::shared_ptr<mini::TypedValue>, std::less<std::__cxx11::basic_string<char> >, std::allocator<std::pair<const std::__cxx11::basic_string<char>, std::shared_ptr<mini::TypedValue> > > > > >::_Vector_impl"* %8, i32 0, i32 1
  %10 = load %"class.std::map"*, %"class.std::map"** %9, align 8
  %11 = bitcast %"class.std::vector"* %6 to %"struct.std::_Vector_base"*
  %12 = getelementptr inbounds %"struct.std::_Vector_base", %"struct.std::_Vector_base"* %11, i32 0, i32 0
  %13 = getelementptr inbounds %"struct.std::_Vector_base<std::map<std::__cxx11::basic_string<char>, std::shared_ptr<mini::TypedValue>, std::less<std::__cxx11::basic_string<char> >, std::allocator<std::pair<const std::__cxx11::basic_string<char>, std::shared_ptr<mini::TypedValue> > > >, std::allocator<std::map<std::__cxx11::basic_string<char>, std::shared_ptr<mini::TypedValue>, std::less<std::__cxx11::basic_string<char> >, std::allocator<std::pair<const std::__cxx11::basic_string<char>, std::shared_ptr<mini::TypedValue> > > > > >::_Vector_impl", %"struct.std::_Vector_base<std::map<std::__cxx11::basic_string<char>, std::shared_ptr<mini::TypedValue>, std::less<std::__cxx11::basic_string<char> >, std::allocator<std::pair<const std::__cxx11::basic_string<char>, std::shared_ptr<mini::TypedValue> > > >, std::allocator<std::map<std::__cxx11::basic_string<char>, std::shared_ptr<mini::TypedValue>, std::less<std::__cxx11::basic_string<char> >, std::allocator<std::pair<const std::__cxx11::basic_string<char>, std::shared_ptr<mini::TypedValue> > > > > >::_Vector_impl"* %12, i32 0, i32 2
  %14 = load %"class.std::map"*, %"class.std::map"** %13, align 8
  %15 = icmp ne %"class.std::map"* %10, %14
  br i1 %15, label %16, label %30

16:                                               ; preds = %2
  %17 = bitcast %"class.std::vector"* %6 to %"struct.std::_Vector_base"*
  %18 = getelementptr inbounds %"struct.std::_Vector_base", %"struct.std::_Vector_base"* %17, i32 0, i32 0
  %19 = bitcast %"struct.std::_Vector_base<std::map<std::__cxx11::basic_string<char>, std::shared_ptr<mini::TypedValue>, std::less<std::__cxx11::basic_string<char> >, std::allocator<std::pair<const std::__cxx11::basic_string<char>, std::shared_ptr<mini::TypedValue> > > >, std::allocator<std::map<std::__cxx11::basic_string<char>, std::shared_ptr<mini::TypedValue>, std::less<std::__cxx11::basic_string<char> >, std::allocator<std::pair<const std::__cxx11::basic_string<char>, std::shared_ptr<mini::TypedValue> > > > > >::_Vector_impl"* %18 to %"class.std::allocator.3"*
  %20 = bitcast %"class.std::vector"* %6 to %"struct.std::_Vector_base"*
  %21 = getelementptr inbounds %"struct.std::_Vector_base", %"struct.std::_Vector_base"* %20, i32 0, i32 0
  %22 = getelementptr inbounds %"struct.std::_Vector_base<std::map<std::__cxx11::basic_string<char>, std::shared_ptr<mini::TypedValue>, std::less<std::__cxx11::basic_string<char> >, std::allocator<std::pair<const std::__cxx11::basic_string<char>, std::shared_ptr<mini::TypedValue> > > >, std::allocator<std::map<std::__cxx11::basic_string<char>, std::shared_ptr<mini::TypedValue>, std::less<std::__cxx11::basic_string<char> >, std::allocator<std::pair<const std::__cxx11::basic_string<char>, std::shared_ptr<mini::TypedValue> > > > > >::_Vector_impl", %"struct.std::_Vector_base<std::map<std::__cxx11::basic_string<char>, std::shared_ptr<mini::TypedValue>, std::less<std::__cxx11::basic_string<char> >, std::allocator<std::pair<const std::__cxx11::basic_string<char>, std::shared_ptr<mini::TypedValue> > > >, std::allocator<std::map<std::__cxx11::basic_string<char>, std::shared_ptr<mini::TypedValue>, std::less<std::__cxx11::basic_string<char> >, std::allocator<std::pair<const std::__cxx11::basic_string<char>, std::shared_ptr<mini::TypedValue> > > > > >::_Vector_impl"* %21, i32 0, i32 1
  %23 = load %"class.std::map"*, %"class.std::map"** %22, align 8
  %24 = load %"class.std::map"*, %"class.std::map"** %4, align 8
  call void @_ZNSt16allocator_traitsISaISt3mapINSt7__cxx1112basic_stringIcSt11char_traitsIcESaIcEEESt10shared_ptrIN4mini10TypedValueEESt4lessIS6_ESaISt4pairIKS6_SA_EEEEE9constructISH_JRKSH_EEEvRSI_PT_DpOT0_(%"class.std::allocator.3"* dereferenceable(1) %19, %"class.std::map"* %23, %"class.std::map"* dereferenceable(48) %24)
  %25 = bitcast %"class.std::vector"* %6 to %"struct.std::_Vector_base"*
  %26 = getelementptr inbounds %"struct.std::_Vector_base", %"struct.std::_Vector_base"* %25, i32 0, i32 0
  %27 = getelementptr inbounds %"struct.std::_Vector_base<std::map<std::__cxx11::basic_string<char>, std::shared_ptr<mini::TypedValue>, std::less<std::__cxx11::basic_string<char> >, std::allocator<std::pair<const std::__cxx11::basic_string<char>, std::shared_ptr<mini::TypedValue> > > >, std::allocator<std::map<std::__cxx11::basic_string<char>, std::shared_ptr<mini::TypedValue>, std::less<std::__cxx11::basic_string<char> >, std::allocator<std::pair<const std::__cxx11::basic_string<char>, std::shared_ptr<mini::TypedValue> > > > > >::_Vector_impl", %"struct.std::_Vector_base<std::map<std::__cxx11::basic_string<char>, std::shared_ptr<mini::TypedValue>, std::less<std::__cxx11::basic_string<char> >, std::allocator<std::pair<const std::__cxx11::basic_string<char>, std::shared_ptr<mini::TypedValue> > > >, std::allocator<std::map<std::__cxx11::basic_string<char>, std::shared_ptr<mini::TypedValue>, std::less<std::__cxx11::basic_string<char> >, std::allocator<std::pair<const std::__cxx11::basic_string<char>, std::shared_ptr<mini::TypedValue> > > > > >::_Vector_impl"* %26, i32 0, i32 1
  %28 = load %"class.std::map"*, %"class.std::map"** %27, align 8
  %29 = getelementptr inbounds %"class.std::map", %"class.std::map"* %28, i32 1
  store %"class.std::map"* %29, %"class.std::map"** %27, align 8
  br label %36

30:                                               ; preds = %2
  %31 = call %"class.std::map"* @_ZNSt6vectorISt3mapINSt7__cxx1112basic_stringIcSt11char_traitsIcESaIcEEESt10shared_ptrIN4mini10TypedValueEESt4lessIS6_ESaISt4pairIKS6_SA_EEESaISH_EE3endEv(%"class.std::vector"* %6) #3
  %32 = getelementptr inbounds %"class.__gnu_cxx::__normal_iterator", %"class.__gnu_cxx::__normal_iterator"* %5, i32 0, i32 0
  store %"class.std::map"* %31, %"class.std::map"** %32, align 8
  %33 = load %"class.std::map"*, %"class.std::map"** %4, align 8
  %34 = getelementptr inbounds %"class.__gnu_cxx::__normal_iterator", %"class.__gnu_cxx::__normal_iterator"* %5, i32 0, i32 0
  %35 = load %"class.std::map"*, %"class.std::map"** %34, align 8
  call void @_ZNSt6vectorISt3mapINSt7__cxx1112basic_stringIcSt11char_traitsIcESaIcEEESt10shared_ptrIN4mini10TypedValueEESt4lessIS6_ESaISt4pairIKS6_SA_EEESaISH_EE17_M_realloc_insertIJRKSH_EEEvN9__gnu_cxx17__normal_iteratorIPSH_SJ_EEDpOT_(%"class.std::vector"* %6, %"class.std::map"* %35, %"class.std::map"* dereferenceable(48) %33)
  br label %36

36:                                               ; preds = %30, %16
  ret void
}

declare dso_local void @_ZN3ast8Function6acceptEPNS_10ASTVisitorE(%"struct.antlrcpp::Any"* sret, %"class.ast::Function"*, %"class.ast::ASTVisitor"*) #1

; Function Attrs: noinline nounwind optnone uwtable
define linkonce_odr dso_local void @_ZNSt6vectorISt3mapINSt7__cxx1112basic_stringIcSt11char_traitsIcESaIcEEESt10shared_ptrIN4mini10TypedValueEESt4lessIS6_ESaISt4pairIKS6_SA_EEESaISH_EE8pop_backEv(%"class.std::vector"* %0) #5 comdat align 2 personality i8* bitcast (i32 (...)* @__gxx_personality_v0 to i8*) {
  %2 = alloca %"class.std::vector"*, align 8
  store %"class.std::vector"* %0, %"class.std::vector"** %2, align 8
  %3 = load %"class.std::vector"*, %"class.std::vector"** %2, align 8
  %4 = bitcast %"class.std::vector"* %3 to %"struct.std::_Vector_base"*
  %5 = getelementptr inbounds %"struct.std::_Vector_base", %"struct.std::_Vector_base"* %4, i32 0, i32 0
  %6 = getelementptr inbounds %"struct.std::_Vector_base<std::map<std::__cxx11::basic_string<char>, std::shared_ptr<mini::TypedValue>, std::less<std::__cxx11::basic_string<char> >, std::allocator<std::pair<const std::__cxx11::basic_string<char>, std::shared_ptr<mini::TypedValue> > > >, std::allocator<std::map<std::__cxx11::basic_string<char>, std::shared_ptr<mini::TypedValue>, std::less<std::__cxx11::basic_string<char> >, std::allocator<std::pair<const std::__cxx11::basic_string<char>, std::shared_ptr<mini::TypedValue> > > > > >::_Vector_impl", %"struct.std::_Vector_base<std::map<std::__cxx11::basic_string<char>, std::shared_ptr<mini::TypedValue>, std::less<std::__cxx11::basic_string<char> >, std::allocator<std::pair<const std::__cxx11::basic_string<char>, std::shared_ptr<mini::TypedValue> > > >, std::allocator<std::map<std::__cxx11::basic_string<char>, std::shared_ptr<mini::TypedValue>, std::less<std::__cxx11::basic_string<char> >, std::allocator<std::pair<const std::__cxx11::basic_string<char>, std::shared_ptr<mini::TypedValue> > > > > >::_Vector_impl"* %5, i32 0, i32 1
  %7 = load %"class.std::map"*, %"class.std::map"** %6, align 8
  %8 = getelementptr inbounds %"class.std::map", %"class.std::map"* %7, i32 -1
  store %"class.std::map"* %8, %"class.std::map"** %6, align 8
  %9 = bitcast %"class.std::vector"* %3 to %"struct.std::_Vector_base"*
  %10 = getelementptr inbounds %"struct.std::_Vector_base", %"struct.std::_Vector_base"* %9, i32 0, i32 0
  %11 = bitcast %"struct.std::_Vector_base<std::map<std::__cxx11::basic_string<char>, std::shared_ptr<mini::TypedValue>, std::less<std::__cxx11::basic_string<char> >, std::allocator<std::pair<const std::__cxx11::basic_string<char>, std::shared_ptr<mini::TypedValue> > > >, std::allocator<std::map<std::__cxx11::basic_string<char>, std::shared_ptr<mini::TypedValue>, std::less<std::__cxx11::basic_string<char> >, std::allocator<std::pair<const std::__cxx11::basic_string<char>, std::shared_ptr<mini::TypedValue> > > > > >::_Vector_impl"* %10 to %"class.std::allocator.3"*
  %12 = bitcast %"class.std::vector"* %3 to %"struct.std::_Vector_base"*
  %13 = getelementptr inbounds %"struct.std::_Vector_base", %"struct.std::_Vector_base"* %12, i32 0, i32 0
  %14 = getelementptr inbounds %"struct.std::_Vector_base<std::map<std::__cxx11::basic_string<char>, std::shared_ptr<mini::TypedValue>, std::less<std::__cxx11::basic_string<char> >, std::allocator<std::pair<const std::__cxx11::basic_string<char>, std::shared_ptr<mini::TypedValue> > > >, std::allocator<std::map<std::__cxx11::basic_string<char>, std::shared_ptr<mini::TypedValue>, std::less<std::__cxx11::basic_string<char> >, std::allocator<std::pair<const std::__cxx11::basic_string<char>, std::shared_ptr<mini::TypedValue> > > > > >::_Vector_impl", %"struct.std::_Vector_base<std::map<std::__cxx11::basic_string<char>, std::shared_ptr<mini::TypedValue>, std::less<std::__cxx11::basic_string<char> >, std::allocator<std::pair<const std::__cxx11::basic_string<char>, std::shared_ptr<mini::TypedValue> > > >, std::allocator<std::map<std::__cxx11::basic_string<char>, std::shared_ptr<mini::TypedValue>, std::less<std::__cxx11::basic_string<char> >, std::allocator<std::pair<const std::__cxx11::basic_string<char>, std::shared_ptr<mini::TypedValue> > > > > >::_Vector_impl"* %13, i32 0, i32 1
  %15 = load %"class.std::map"*, %"class.std::map"** %14, align 8
  invoke void @_ZNSt16allocator_traitsISaISt3mapINSt7__cxx1112basic_stringIcSt11char_traitsIcESaIcEEESt10shared_ptrIN4mini10TypedValueEESt4lessIS6_ESaISt4pairIKS6_SA_EEEEE7destroyISH_EEvRSI_PT_(%"class.std::allocator.3"* dereferenceable(1) %11, %"class.std::map"* %15)
          to label %16 unwind label %17

16:                                               ; preds = %1
  ret void

17:                                               ; preds = %1
  %18 = landingpad { i8*, i32 }
          catch i8* null
  %19 = extractvalue { i8*, i32 } %18, 0
  call void @__clang_call_terminate(i8* %19) #15
  unreachable
}

; Function Attrs: noinline nounwind optnone uwtable
define linkonce_odr dso_local void @_ZNSt10shared_ptrIN3ast8FunctionEED2Ev(%"class.std::shared_ptr.40"* %0) unnamed_addr #5 comdat align 2 {
  %2 = alloca %"class.std::shared_ptr.40"*, align 8
  store %"class.std::shared_ptr.40"* %0, %"class.std::shared_ptr.40"** %2, align 8
  %3 = load %"class.std::shared_ptr.40"*, %"class.std::shared_ptr.40"** %2, align 8
  %4 = bitcast %"class.std::shared_ptr.40"* %3 to %"class.std::__shared_ptr.41"*
  call void @_ZNSt12__shared_ptrIN3ast8FunctionELN9__gnu_cxx12_Lock_policyE2EED2Ev(%"class.std::__shared_ptr.41"* %4) #3
  ret void
}

; Function Attrs: noinline optnone uwtable
define dso_local void @_ZN4mini15MiniInterpreter5visitEPN3ast19InvocationStatementE(%"struct.antlrcpp::Any"* noalias sret %0, %"class.mini::MiniInterpreter"* %1, %"class.ast::InvocationStatement"* %2) unnamed_addr #4 align 2 personality i8* bitcast (i32 (...)* @__gxx_personality_v0 to i8*) {
  %4 = alloca i8*, align 8
  %5 = alloca %"class.mini::MiniInterpreter"*, align 8
  %6 = alloca %"class.ast::InvocationStatement"*, align 8
  %7 = alloca %"struct.antlrcpp::Any", align 8
  %8 = alloca i8*, align 8
  %9 = alloca i8*
  %10 = alloca i32
  %11 = bitcast %"struct.antlrcpp::Any"* %0 to i8*
  store i8* %11, i8** %4, align 8
  store %"class.mini::MiniInterpreter"* %1, %"class.mini::MiniInterpreter"** %5, align 8
  store %"class.ast::InvocationStatement"* %2, %"class.ast::InvocationStatement"** %6, align 8
  %12 = load %"class.mini::MiniInterpreter"*, %"class.mini::MiniInterpreter"** %5, align 8
  %13 = load %"class.ast::InvocationStatement"*, %"class.ast::InvocationStatement"** %6, align 8
  %14 = getelementptr inbounds %"class.ast::InvocationStatement", %"class.ast::InvocationStatement"* %13, i32 0, i32 1
  %15 = bitcast %"class.std::shared_ptr.55"* %14 to %"class.std::__shared_ptr_access.57"*
  %16 = call %"class.ast::Expression"* @_ZNKSt19__shared_ptr_accessIN3ast10ExpressionELN9__gnu_cxx12_Lock_policyE2ELb0ELb0EEptEv(%"class.std::__shared_ptr_access.57"* %15) #3
  %17 = bitcast %"class.mini::MiniInterpreter"* %12 to %"class.ast::ASTVisitor"*
  %18 = bitcast %"class.ast::Expression"* %16 to void (%"struct.antlrcpp::Any"*, %"class.ast::Expression"*, %"class.ast::ASTVisitor"*)***
  %19 = load void (%"struct.antlrcpp::Any"*, %"class.ast::Expression"*, %"class.ast::ASTVisitor"*)**, void (%"struct.antlrcpp::Any"*, %"class.ast::Expression"*, %"class.ast::ASTVisitor"*)*** %18, align 8
  %20 = getelementptr inbounds void (%"struct.antlrcpp::Any"*, %"class.ast::Expression"*, %"class.ast::ASTVisitor"*)*, void (%"struct.antlrcpp::Any"*, %"class.ast::Expression"*, %"class.ast::ASTVisitor"*)** %19, i64 0
  %21 = load void (%"struct.antlrcpp::Any"*, %"class.ast::Expression"*, %"class.ast::ASTVisitor"*)*, void (%"struct.antlrcpp::Any"*, %"class.ast::Expression"*, %"class.ast::ASTVisitor"*)** %20, align 8
  call void %21(%"struct.antlrcpp::Any"* sret %7, %"class.ast::Expression"* %16, %"class.ast::ASTVisitor"* %17)
  store i8* null, i8** %8, align 8
  invoke void @_ZN8antlrcpp3AnyC2IDnEEOT_(%"struct.antlrcpp::Any"* %0, i8** dereferenceable(8) %8)
          to label %22 unwind label %23

22:                                               ; preds = %3
  call void @_ZN8antlrcpp3AnyD1Ev(%"struct.antlrcpp::Any"* %7) #3
  ret void

23:                                               ; preds = %3
  %24 = landingpad { i8*, i32 }
          cleanup
  %25 = extractvalue { i8*, i32 } %24, 0
  store i8* %25, i8** %9, align 8
  %26 = extractvalue { i8*, i32 } %24, 1
  store i32 %26, i32* %10, align 4
  call void @_ZN8antlrcpp3AnyD1Ev(%"struct.antlrcpp::Any"* %7) #3
  br label %27

27:                                               ; preds = %23
  %28 = load i8*, i8** %9, align 8
  %29 = load i32, i32* %10, align 4
  %30 = insertvalue { i8*, i32 } undef, i8* %28, 0
  %31 = insertvalue { i8*, i32 } %30, i32 %29, 1
  resume { i8*, i32 } %31
}

; Function Attrs: noinline optnone uwtable
define dso_local void @_ZN4mini15MiniInterpreter5visitEPN3ast9LvalueDotE(%"struct.antlrcpp::Any"* noalias sret %0, %"class.mini::MiniInterpreter"* %1, %"class.ast::LvalueDot"* %2) unnamed_addr #4 align 2 personality i8* bitcast (i32 (...)* @__gxx_personality_v0 to i8*) {
  %4 = alloca i8*, align 8
  %5 = alloca %"class.mini::MiniInterpreter"*, align 8
  %6 = alloca %"class.ast::LvalueDot"*, align 8
  %7 = alloca %"class.mini::TypedValue", align 8
  %8 = alloca %"struct.antlrcpp::Any", align 8
  %9 = alloca i8*
  %10 = alloca i32
  %11 = alloca %"class.std::__cxx11::basic_string", align 8
  %12 = alloca %"class.std::__cxx11::basic_string", align 8
  %13 = alloca i1, align 1
  %14 = alloca %"class.std::__cxx11::basic_string", align 8
  %15 = alloca %"class.std::__cxx11::basic_string", align 8
  %16 = alloca i1, align 1
  %17 = alloca %"class.std::map"*, align 8
  %18 = alloca %"class.std::__cxx11::basic_string", align 8
  %19 = alloca %"class.std::__cxx11::basic_string", align 8
  %20 = alloca i1, align 1
  %21 = bitcast %"struct.antlrcpp::Any"* %0 to i8*
  store i8* %21, i8** %4, align 8
  store %"class.mini::MiniInterpreter"* %1, %"class.mini::MiniInterpreter"** %5, align 8
  store %"class.ast::LvalueDot"* %2, %"class.ast::LvalueDot"** %6, align 8
  %22 = load %"class.mini::MiniInterpreter"*, %"class.mini::MiniInterpreter"** %5, align 8
  %23 = load %"class.ast::LvalueDot"*, %"class.ast::LvalueDot"** %6, align 8
  %24 = getelementptr inbounds %"class.ast::LvalueDot", %"class.ast::LvalueDot"* %23, i32 0, i32 1
  %25 = bitcast %"class.std::shared_ptr.55"* %24 to %"class.std::__shared_ptr_access.57"*
  %26 = call %"class.ast::Expression"* @_ZNKSt19__shared_ptr_accessIN3ast10ExpressionELN9__gnu_cxx12_Lock_policyE2ELb0ELb0EEptEv(%"class.std::__shared_ptr_access.57"* %25) #3
  %27 = bitcast %"class.mini::MiniInterpreter"* %22 to %"class.ast::ASTVisitor"*
  %28 = bitcast %"class.ast::Expression"* %26 to void (%"struct.antlrcpp::Any"*, %"class.ast::Expression"*, %"class.ast::ASTVisitor"*)***
  %29 = load void (%"struct.antlrcpp::Any"*, %"class.ast::Expression"*, %"class.ast::ASTVisitor"*)**, void (%"struct.antlrcpp::Any"*, %"class.ast::Expression"*, %"class.ast::ASTVisitor"*)*** %28, align 8
  %30 = getelementptr inbounds void (%"struct.antlrcpp::Any"*, %"class.ast::Expression"*, %"class.ast::ASTVisitor"*)*, void (%"struct.antlrcpp::Any"*, %"class.ast::Expression"*, %"class.ast::ASTVisitor"*)** %29, i64 0
  %31 = load void (%"struct.antlrcpp::Any"*, %"class.ast::Expression"*, %"class.ast::ASTVisitor"*)*, void (%"struct.antlrcpp::Any"*, %"class.ast::Expression"*, %"class.ast::ASTVisitor"*)** %30, align 8
  call void %31(%"struct.antlrcpp::Any"* sret %8, %"class.ast::Expression"* %26, %"class.ast::ASTVisitor"* %27)
  invoke void @_ZN8antlrcpp3AnycvT_IN4mini10TypedValueEEEv(%"class.mini::TypedValue"* sret %7, %"struct.antlrcpp::Any"* %8)
          to label %32 unwind label %45

32:                                               ; preds = %3
  call void @_ZN8antlrcpp3AnyD1Ev(%"struct.antlrcpp::Any"* %8) #3
  %33 = invoke zeroext i1 @_ZN4mini10TypedValue8isStructEv(%"class.mini::TypedValue"* %7)
          to label %34 unwind label %49

34:                                               ; preds = %32
  br i1 %33, label %70, label %35

35:                                               ; preds = %34
  %36 = call i8* @__cxa_allocate_exception(i64 16) #3
  store i1 true, i1* %13, align 1
  %37 = bitcast i8* %36 to %"class.std::runtime_error"*
  %38 = load %"class.ast::LvalueDot"*, %"class.ast::LvalueDot"** %6, align 8
  %39 = bitcast %"class.ast::LvalueDot"* %38 to %"class.ast::Lvalue"*
  %40 = getelementptr inbounds %"class.ast::Lvalue", %"class.ast::Lvalue"* %39, i32 0, i32 1
  %41 = load i32, i32* %40, align 8
  invoke void @_ZNSt7__cxx119to_stringEi(%"class.std::__cxx11::basic_string"* sret %12, i32 %41)
          to label %42 unwind label %53

42:                                               ; preds = %35
  invoke void @_ZStplIcSt11char_traitsIcESaIcEENSt7__cxx1112basic_stringIT_T0_T1_EEOS8_PKS5_(%"class.std::__cxx11::basic_string"* sret %11, %"class.std::__cxx11::basic_string"* dereferenceable(32) %12, i8* getelementptr inbounds ([36 x i8], [36 x i8]* @.str.12, i64 0, i64 0))
          to label %43 unwind label %57

43:                                               ; preds = %42
  invoke void @_ZNSt13runtime_errorC1ERKNSt7__cxx1112basic_stringIcSt11char_traitsIcESaIcEEE(%"class.std::runtime_error"* %37, %"class.std::__cxx11::basic_string"* dereferenceable(32) %11)
          to label %44 unwind label %61

44:                                               ; preds = %43
  store i1 false, i1* %13, align 1
  invoke void @__cxa_throw(i8* %36, i8* bitcast (i8** @_ZTISt13runtime_error to i8*), i8* bitcast (void (%"class.std::runtime_error"*)* @_ZNSt13runtime_errorD1Ev to i8*)) #16
          to label %150 unwind label %61

45:                                               ; preds = %3
  %46 = landingpad { i8*, i32 }
          cleanup
  %47 = extractvalue { i8*, i32 } %46, 0
  store i8* %47, i8** %9, align 8
  %48 = extractvalue { i8*, i32 } %46, 1
  store i32 %48, i32* %10, align 4
  call void @_ZN8antlrcpp3AnyD1Ev(%"struct.antlrcpp::Any"* %8) #3
  br label %145

49:                                               ; preds = %115, %110, %103, %101, %70, %32
  %50 = landingpad { i8*, i32 }
          cleanup
  %51 = extractvalue { i8*, i32 } %50, 0
  store i8* %51, i8** %9, align 8
  %52 = extractvalue { i8*, i32 } %50, 1
  store i32 %52, i32* %10, align 4
  br label %144

53:                                               ; preds = %35
  %54 = landingpad { i8*, i32 }
          cleanup
  %55 = extractvalue { i8*, i32 } %54, 0
  store i8* %55, i8** %9, align 8
  %56 = extractvalue { i8*, i32 } %54, 1
  store i32 %56, i32* %10, align 4
  br label %66

57:                                               ; preds = %42
  %58 = landingpad { i8*, i32 }
          cleanup
  %59 = extractvalue { i8*, i32 } %58, 0
  store i8* %59, i8** %9, align 8
  %60 = extractvalue { i8*, i32 } %58, 1
  store i32 %60, i32* %10, align 4
  br label %65

61:                                               ; preds = %44, %43
  %62 = landingpad { i8*, i32 }
          cleanup
  %63 = extractvalue { i8*, i32 } %62, 0
  store i8* %63, i8** %9, align 8
  %64 = extractvalue { i8*, i32 } %62, 1
  store i32 %64, i32* %10, align 4
  call void @_ZNSt7__cxx1112basic_stringIcSt11char_traitsIcESaIcEED1Ev(%"class.std::__cxx11::basic_string"* %11) #3
  br label %65

65:                                               ; preds = %61, %57
  call void @_ZNSt7__cxx1112basic_stringIcSt11char_traitsIcESaIcEED1Ev(%"class.std::__cxx11::basic_string"* %12) #3
  br label %66

